Archive member included to satisfy reference by file (symbol)

c:/program files (x86)/microchip/xc32/v2.15/bin/bin/../../lib/gcc/pic32c/6.2.1/../../../../pic32c/lib\libpic32c.a(data_init.o)
                              build/sam_d21_xpro_winc1500/production/_ext/281389274/startup_xc32.o (__pic32c_data_initialization)
c:/program files (x86)/microchip/xc32/v2.15/bin/bin/../../lib/gcc/pic32c/6.2.1\libgcc.a(_udivsi3.o)
                              build/sam_d21_xpro_winc1500/production/_ext/98527899/plib_sercom0_spi.o (__aeabi_uidiv)
c:/program files (x86)/microchip/xc32/v2.15/bin/bin/../../lib/gcc/pic32c/6.2.1\libgcc.a(_divsi3.o)
                              build/sam_d21_xpro_winc1500/production/_ext/1751631207/sys_time.o (__aeabi_idiv)
c:/program files (x86)/microchip/xc32/v2.15/bin/bin/../../lib/gcc/pic32c/6.2.1\libgcc.a(_dvmd_tls.o)
                              c:/program files (x86)/microchip/xc32/v2.15/bin/bin/../../lib/gcc/pic32c/6.2.1\libgcc.a(_udivsi3.o) (__aeabi_idiv0)
c:/program files (x86)/microchip/xc32/v2.15/bin/bin/../../lib/gcc/pic32c/6.2.1\libgcc.a(_aeabi_uldivmod.o)
                              build/sam_d21_xpro_winc1500/production/_ext/1242531425/plib_sercom3_usart.o (__aeabi_uldivmod)
c:/program files (x86)/microchip/xc32/v2.15/bin/bin/../../lib/gcc/pic32c/6.2.1\libgcc.a(_muldi3.o)
                              build/sam_d21_xpro_winc1500/production/_ext/1242531425/plib_sercom3_usart.o (__aeabi_lmul)
c:/program files (x86)/microchip/xc32/v2.15/bin/bin/../../lib/gcc/pic32c/6.2.1\libgcc.a(_fixunsdfsi.o)
                              build/sam_d21_xpro_winc1500/production/_ext/1751631207/sys_time.o (__aeabi_d2uiz)
c:/program files (x86)/microchip/xc32/v2.15/bin/bin/../../lib/gcc/pic32c/6.2.1\libgcc.a(_udivmoddi4.o)
                              c:/program files (x86)/microchip/xc32/v2.15/bin/bin/../../lib/gcc/pic32c/6.2.1\libgcc.a(_aeabi_uldivmod.o) (__udivmoddi4)
c:/program files (x86)/microchip/xc32/v2.15/bin/bin/../../lib/gcc/pic32c/6.2.1\libgcc.a(mulsf3.o)
                              build/sam_d21_xpro_winc1500/production/_ext/1751631207/sys_time.o (__aeabi_fmul)
c:/program files (x86)/microchip/xc32/v2.15/bin/bin/../../lib/gcc/pic32c/6.2.1\libgcc.a(floatunsisf.o)
                              build/sam_d21_xpro_winc1500/production/_ext/1751631207/sys_time.o (__aeabi_ui2f)
c:/program files (x86)/microchip/xc32/v2.15/bin/bin/../../lib/gcc/pic32c/6.2.1\libgcc.a(divdf3.o)
                              build/sam_d21_xpro_winc1500/production/_ext/1751631207/sys_time.o (__aeabi_ddiv)
c:/program files (x86)/microchip/xc32/v2.15/bin/bin/../../lib/gcc/pic32c/6.2.1\libgcc.a(muldf3.o)
                              build/sam_d21_xpro_winc1500/production/_ext/1751631207/sys_time.o (__aeabi_dmul)
c:/program files (x86)/microchip/xc32/v2.15/bin/bin/../../lib/gcc/pic32c/6.2.1\libgcc.a(subdf3.o)
                              c:/program files (x86)/microchip/xc32/v2.15/bin/bin/../../lib/gcc/pic32c/6.2.1\libgcc.a(_fixunsdfsi.o) (__aeabi_dsub)
c:/program files (x86)/microchip/xc32/v2.15/bin/bin/../../lib/gcc/pic32c/6.2.1\libgcc.a(fixdfsi.o)
                              c:/program files (x86)/microchip/xc32/v2.15/bin/bin/../../lib/gcc/pic32c/6.2.1\libgcc.a(_fixunsdfsi.o) (__aeabi_d2iz)
c:/program files (x86)/microchip/xc32/v2.15/bin/bin/../../lib/gcc/pic32c/6.2.1\libgcc.a(floatunsidf.o)
                              build/sam_d21_xpro_winc1500/production/_ext/1751631207/sys_time.o (__aeabi_ui2d)
c:/program files (x86)/microchip/xc32/v2.15/bin/bin/../../lib/gcc/pic32c/6.2.1\libgcc.a(extendsfdf2.o)
                              build/sam_d21_xpro_winc1500/production/_ext/1751631207/sys_time.o (__aeabi_f2d)
c:/program files (x86)/microchip/xc32/v2.15/bin/bin/../../lib/gcc/pic32c/6.2.1\libgcc.a(_arm_cmpdf2.o)
                              c:/program files (x86)/microchip/xc32/v2.15/bin/bin/../../lib/gcc/pic32c/6.2.1\libgcc.a(_fixunsdfsi.o) (__aeabi_dcmpge)
c:/program files (x86)/microchip/xc32/v2.15/bin/bin/../../lib/gcc/pic32c/6.2.1\libgcc.a(_clzsi2.o)
                              c:/program files (x86)/microchip/xc32/v2.15/bin/bin/../../lib/gcc/pic32c/6.2.1\libgcc.a(mulsf3.o) (__clzsi2)
c:/program files (x86)/microchip/xc32/v2.15/bin/bin/../../lib/gcc/pic32c/6.2.1\libgcc.a(_clzdi2.o)
                              c:/program files (x86)/microchip/xc32/v2.15/bin/bin/../../lib/gcc/pic32c/6.2.1\libgcc.a(_udivmoddi4.o) (__clzdi2)
c:/program files (x86)/microchip/xc32/v2.15/bin/bin/../../lib/gcc/pic32c/6.2.1\libgcc.a(eqdf2.o)
                              c:/program files (x86)/microchip/xc32/v2.15/bin/bin/../../lib/gcc/pic32c/6.2.1\libgcc.a(_arm_cmpdf2.o) (__eqdf2)
c:/program files (x86)/microchip/xc32/v2.15/bin/bin/../../lib/gcc/pic32c/6.2.1\libgcc.a(gedf2.o)
                              c:/program files (x86)/microchip/xc32/v2.15/bin/bin/../../lib/gcc/pic32c/6.2.1\libgcc.a(_arm_cmpdf2.o) (__gedf2)
c:/program files (x86)/microchip/xc32/v2.15/bin/bin/../../lib/gcc/pic32c/6.2.1\libgcc.a(ledf2.o)
                              c:/program files (x86)/microchip/xc32/v2.15/bin/bin/../../lib/gcc/pic32c/6.2.1\libgcc.a(_arm_cmpdf2.o) (__ledf2)
c:/program files (x86)/microchip/xc32/v2.15/bin/bin/../../lib/gcc/pic32c/6.2.1/../../../../pic32c/lib\libc.a(lib_a-exit.o)
                              c:/program files (x86)/microchip/xc32/v2.15/bin/bin/../../lib/gcc/pic32c/6.2.1/../../../../pic32c/lib/crt0.o (exit)
c:/program files (x86)/microchip/xc32/v2.15/bin/bin/../../lib/gcc/pic32c/6.2.1/../../../../pic32c/lib\libc.a(lib_a-gmtime.o)
                              build/sam_d21_xpro_winc1500/production/_ext/2003669979/wdrv_winc_systime.o (gmtime)
c:/program files (x86)/microchip/xc32/v2.15/bin/bin/../../lib/gcc/pic32c/6.2.1/../../../../pic32c/lib\libc.a(lib_a-gmtime_r.o)
                              c:/program files (x86)/microchip/xc32/v2.15/bin/bin/../../lib/gcc/pic32c/6.2.1/../../../../pic32c/lib\libc.a(lib_a-gmtime.o) (gmtime_r)
c:/program files (x86)/microchip/xc32/v2.15/bin/bin/../../lib/gcc/pic32c/6.2.1/../../../../pic32c/lib\libc.a(lib_a-impure.o)
                              c:/program files (x86)/microchip/xc32/v2.15/bin/bin/../../lib/gcc/pic32c/6.2.1/../../../../pic32c/lib\libc.a(lib_a-exit.o) (_global_impure_ptr)
c:/program files (x86)/microchip/xc32/v2.15/bin/bin/../../lib/gcc/pic32c/6.2.1/../../../../pic32c/lib\libc.a(lib_a-init.o)
                              c:/program files (x86)/microchip/xc32/v2.15/bin/bin/../../lib/gcc/pic32c/6.2.1/../../../../pic32c/lib/crt0.o (__libc_init_array)
c:/program files (x86)/microchip/xc32/v2.15/bin/bin/../../lib/gcc/pic32c/6.2.1/../../../../pic32c/lib\libc.a(lib_a-malloc.o)
                              build/sam_d21_xpro_winc1500/production/_ext/386821479/m2m_wifi.o (malloc)
c:/program files (x86)/microchip/xc32/v2.15/bin/bin/../../lib/gcc/pic32c/6.2.1/../../../../pic32c/lib\libc.a(lib_a-mallocr.o)
                              c:/program files (x86)/microchip/xc32/v2.15/bin/bin/../../lib/gcc/pic32c/6.2.1/../../../../pic32c/lib\libc.a(lib_a-malloc.o) (_malloc_r)
c:/program files (x86)/microchip/xc32/v2.15/bin/bin/../../lib/gcc/pic32c/6.2.1/../../../../pic32c/lib\libc.a(lib_a-memcpy-stub.o)
                              build/sam_d21_xpro_winc1500/production/_ext/2003669979/wdrv_winc.o (memcpy)
c:/program files (x86)/microchip/xc32/v2.15/bin/bin/../../lib/gcc/pic32c/6.2.1/../../../../pic32c/lib\libc.a(lib_a-memset.o)
                              c:/program files (x86)/microchip/xc32/v2.15/bin/bin/../../lib/gcc/pic32c/6.2.1/../../../../pic32c/lib/crt0.o (memset)
c:/program files (x86)/microchip/xc32/v2.15/bin/bin/../../lib/gcc/pic32c/6.2.1/../../../../pic32c/lib\libc.a(lib_a-mktime.o)
                              build/sam_d21_xpro_winc1500/production/_ext/2003669979/wdrv_winc_systime.o (mktime)
c:/program files (x86)/microchip/xc32/v2.15/bin/bin/../../lib/gcc/pic32c/6.2.1/../../../../pic32c/lib\libc.a(lib_a-mlock.o)
                              c:/program files (x86)/microchip/xc32/v2.15/bin/bin/../../lib/gcc/pic32c/6.2.1/../../../../pic32c/lib\libc.a(lib_a-mallocr.o) (__malloc_lock)
c:/program files (x86)/microchip/xc32/v2.15/bin/bin/../../lib/gcc/pic32c/6.2.1/../../../../pic32c/lib\libc.a(lib_a-sbrkr.o)
                              c:/program files (x86)/microchip/xc32/v2.15/bin/bin/../../lib/gcc/pic32c/6.2.1/../../../../pic32c/lib\libc.a(lib_a-mallocr.o) (_sbrk_r)
c:/program files (x86)/microchip/xc32/v2.15/bin/bin/../../lib/gcc/pic32c/6.2.1/../../../../pic32c/lib\libc.a(lib_a-sprintf.o)
                              (sprintf)
c:/program files (x86)/microchip/xc32/v2.15/bin/bin/../../lib/gcc/pic32c/6.2.1/../../../../pic32c/lib\libc.a(lib_a-strchr.o)
                              build/sam_d21_xpro_winc1500/production/_ext/2003669979/wdrv_winc_authctx.o (strchr)
c:/program files (x86)/microchip/xc32/v2.15/bin/bin/../../lib/gcc/pic32c/6.2.1/../../../../pic32c/lib\libc.a(lib_a-strcpy.o)
                              build/sam_d21_xpro_winc1500/production/_ext/2114417963/sys_debug.o (strcpy)
c:/program files (x86)/microchip/xc32/v2.15/bin/bin/../../lib/gcc/pic32c/6.2.1/../../../../pic32c/lib\libc.a(lib_a-strlen-stub.o)
                              build/sam_d21_xpro_winc1500/production/_ext/2003669979/wdrv_winc.o (strlen)
c:/program files (x86)/microchip/xc32/v2.15/bin/bin/../../lib/gcc/pic32c/6.2.1/../../../../pic32c/lib\libc.a(lib_a-strstr.o)
                              build/sam_d21_xpro_winc1500/production/_ext/1360937237/app.o (strstr)
c:/program files (x86)/microchip/xc32/v2.15/bin/bin/../../lib/gcc/pic32c/6.2.1/../../../../pic32c/lib\libc.a(lib_a-svfprintf.o)
                              c:/program files (x86)/microchip/xc32/v2.15/bin/bin/../../lib/gcc/pic32c/6.2.1/../../../../pic32c/lib\libc.a(lib_a-sprintf.o) (_svfprintf_r)
c:/program files (x86)/microchip/xc32/v2.15/bin/bin/../../lib/gcc/pic32c/6.2.1/../../../../pic32c/lib\libc.a(lib_a-tzcalc_limits.o)
                              c:/program files (x86)/microchip/xc32/v2.15/bin/bin/../../lib/gcc/pic32c/6.2.1/../../../../pic32c/lib\libc.a(lib_a-mktime.o) (__tzcalc_limits)
c:/program files (x86)/microchip/xc32/v2.15/bin/bin/../../lib/gcc/pic32c/6.2.1/../../../../pic32c/lib\libc.a(lib_a-tzlock.o)
                              c:/program files (x86)/microchip/xc32/v2.15/bin/bin/../../lib/gcc/pic32c/6.2.1/../../../../pic32c/lib\libc.a(lib_a-mktime.o) (__tz_lock)
c:/program files (x86)/microchip/xc32/v2.15/bin/bin/../../lib/gcc/pic32c/6.2.1/../../../../pic32c/lib\libc.a(lib_a-tzset.o)
                              c:/program files (x86)/microchip/xc32/v2.15/bin/bin/../../lib/gcc/pic32c/6.2.1/../../../../pic32c/lib\libc.a(lib_a-mktime.o) (_tzset_unlocked)
c:/program files (x86)/microchip/xc32/v2.15/bin/bin/../../lib/gcc/pic32c/6.2.1/../../../../pic32c/lib\libc.a(lib_a-tzset_r.o)
                              c:/program files (x86)/microchip/xc32/v2.15/bin/bin/../../lib/gcc/pic32c/6.2.1/../../../../pic32c/lib\libc.a(lib_a-tzset.o) (_tzset_unlocked_r)
c:/program files (x86)/microchip/xc32/v2.15/bin/bin/../../lib/gcc/pic32c/6.2.1/../../../../pic32c/lib\libc.a(lib_a-tzvars.o)
                              c:/program files (x86)/microchip/xc32/v2.15/bin/bin/../../lib/gcc/pic32c/6.2.1/../../../../pic32c/lib\libc.a(lib_a-tzset_r.o) (_timezone)
c:/program files (x86)/microchip/xc32/v2.15/bin/bin/../../lib/gcc/pic32c/6.2.1/../../../../pic32c/lib\libc.a(lib_a-vsnprintf.o)
                              build/sam_d21_xpro_winc1500/production/_ext/2114417963/sys_debug.o (vsnprintf)
c:/program files (x86)/microchip/xc32/v2.15/bin/bin/../../lib/gcc/pic32c/6.2.1/../../../../pic32c/lib\libc.a(lib_a-__call_atexit.o)
                              c:/program files (x86)/microchip/xc32/v2.15/bin/bin/../../lib/gcc/pic32c/6.2.1/../../../../pic32c/lib\libc.a(lib_a-exit.o) (__call_exitprocs)
c:/program files (x86)/microchip/xc32/v2.15/bin/bin/../../lib/gcc/pic32c/6.2.1/../../../../pic32c/lib\libc.a(lib_a-atexit.o)
                              c:/program files (x86)/microchip/xc32/v2.15/bin/bin/../../lib/gcc/pic32c/6.2.1/../../../../pic32c/lib\libc.a(lib_a-__call_atexit.o) (atexit)
c:/program files (x86)/microchip/xc32/v2.15/bin/bin/../../lib/gcc/pic32c/6.2.1/../../../../pic32c/lib\libc.a(lib_a-div.o)
                              c:/program files (x86)/microchip/xc32/v2.15/bin/bin/../../lib/gcc/pic32c/6.2.1/../../../../pic32c/lib\libc.a(lib_a-mktime.o) (div)
c:/program files (x86)/microchip/xc32/v2.15/bin/bin/../../lib/gcc/pic32c/6.2.1/../../../../pic32c/lib\libc.a(lib_a-dtoa.o)
                              c:/program files (x86)/microchip/xc32/v2.15/bin/bin/../../lib/gcc/pic32c/6.2.1/../../../../pic32c/lib\libc.a(lib_a-svfprintf.o) (_dtoa_r)
c:/program files (x86)/microchip/xc32/v2.15/bin/bin/../../lib/gcc/pic32c/6.2.1/../../../../pic32c/lib\libc.a(lib_a-fini.o)
                              c:/program files (x86)/microchip/xc32/v2.15/bin/bin/../../lib/gcc/pic32c/6.2.1/../../../../pic32c/lib\libc.a(lib_a-__call_atexit.o) (__libc_fini_array)
c:/program files (x86)/microchip/xc32/v2.15/bin/bin/../../lib/gcc/pic32c/6.2.1/../../../../pic32c/lib\libc.a(lib_a-freer.o)
                              c:/program files (x86)/microchip/xc32/v2.15/bin/bin/../../lib/gcc/pic32c/6.2.1/../../../../pic32c/lib\libc.a(lib_a-malloc.o) (_free_r)
c:/program files (x86)/microchip/xc32/v2.15/bin/bin/../../lib/gcc/pic32c/6.2.1/../../../../pic32c/lib\libc.a(lib_a-getenv_r.o)
                              c:/program files (x86)/microchip/xc32/v2.15/bin/bin/../../lib/gcc/pic32c/6.2.1/../../../../pic32c/lib\libc.a(lib_a-tzset_r.o) (_getenv_r)
c:/program files (x86)/microchip/xc32/v2.15/bin/bin/../../lib/gcc/pic32c/6.2.1/../../../../pic32c/lib\libc.a(lib_a-gettzinfo.o)
                              c:/program files (x86)/microchip/xc32/v2.15/bin/bin/../../lib/gcc/pic32c/6.2.1/../../../../pic32c/lib\libc.a(lib_a-mktime.o) (__gettzinfo)
c:/program files (x86)/microchip/xc32/v2.15/bin/bin/../../lib/gcc/pic32c/6.2.1/../../../../pic32c/lib\libc.a(lib_a-localeconv.o)
                              c:/program files (x86)/microchip/xc32/v2.15/bin/bin/../../lib/gcc/pic32c/6.2.1/../../../../pic32c/lib\libc.a(lib_a-svfprintf.o) (_localeconv_r)
c:/program files (x86)/microchip/xc32/v2.15/bin/bin/../../lib/gcc/pic32c/6.2.1/../../../../pic32c/lib\libc.a(lib_a-memchr-stub.o)
                              c:/program files (x86)/microchip/xc32/v2.15/bin/bin/../../lib/gcc/pic32c/6.2.1/../../../../pic32c/lib\libc.a(lib_a-strstr.o) (memchr)
c:/program files (x86)/microchip/xc32/v2.15/bin/bin/../../lib/gcc/pic32c/6.2.1/../../../../pic32c/lib\libc.a(lib_a-memcmp.o)
                              c:/program files (x86)/microchip/xc32/v2.15/bin/bin/../../lib/gcc/pic32c/6.2.1/../../../../pic32c/lib\libc.a(lib_a-strstr.o) (memcmp)
c:/program files (x86)/microchip/xc32/v2.15/bin/bin/../../lib/gcc/pic32c/6.2.1/../../../../pic32c/lib\libc.a(lib_a-month_lengths.o)
                              c:/program files (x86)/microchip/xc32/v2.15/bin/bin/../../lib/gcc/pic32c/6.2.1/../../../../pic32c/lib\libc.a(lib_a-tzcalc_limits.o) (__month_lengths)
c:/program files (x86)/microchip/xc32/v2.15/bin/bin/../../lib/gcc/pic32c/6.2.1/../../../../pic32c/lib\libc.a(lib_a-mprec.o)
                              c:/program files (x86)/microchip/xc32/v2.15/bin/bin/../../lib/gcc/pic32c/6.2.1/../../../../pic32c/lib\libc.a(lib_a-dtoa.o) (_Balloc)
c:/program files (x86)/microchip/xc32/v2.15/bin/bin/../../lib/gcc/pic32c/6.2.1/../../../../pic32c/lib\libc.a(lib_a-reent.o)
                              c:/program files (x86)/microchip/xc32/v2.15/bin/bin/../../lib/gcc/pic32c/6.2.1/../../../../pic32c/lib\libc.a(lib_a-sbrkr.o) (errno)
c:/program files (x86)/microchip/xc32/v2.15/bin/bin/../../lib/gcc/pic32c/6.2.1/../../../../pic32c/lib\libc.a(lib_a-s_frexp.o)
                              c:/program files (x86)/microchip/xc32/v2.15/bin/bin/../../lib/gcc/pic32c/6.2.1/../../../../pic32c/lib\libc.a(lib_a-svfprintf.o) (frexp)
c:/program files (x86)/microchip/xc32/v2.15/bin/bin/../../lib/gcc/pic32c/6.2.1/../../../../pic32c/lib\libc.a(lib_a-siscanf.o)
                              c:/program files (x86)/microchip/xc32/v2.15/bin/bin/../../lib/gcc/pic32c/6.2.1/../../../../pic32c/lib\libc.a(lib_a-tzset_r.o) (siscanf)
c:/program files (x86)/microchip/xc32/v2.15/bin/bin/../../lib/gcc/pic32c/6.2.1/../../../../pic32c/lib\libc.a(lib_a-stdio.o)
                              c:/program files (x86)/microchip/xc32/v2.15/bin/bin/../../lib/gcc/pic32c/6.2.1/../../../../pic32c/lib\libc.a(lib_a-siscanf.o) (__seofread)
c:/program files (x86)/microchip/xc32/v2.15/bin/bin/../../lib/gcc/pic32c/6.2.1/../../../../pic32c/lib\libc.a(lib_a-strcmp.o)
                              c:/program files (x86)/microchip/xc32/v2.15/bin/bin/../../lib/gcc/pic32c/6.2.1/../../../../pic32c/lib\libc.a(lib_a-tzset_r.o) (strcmp)
c:/program files (x86)/microchip/xc32/v2.15/bin/bin/../../lib/gcc/pic32c/6.2.1/../../../../pic32c/lib\libc.a(lib_a-strncmp.o)
                              c:/program files (x86)/microchip/xc32/v2.15/bin/bin/../../lib/gcc/pic32c/6.2.1/../../../../pic32c/lib\libc.a(lib_a-getenv_r.o) (strncmp)
c:/program files (x86)/microchip/xc32/v2.15/bin/bin/../../lib/gcc/pic32c/6.2.1/../../../../pic32c/lib\libc.a(lib_a-strncpy.o)
                              c:/program files (x86)/microchip/xc32/v2.15/bin/bin/../../lib/gcc/pic32c/6.2.1/../../../../pic32c/lib\libc.a(lib_a-svfprintf.o) (strncpy)
c:/program files (x86)/microchip/xc32/v2.15/bin/bin/../../lib/gcc/pic32c/6.2.1/../../../../pic32c/lib\libc.a(lib_a-strtoul.o)
                              c:/program files (x86)/microchip/xc32/v2.15/bin/bin/../../lib/gcc/pic32c/6.2.1/../../../../pic32c/lib\libc.a(lib_a-tzset_r.o) (strtoul)
c:/program files (x86)/microchip/xc32/v2.15/bin/bin/../../lib/gcc/pic32c/6.2.1/../../../../pic32c/lib\libc.a(lib_a-svfiprintf.o)
                              c:/program files (x86)/microchip/xc32/v2.15/bin/bin/../../lib/gcc/pic32c/6.2.1/../../../../pic32c/lib\libc.a(lib_a-svfprintf.o) (__ssprint_r)
c:/program files (x86)/microchip/xc32/v2.15/bin/bin/../../lib/gcc/pic32c/6.2.1/../../../../pic32c/lib\libc.a(lib_a-svfiscanf.o)
                              c:/program files (x86)/microchip/xc32/v2.15/bin/bin/../../lib/gcc/pic32c/6.2.1/../../../../pic32c/lib\libc.a(lib_a-siscanf.o) (__ssvfiscanf_r)
c:/program files (x86)/microchip/xc32/v2.15/bin/bin/../../lib/gcc/pic32c/6.2.1/../../../../pic32c/lib\libc.a(lib_a-ungetc.o)
                              c:/program files (x86)/microchip/xc32/v2.15/bin/bin/../../lib/gcc/pic32c/6.2.1/../../../../pic32c/lib\libc.a(lib_a-svfiscanf.o) (__submore)
c:/program files (x86)/microchip/xc32/v2.15/bin/bin/../../lib/gcc/pic32c/6.2.1/../../../../pic32c/lib\libc.a(lib_a-writer.o)
                              c:/program files (x86)/microchip/xc32/v2.15/bin/bin/../../lib/gcc/pic32c/6.2.1/../../../../pic32c/lib\libc.a(lib_a-stdio.o) (_write_r)
c:/program files (x86)/microchip/xc32/v2.15/bin/bin/../../lib/gcc/pic32c/6.2.1/../../../../pic32c/lib\libc.a(lib_a-__atexit.o)
                              c:/program files (x86)/microchip/xc32/v2.15/bin/bin/../../lib/gcc/pic32c/6.2.1/../../../../pic32c/lib\libc.a(lib_a-atexit.o) (__register_exitproc)
c:/program files (x86)/microchip/xc32/v2.15/bin/bin/../../lib/gcc/pic32c/6.2.1/../../../../pic32c/lib\libc.a(lib_a-callocr.o)
                              c:/program files (x86)/microchip/xc32/v2.15/bin/bin/../../lib/gcc/pic32c/6.2.1/../../../../pic32c/lib\libc.a(lib_a-mprec.o) (_calloc_r)
c:/program files (x86)/microchip/xc32/v2.15/bin/bin/../../lib/gcc/pic32c/6.2.1/../../../../pic32c/lib\libc.a(lib_a-closer.o)
                              c:/program files (x86)/microchip/xc32/v2.15/bin/bin/../../lib/gcc/pic32c/6.2.1/../../../../pic32c/lib\libc.a(lib_a-stdio.o) (_close_r)
c:/program files (x86)/microchip/xc32/v2.15/bin/bin/../../lib/gcc/pic32c/6.2.1/../../../../pic32c/lib\libc.a(lib_a-environ.o)
                              c:/program files (x86)/microchip/xc32/v2.15/bin/bin/../../lib/gcc/pic32c/6.2.1/../../../../pic32c/lib\libc.a(lib_a-getenv_r.o) (environ)
c:/program files (x86)/microchip/xc32/v2.15/bin/bin/../../lib/gcc/pic32c/6.2.1/../../../../pic32c/lib\libc.a(lib_a-envlock.o)
                              c:/program files (x86)/microchip/xc32/v2.15/bin/bin/../../lib/gcc/pic32c/6.2.1/../../../../pic32c/lib\libc.a(lib_a-getenv_r.o) (__env_lock)
c:/program files (x86)/microchip/xc32/v2.15/bin/bin/../../lib/gcc/pic32c/6.2.1/../../../../pic32c/lib\libc.a(lib_a-fflush.o)
                              c:/program files (x86)/microchip/xc32/v2.15/bin/bin/../../lib/gcc/pic32c/6.2.1/../../../../pic32c/lib\libc.a(lib_a-ungetc.o) (_fflush_r)
c:/program files (x86)/microchip/xc32/v2.15/bin/bin/../../lib/gcc/pic32c/6.2.1/../../../../pic32c/lib\libc.a(lib_a-findfp.o)
                              c:/program files (x86)/microchip/xc32/v2.15/bin/bin/../../lib/gcc/pic32c/6.2.1/../../../../pic32c/lib\libc.a(lib_a-ungetc.o) (__sinit)
c:/program files (x86)/microchip/xc32/v2.15/bin/bin/../../lib/gcc/pic32c/6.2.1/../../../../pic32c/lib\libc.a(lib_a-fwalk.o)
                              c:/program files (x86)/microchip/xc32/v2.15/bin/bin/../../lib/gcc/pic32c/6.2.1/../../../../pic32c/lib\libc.a(lib_a-findfp.o) (_fwalk)
c:/program files (x86)/microchip/xc32/v2.15/bin/bin/../../lib/gcc/pic32c/6.2.1/../../../../pic32c/lib\libc.a(lib_a-iswspace.o)
                              c:/program files (x86)/microchip/xc32/v2.15/bin/bin/../../lib/gcc/pic32c/6.2.1/../../../../pic32c/lib\libc.a(lib_a-svfiscanf.o) (iswspace)
c:/program files (x86)/microchip/xc32/v2.15/bin/bin/../../lib/gcc/pic32c/6.2.1/../../../../pic32c/lib\libc.a(lib_a-locale.o)
                              c:/program files (x86)/microchip/xc32/v2.15/bin/bin/../../lib/gcc/pic32c/6.2.1/../../../../pic32c/lib\libc.a(lib_a-svfiscanf.o) (__locale_mb_cur_max)
c:/program files (x86)/microchip/xc32/v2.15/bin/bin/../../lib/gcc/pic32c/6.2.1/../../../../pic32c/lib\libc.a(lib_a-lseekr.o)
                              c:/program files (x86)/microchip/xc32/v2.15/bin/bin/../../lib/gcc/pic32c/6.2.1/../../../../pic32c/lib\libc.a(lib_a-stdio.o) (_lseek_r)
c:/program files (x86)/microchip/xc32/v2.15/bin/bin/../../lib/gcc/pic32c/6.2.1/../../../../pic32c/lib\libc.a(lib_a-mbrtowc.o)
                              c:/program files (x86)/microchip/xc32/v2.15/bin/bin/../../lib/gcc/pic32c/6.2.1/../../../../pic32c/lib\libc.a(lib_a-svfiscanf.o) (_mbrtowc_r)
c:/program files (x86)/microchip/xc32/v2.15/bin/bin/../../lib/gcc/pic32c/6.2.1/../../../../pic32c/lib\libc.a(lib_a-mbtowc_r.o)
                              c:/program files (x86)/microchip/xc32/v2.15/bin/bin/../../lib/gcc/pic32c/6.2.1/../../../../pic32c/lib\libc.a(lib_a-locale.o) (__ascii_mbtowc)
c:/program files (x86)/microchip/xc32/v2.15/bin/bin/../../lib/gcc/pic32c/6.2.1/../../../../pic32c/lib\libc.a(lib_a-memmove.o)
                              c:/program files (x86)/microchip/xc32/v2.15/bin/bin/../../lib/gcc/pic32c/6.2.1/../../../../pic32c/lib\libc.a(lib_a-svfiprintf.o) (memmove)
c:/program files (x86)/microchip/xc32/v2.15/bin/bin/../../lib/gcc/pic32c/6.2.1/../../../../pic32c/lib\libc.a(lib_a-readr.o)
                              c:/program files (x86)/microchip/xc32/v2.15/bin/bin/../../lib/gcc/pic32c/6.2.1/../../../../pic32c/lib\libc.a(lib_a-stdio.o) (_read_r)
c:/program files (x86)/microchip/xc32/v2.15/bin/bin/../../lib/gcc/pic32c/6.2.1/../../../../pic32c/lib\libc.a(lib_a-reallocr.o)
                              c:/program files (x86)/microchip/xc32/v2.15/bin/bin/../../lib/gcc/pic32c/6.2.1/../../../../pic32c/lib\libc.a(lib_a-svfiprintf.o) (_realloc_r)
c:/program files (x86)/microchip/xc32/v2.15/bin/bin/../../lib/gcc/pic32c/6.2.1/../../../../pic32c/lib\libc.a(lib_a-sccl.o)
                              c:/program files (x86)/microchip/xc32/v2.15/bin/bin/../../lib/gcc/pic32c/6.2.1/../../../../pic32c/lib\libc.a(lib_a-svfiscanf.o) (__sccl)
c:/program files (x86)/microchip/xc32/v2.15/bin/bin/../../lib/gcc/pic32c/6.2.1/../../../../pic32c/lib\libc.a(lib_a-strtol.o)
                              c:/program files (x86)/microchip/xc32/v2.15/bin/bin/../../lib/gcc/pic32c/6.2.1/../../../../pic32c/lib\libc.a(lib_a-svfiscanf.o) (_strtol_r)
c:/program files (x86)/microchip/xc32/v2.15/bin/bin/../../lib/gcc/pic32c/6.2.1/../../../../pic32c/lib\libc.a(lib_a-strtoll.o)
                              c:/program files (x86)/microchip/xc32/v2.15/bin/bin/../../lib/gcc/pic32c/6.2.1/../../../../pic32c/lib\libc.a(lib_a-svfiscanf.o) (_strtoll_r)
c:/program files (x86)/microchip/xc32/v2.15/bin/bin/../../lib/gcc/pic32c/6.2.1/../../../../pic32c/lib\libc.a(lib_a-strtoull.o)
                              c:/program files (x86)/microchip/xc32/v2.15/bin/bin/../../lib/gcc/pic32c/6.2.1/../../../../pic32c/lib\libc.a(lib_a-svfiscanf.o) (_strtoull_r)
c:/program files (x86)/microchip/xc32/v2.15/bin/bin/../../lib/gcc/pic32c/6.2.1/../../../../pic32c/lib\libc.a(lib_a-wctomb_r.o)
                              c:/program files (x86)/microchip/xc32/v2.15/bin/bin/../../lib/gcc/pic32c/6.2.1/../../../../pic32c/lib\libc.a(lib_a-locale.o) (__ascii_wctomb)
c:/program files (x86)/microchip/xc32/v2.15/bin/bin/../../lib/gcc/pic32c/6.2.1/../../../../pic32c/lib\libc.a(lib_a-ctype_.o)
                              c:/program files (x86)/microchip/xc32/v2.15/bin/bin/../../lib/gcc/pic32c/6.2.1/../../../../pic32c/lib\libc.a(lib_a-locale.o) (_ctype_)
c:/program files (x86)/microchip/xc32/v2.15/bin/bin/../../lib/gcc/pic32c/6.2.1/../../../../pic32c/lib\libc.a(lib_a-fclose.o)
                              c:/program files (x86)/microchip/xc32/v2.15/bin/bin/../../lib/gcc/pic32c/6.2.1/../../../../pic32c/lib\libc.a(lib_a-findfp.o) (_fclose_r)
c:/program files (x86)/microchip/xc32/v2.15/bin/bin/../../lib/gcc/pic32c/6.2.1/../../../../pic32c/lib\libpic32c.a(close.o)
                              c:/program files (x86)/microchip/xc32/v2.15/bin/bin/../../lib/gcc/pic32c/6.2.1/../../../../pic32c/lib\libc.a(lib_a-closer.o) (_close)
c:/program files (x86)/microchip/xc32/v2.15/bin/bin/../../lib/gcc/pic32c/6.2.1/../../../../pic32c/lib\libpic32c.a(lseek.o)
                              c:/program files (x86)/microchip/xc32/v2.15/bin/bin/../../lib/gcc/pic32c/6.2.1/../../../../pic32c/lib\libc.a(lib_a-lseekr.o) (_lseek)
c:/program files (x86)/microchip/xc32/v2.15/bin/bin/../../lib/gcc/pic32c/6.2.1/../../../../pic32c/lib\libpic32c.a(read.o)
                              c:/program files (x86)/microchip/xc32/v2.15/bin/bin/../../lib/gcc/pic32c/6.2.1/../../../../pic32c/lib\libc.a(lib_a-readr.o) (_read)
c:/program files (x86)/microchip/xc32/v2.15/bin/bin/../../lib/gcc/pic32c/6.2.1/../../../../pic32c/lib\libpic32c.a(sbrk.o)
                              c:/program files (x86)/microchip/xc32/v2.15/bin/bin/../../lib/gcc/pic32c/6.2.1/../../../../pic32c/lib\libc.a(lib_a-sbrkr.o) (_sbrk)
c:/program files (x86)/microchip/xc32/v2.15/bin/bin/../../lib/gcc/pic32c/6.2.1/../../../../pic32c/lib\libpic32c.a(write.o)
                              c:/program files (x86)/microchip/xc32/v2.15/bin/bin/../../lib/gcc/pic32c/6.2.1/../../../../pic32c/lib\libc.a(lib_a-writer.o) (_write)
c:/program files (x86)/microchip/xc32/v2.15/bin/bin/../../lib/gcc/pic32c/6.2.1\libgcc.a(adddf3.o)
                              c:/program files (x86)/microchip/xc32/v2.15/bin/bin/../../lib/gcc/pic32c/6.2.1/../../../../pic32c/lib\libc.a(lib_a-dtoa.o) (__aeabi_dadd)
c:/program files (x86)/microchip/xc32/v2.15/bin/bin/../../lib/gcc/pic32c/6.2.1\libgcc.a(unorddf2.o)
                              c:/program files (x86)/microchip/xc32/v2.15/bin/bin/../../lib/gcc/pic32c/6.2.1/../../../../pic32c/lib\libc.a(lib_a-svfprintf.o) (__aeabi_dcmpun)
c:/program files (x86)/microchip/xc32/v2.15/bin/bin/../../lib/gcc/pic32c/6.2.1\libgcc.a(floatsidf.o)
                              c:/program files (x86)/microchip/xc32/v2.15/bin/bin/../../lib/gcc/pic32c/6.2.1/../../../../pic32c/lib\libc.a(lib_a-svfprintf.o) (__aeabi_i2d)

Allocating common symbols
Common symbol       size              file

sercom0SPIObj       0x2c              build/sam_d21_xpro_winc1500/production/_ext/98527899/plib_sercom0_spi.o
errno               0x4               c:/program files (x86)/microchip/xc32/v2.15/bin/bin/../../lib/gcc/pic32c/6.2.1/../../../../pic32c/lib\libc.a(lib_a-reent.o)
gstrHifCxt          0x28              build/sam_d21_xpro_winc1500/production/_ext/386821479/m2m_hif.o
TC3_CallbackObject  0x8               build/sam_d21_xpro_winc1500/production/_ext/1143908167/plib_tc3.o
pfWINCDebugPrintCb  0x4               build/sam_d21_xpro_winc1500/production/_ext/2003669979/wdrv_winc.o
gu16BufferSize      0x2               build/sam_d21_xpro_winc1500/production/_ext/39655908/socket.o
sercom3USARTObj     0x30              build/sam_d21_xpro_winc1500/production/_ext/1242531425/plib_sercom3_usart.o
gsockerrno          0x1               build/sam_d21_xpro_winc1500/production/_ext/39655908/socket.o
appData             0x1               build/sam_d21_xpro_winc1500/production/_ext/1360937237/app.o
gu8OpCode           0x1               build/sam_d21_xpro_winc1500/production/_ext/39655908/socket.o
eicCallbackObject   0xc0              build/sam_d21_xpro_winc1500/production/_ext/1101428939/plib_eic.o
sysObj              0x14              build/sam_d21_xpro_winc1500/production/_ext/281389274/initialization.o
sysDebugInstance    0x8               build/sam_d21_xpro_winc1500/production/_ext/2114417963/sys_debug.o
gblErrLvl           0x1               build/sam_d21_xpro_winc1500/production/_ext/2114417963/sys_debug.o
gastrSockets        0xb0              build/sam_d21_xpro_winc1500/production/_ext/39655908/socket.o
gpfAppSocketCb      0x4               build/sam_d21_xpro_winc1500/production/_ext/39655908/socket.o
gpfAppResolveCb     0x4               build/sam_d21_xpro_winc1500/production/_ext/39655908/socket.o
dmacChannelObj      0x20              build/sam_d21_xpro_winc1500/production/_ext/215415349/plib_dmac.o

Microchip PIC32 Memory-Usage Report

ROM Program-Memory Usage
section                    address  length [bytes]      (dec)  Description
-------                 ----------  -------------------------  -----------
.vectors                         0           0xb0         176   
.text                         0xb0           0x24          36  App's exec code 
.ARM.exidx                    0xd4            0x8           8   
.text._svfprintf_r            0xdc         0x1b8c        7052   
.text._dtoa_r               0x1c68          0xf98        3992   
.dinit                      0x2c00          0xde0        3552   
.text                       0x39e0         0x12b4        4788  App's exec code 
.text._malloc_r             0x4c94          0x558        1368   
.text                       0x51ec          0x500        1280  App's exec code 
.text.m2m_ip_cb             0x56ec          0x3b0         944   
.text._realloc_r            0x5a9c          0x37c         892   
.rodata                     0x5e18          0x350         848  Read-only const 
.text.m2m_wifi_cb           0x6168          0x340         832   
.text                       0x64a8          0x240         576  App's exec code 
.text.strstr                0x66e8          0x208         520   
.text.two_way_long_need     0x68f0          0x204         516   
.text.hif_send              0x6af4          0x200         512   
.text.socket_cb             0x6cf4          0x1dc         476   
.text.DRV_SPI_WriteRead     0x6ed0          0x1d8         472   
.text                       0x70a8          0x1d4         468  App's exec code 
.text._DRV_SPI_StartDMA     0x727c          0x1d0         464   
.text.hif_handle_isr        0x744c          0x1c8         456   
.text._free_r               0x7614          0x1bc         444   
.text.APP_Tasks             0x77d0          0x188         392   
.text                       0x7958          0x180         384  App's exec code 
.text.SERCOM0_SPI_Inter     0x7ad8          0x16c         364   
.rodata._svfprintf_r        0x7c44          0x16c         364   
.text.nm_spi_write_bloc     0x7db0          0x160         352   
.text.quorem                0x7f10          0x154         340   
.text.__multiply            0x8064          0x154         340   
.text.socket                0x81b8          0x148         328   
.text._DRV_SPI_RX_DMA_C     0x8300          0x148         328   
.text.__mdiff               0x8448          0x138         312   
.text.__ssprint_r           0x8580          0x120         288   
.text.spi_cmd               0x86a0          0x118         280   
.text.m2m_wifi_connect_     0x87b8          0x114         276   
.text                       0x88cc          0x114         276  App's exec code 
.text.SERCOM0_SPI_Write     0x89e0          0x110         272   
.text.DRV_SPI_Open          0x8af0          0x108         264   
.text.m2m_wifi_connect_     0x8bf8          0x106         262   
.text.EVSYS_Initialize      0x8cfe            0x2           2   
.rodata._ctype_             0x8d00          0x104         260   
.rodata.crc7_syndrome_t     0x8e04          0x100         256   
.text.SERCOM3_USART_Int     0x8f04           0xfc         252   
.text.wait_for_bootrom      0x9000           0xf0         240   
.text.spi_flash_enable      0x90f0           0xe8         232   
.text.SYS_TIME_PLIBCall     0x91d8           0xe4         228   
.text.spi_data_read         0x92bc           0xe0         224   
.text.SYS_TIME_AddToLis     0x939c           0xe0         224   
.text.strchr                0x947c           0xdc         220   
.text.__register_exitpr     0x9558           0xd4         212   
.text.nm_get_firmware_f     0x962c           0xd0         208   
.text.m2m_wifi_connect_     0x96fc           0xcc         204   
.text.nmi_get_chipid        0x97c8           0xcc         204   
.text                       0x9894           0xc8         200  App's exec code 
.text.nm_bus_iface_dein     0x995c            0x4           4   
.rodata.__mprec_tens        0x9960           0xc8         200   
.text.m2m_validate_ap_p     0x9a28           0xc4         196   
.text._DRV_SPI_Resource     0x9aec           0xc4         196   
.text._DRV_SPI_PlibCall     0x9bb0           0xc4         196   
.text                       0x9c74           0xc4         196  App's exec code 
.text.SYS_TIME_TimerObj     0x9d38           0xc0         192   
.text.critical_factoriz     0x9df8           0xc0         192   
.text.__pow5mult            0x9eb8           0xc0         192   
.text.__lshift              0x9f78           0xc0         192   
.text.__d2b                 0xa038           0xbc         188   
.text.m2m_wifi_connect_     0xa0f4           0xb4         180   
.text._DRV_SPI_Resource     0xa1a8           0xb2         178   
.text.m2m_hif_cb            0xa25a            0x2           2   
.text.DRV_SPI_Initializ     0xa25c           0xb0         176   
.text.nm_spi_read_reg_w     0xa30c           0xac         172   
.text.SYS_TIME_Initiali     0xa3b8           0xac         172   
.text.SYS_TIME_HwTimerC     0xa464           0xa4         164   
.text                       0xa508           0xa4         164  App's exec code 
.text._DRV_SPI_UpdateTr     0xa5ac           0xa0         160   
.text.wifi_cb               0xa64c           0xa0         160   
.text.memmove               0xa6ec           0xa0         160   
.text.m2m_wifi_init_sta     0xa78c           0x9c         156   
.text.nm_spi_write_reg      0xa828           0x9c         156   
.text.DMAC_ChannelTrans     0xa8c4           0x9c         156   
.text.spi_cmd_rsp           0xa960           0x96         150   
.text.m2m_wifi_connect_     0xa9f6           0x94         148   
.text.Dummy_Handler         0xaa8a            0x2           2   
.text.nm_spi_init           0xaa8c           0x94         148   
.text.nm_spi_read_block     0xab20           0x94         148   
.text.send                  0xabb4           0x94         148   
.text.memset                0xac48           0x94         148   
.text._malloc_trim_r        0xacdc           0x94         148   
.text.recv                  0xad70           0x90         144   
.text.__pic32c_data_ini     0xae00           0x90         144   
.text                       0xae90           0x8c         140  App's exec code 
.text.__multadd             0xaf1c           0x8c         140   
.text.connect               0xafa8           0x88         136   
.text.EIC_Initialize        0xb030           0x84         132   
.text.Console_UART_Read     0xb0b4           0x84         132   
.text.Console_UART_Writ     0xb138           0x84         132   
.text.memcpy                0xb1bc           0x84         132   
.text                       0xb240           0x84         132  App's exec code 
.text.hexstr_2_bytes        0xb2c4           0x82         130   
.text.NonMaskableInt_Ha     0xb346            0x2           2   
.text.nmi_get_otp_mac_a     0xb348           0x80         128   
.text.memchr                0xb3c8           0x80         128   
.text.chip_wake             0xb448           0x7e         126   
.text.HardFault_Handler     0xb4c6            0x2           2   
.text.m2m_wifi_start_pr     0xb4c8           0x7c         124   
.text.Console_UART_Enab     0xb544           0x7c         124   
.text.SYS_DEBUG_Print       0xb5c0           0x7c         124   
.text                       0xb63c           0x7c         124  App's exec code 
.text.CLOCK_Initialize      0xb6b8           0x78         120   
.text.NVIC_Initialize       0xb730           0x78         120   
.text.Console_UART_Reso     0xb7a8           0x78         120   
.text.strncpy               0xb820           0x78         120   
.text.WDRV_WINC_Tasks       0xb898           0x76         118   
.text.Console_UART_Task     0xb90e            0x2           2   
.text.SERCOM0_SPI_Trans     0xb910           0x74         116   
.text.hif_receive           0xb984           0x74         116   
.text.SYS_Initialize        0xb9f8           0x74         116   
.text.DMAC_Initialize       0xba6c           0x74         116   
.text                       0xbae0           0x74         116  App's exec code 
.text._vsnprintf_r          0xbb54           0x74         116   
.text.set_dev_name_to_m     0xbbc8           0x72         114   
.text.DMAC_InterruptHan     0xbc3c           0x70         112   
.text._DRV_SPI_TX_DMA_C     0xbcac           0x70         112   
.text                       0xbd1c           0x70         112  App's exec code 
.text.wait_for_firmware     0xbd8c           0x6c         108   
.text.SERCOM3_USART_Rea     0xbdf8           0x68         104   
.text.shutdown              0xbe60           0x68         104   
.text                       0xbec8           0x68         104  App's exec code 
.text.Console_UART_PLIB     0xbf30           0x64         100   
.text.strlen                0xbf94           0x64         100   
.text.frexp                 0xbff8           0x64         100   
.text                       0xc05c           0x60          96  App's exec code 
.text.nmi_get_mac_addre     0xc0bc           0x60          96   
.text.nm_read_block         0xc11c           0x60          96   
.text.nm_write_block        0xc17c           0x60          96   
.text.SYS_TIME_TimerSta     0xc1dc           0x60          96   
.text.Console_UART_Init     0xc23c           0x60          96   
.text.chip_sleep            0xc29c           0x5e          94   
.text.__lo0bits             0xc2fc           0x5c          92   
.text.Reset_Handler         0xc358           0x58          88   
.text.SYS_TIME_RemoveFr     0xc3b0           0x58          88   
.text._calloc_r             0xc408           0x58          88   
.text.SERCOM3_USART_Ini     0xc460           0x54          84   
.text._SPI_Rx               0xc4b4           0x54          84   
.text.hif_register_cb       0xc508           0x54          84   
.text.enable_interrupts     0xc55c           0x54          84   
.text.SERCOM3_USART_Wri     0xc5b0           0x50          80   
.text.WDRV_WINC_SPIInit     0xc600           0x50          80   
.text._Balloc               0xc650           0x50          80   
.text.Console_UART_PLIB     0xc6a0           0x4e          78   
.text._SPI_Tx               0xc6f0           0x4c          76   
.text._DRV_SPI_DriverHa     0xc73c           0x4c          76   
.text.memcmp                0xc788           0x4c          76   
.text.WDRV_WINC_SPISend     0xc7d4           0x48          72   
.text.WDRV_WINC_SPIRece     0xc81c           0x48          72   
.text.EIC_InterruptHand     0xc864           0x48          72   
.text.__libc_init_array     0xc8ac           0x48          72   
.text.SYS_TIME_TimerAdd     0xc8f4           0x44          68   
.text.SYS_CONSOLE_Initi     0xc938           0x44          68   
.text.sprintf               0xc97c           0x44          68   
.rodata                     0xc9c0           0x44          68  Read-only const 
.text.nm_drv_init_start     0xca04           0x42          66   
.text.m2m_wifi_start_pr     0xca46           0x40          64   
.text.PORT_Initialize       0xca88           0x40          64   
.text.TC3_TimerInitiali     0xcac8           0x40          64   
.text.SYS_TIME_GetTimer     0xcb08           0x40          64   
.text                       0xcb48           0x40          64  App's exec code 
.rodata                     0xcb88           0xc0         192  Read-only const 
.text                       0xcc48           0x40          64  App's exec code 
.text.SYS_TIME_TimerDes     0xcc88           0x3e          62   
.text._WDRV_WINC_SPITra     0xccc8           0x3c          60   
.text.socketInit            0xcd04           0x3c          60   
.text.SYS_INT_SourceDis     0xcd40           0x3c          60   
.text.resolve_cb            0xcd7c           0x3c          60   
.text                       0xcdb8           0x78         120  App's exec code 
.text.SYS_TIME_DelayMS      0xce30           0x3a          58   
.text.SERCOM0_SPI_Initi     0xce6c           0x38          56   
.text.hif_chip_wake         0xcea4           0x38          56   
.text.nm_spi_reset          0xcedc           0x38          56   
.text.SYS_TIME_UpdateTi     0xcf14           0x38          56   
.text.SYS_TIME_MSToCoun     0xcf4c           0x38          56   
.text.Console_UART_Flus     0xcf84           0x38          56   
.text.DRV_SPI_TransferE     0xcfbc           0x38          56   
.text.hif_set_rx_done       0xcff4           0x34          52   
.text.hif_chip_sleep        0xd028           0x34          52   
.rodata.spi_cmd             0xd05c           0x34          52   
.text.SYS_TIME_Resource     0xd090           0x34          52   
.text.__libc_fini_array     0xd0c4           0x34          52   
.text.__hi0bits             0xd0f8           0x34          52   
.text.__mcmp                0xd12c           0x34          52   
.text.Console_UART_PopQ     0xd160           0x32          50   
.text.hif_init              0xd194           0x30          48   
.text.m2m_wifi_connect_     0xd1c4           0x30          48   
.text.m2m_wifi_set_devi     0xd1f4           0x30          48   
.text.chip_apply_conf       0xd224           0x30          48   
.text.chip_deinit           0xd254           0x30          48   
.rodata.drvSPI0InitData     0xd284           0x30          48   
.text.SYS_TIME_Resource     0xd2b4           0x30          48   
.text.SYS_CONSOLE_Write     0xd2e4           0x30          48   
.text._sbrk                 0xd314           0x30          48   
.text.gethostbyname         0xd344           0x2e          46   
.text.__ascii_mbtowc        0xd374           0x2c          44   
.text.nm_drv_deinit         0xd3a0           0x2a          42   
.text.SYS_TIME_TimerPer     0xd3ca           0x2a          42   
.text.spi_reset             0xd3f4           0x28          40   
.text.DMAC_ChannelSetti     0xd41c           0x28          40   
.text.Console_UART_Stat     0xd444           0x28          40   
.rodata                     0xd46c            0x4           4  Read-only const 
.rodata.__mprec_bigtens     0xd470           0x28          40   
.text.nm_reset              0xd498           0x26          38   
.text.m2m_wifi_set_mac_     0xd4be           0x26          38   
.rodata.drvSPI0remapDat     0xd4e4           0x24          36   
.text.TC3_TimerInterrup     0xd508           0x24          36   
.text.SYS_TIME_GetElaps     0xd52c           0x24          36   
.text.SYS_DEBUG_Initial     0xd550           0x24          36   
.text.SYS_DMA_Addressin     0xd574           0x24          36   
.text._sbrk_r               0xd598           0x24          36   
.text.WDRV_MSDelay          0xd5bc           0x22          34   
.text.m2m_wifi_get_otp_     0xd5de           0x22          34   
.rodata.hif_register_cb     0xd600           0x20          32   
.text.TC3_Timer16bitCou     0xd620           0x20          32   
.rodata.sysConsoleUARTD     0xd640           0x20          32   
.text.SYS_DMA_DataWidth     0xd660           0x20          32   
.text.vsnprintf             0xd680           0x20          32   
.text.m2m_wifi_get_mac_     0xd6a0           0x1e          30   
.text.WDRV_WINC_Initial     0xd6c0           0x1c          28   
.text.hif_chip_sleep_sc     0xd6dc           0x1c          28   
.rodata.sysTimePlibAPI      0xd6f8           0x1c          28   
.text.SYS_TIME_Counter6     0xd714           0x1c          28   
.text.Console_UART_Regi     0xd730           0x1c          28   
.text.SYS_INT_SourceRes     0xd74c           0x1c          28   
.text._localeconv_r         0xd768           0x1c          28   
.text.__ascii_wctomb        0xd784           0x1c          28   
.text.nm_drv_init_hold      0xd7a0           0x1a          26   
.text.m2m_wifi_init_hol     0xd7bc           0x18          24   
.rodata.drvSPI0Interrup     0xd7d4           0x18          24   
.rodata.sysConsole0UART     0xd7ec           0x18          24   
.text.TC3_TimerStart        0xd804           0x18          24   
.text.TC3_TimerStop         0xd81c           0x18          24   
.text.SYS_TIME_DelayIsC     0xd834           0x18          24   
.text                       0xd84c           0x18          24  App's exec code 
.text.register_fini         0xd864           0x18          24   
.text.m2m_wifi_init         0xd87c           0x16          22   
.text.m2m_wifi_connect      0xd892           0x16          22   
.text.SERCOM3_USART_Err     0xd8a8           0x14          20   
.text.registerSocketCal     0xd8bc           0x14          20   
.rodata.sysConsole0UART     0xd8d0           0x14          20   
.rodata.sysConsole0UART     0xd8e4           0x14          20   
.text.TC3_Timer16bitPer     0xd8f8           0x14          20   
.text.TC3_Timer16bitCom     0xd90c           0x14          20   
.text._DRV_SPI_RemoveTr     0xd920           0x14          20   
.text.SYS_INT_Restore       0xd934           0x14          20   
.text.SYS_Tasks             0xd948           0x14          20   
.text.malloc                0xd95c           0x14          20   
.text.free                  0xd970           0x14          20   
.rodata                     0xd984           0x14          20  Read-only const 
.text._Bfree                0xd998           0x14          20   
.text.__i2b                 0xd9ac           0x14          20   
.rodata                     0xd9c0           0x14          20  Read-only const 
.text.DRV_SPI_WriteTran     0xd9d4           0x12          18   
.text.SYS_INT_Disable       0xd9e6           0x12          18   
.text.WDRV_WINC_GPIORes     0xd9f8           0x10          16   
.text.WDRV_WINC_GPIORes     0xda08           0x10          16   
.text.WDRV_WINC_GPIOChi     0xda18           0x10          16   
.text.WDRV_WINC_GPIOChi     0xda28           0x10          16   
.text.nm_bus_iface_init     0xda38           0x10          16   
.text.nm_spi_deinit         0xda48           0x10          16   
.text.nm_spi_read_reg       0xda58           0x10          16   
.rodata.drvSPI0PlibAPI      0xda68           0x10          16   
.text.DMAC_ChannelCallb     0xda78           0x10          16   
.text.DMAC_ChannelSetti     0xda88           0x10          16   
.text.strcpy                0xda98           0x10          16   
.rodata.blanks.7229         0xdaa8           0x10          16   
.rodata.zeroes.7230         0xdab8           0x10          16   
.text.atexit                0xdac8           0x10          16   
.text.main                  0xdad8            0xe          14   
.text.SERCOM3_USART_Wri     0xdae8            0xc          12   
.text.SERCOM3_USART_Rea     0xdaf4            0xc          12   
.text.SERCOM0_SPI_Callb     0xdb00            0xc          12   
.text.SERCOM0_SPI_IsBus     0xdb0c            0xc          12   
.text.nm_spi_lock_init      0xdb18            0xc          12   
.rodata.sysConsole0Init     0xdb24            0xc          12   
.text.PORT_GroupWrite       0xdb30            0xc          12   
.text.TC3_TimerCallback     0xdb3c            0xc          12   
.text.APP_Initialize        0xdb48            0xc          12   
.rodata.p05.6056            0xdb54            0xc          12   
.text.nm_sleep              0xdb60            0x8           8   
.text.m2m_wifi_handle_e     0xdb68            0x8           8   
.text.nm_bus_reset          0xdb70            0x8           8   
.text.nm_read_reg           0xdb78            0x8           8   
.text.nm_read_reg_with_     0xdb80            0x8           8   
.text.nm_write_reg          0xdb88            0x8           8   
.rodata.drvSPI0remapClo     0xdb90            0x8           8   
.rodata.drvSPI0remapClo     0xdb98            0x8           8   
.rodata.sysTimeInitData     0xdba0            0x8           8   
.text.TC3_TimerFrequenc     0xdba8            0x8           8   
.rodata.debugInit           0xdbb0            0x4           4   
.text                       0xdbb4            0x4           4  App's exec code 
.rodata._global_impure_     0xdbb8            0x4           4   
.text.__malloc_lock         0xdbbc            0x4           4   
.text.__malloc_unlock       0xdbc0            0x4           4   
      Total ROM used  :      0xdbae       56238  21.5% of 0x40000
        --------------------------------------------------------------------------
         Total Program Memory used  :      0xdbae       56238  21.5% of 0x40000
        --------------------------------------------------------------------------


RAM Data-Memory Usage
section                    address  length [bytes]      (dec)  Description
-------                 ----------  -------------------------  -----------
.bss                    0x20000000          0x254         596  Uninitialized data 
.bss.gau8ReceivedBuffer 0x20000254          0x578        1400   
.bss.transferRxHandle   0x200007cc            0x4           4   
.data.impure_data       0x200007d0          0x428        1064   
.data.__malloc_av_      0x20000bf8          0x408        1032   
.bss.sysConsole0UARTWrQ 0x20001000          0x208         520   
.data.__global_locale   0x20001208          0x16c         364   
.bss.drvSPI0TransferObj 0x20001374          0x168         360   
.bss.wincDescriptor     0x200014dc           0xf0         240   
.bss.printBuffer        0x200015cc           0xc8         200   
.bss.tmpBuf             0x20001694           0xc8         200   
.bss.timers             0x2000175c           0xa0         160   
.data.gstrM2MAPConfig   0x200017fc           0x88         136   
.bss.gConsoleUartData   0x20001884           0x64         100   
.bss.gDrvSPIObj         0x200018e8           0x60          96   
.bss.sysConsole0UARTRdQ 0x20001948           0x58          88   
.bss.gSystemCounterObj  0x200019a0           0x38          56   
.bss.drvSPI0ClientObjPo 0x200019d8           0x28          40   
.bss.__malloc_current_m 0x20001a00           0x28          40   
.data.gau8MacAddr       0x20001a28            0x6           6   
.bss.gu16ethRcvBufSize  0x20001a2e            0x2           2   
.bss._write_back_sectio 0x20001a30           0x20          32   
.bss.descriptor_section 0x20001a50           0x20          32   
.bss.txDummyData        0x20001a70           0x20          32   
.bss                    0x20001a90           0x1c          28  Uninitialized data 
.data.gacHttpProvDomain 0x20001aac           0x10          16   
.data.gacDeviceName     0x20001abc            0xf          15   
.bss.isLastByteTransfer 0x20001acb            0x1           1   
.bss.consoleDeviceInsta 0x20001acc            0xc          12   
.bss.transferTxHandle   0x20001ad8            0x4           4   
.data.spiHandle         0x20001adc            0x4           4   
.bss.gau8ethRcvBuf      0x20001ae0            0x4           4   
.bss.gpfAppEthCb        0x20001ae4            0x4           4   
.bss.gpfAppWifiCb       0x20001ae8            0x4           4   
.bss.chipid.9322        0x20001aec            0x4           4   
.bss.gu32HostIp         0x20001af0            0x4           4   
.data._impure_ptr       0x20001af4            0x4           4   
.bss.__malloc_max_sbrke 0x20001af8            0x4           4   
.bss.__malloc_max_total 0x20001afc            0x4           4   
.bss.__malloc_top_pad   0x20001b00            0x4           4   
.data.__malloc_sbrk_bas 0x20001b04            0x4           4   
.data.__malloc_trim_thr 0x20001b08            0x4           4   
.bss                    0x20001b0c            0x4           4  Uninitialized data 
.data.egstrNmBusCapabil 0x20001b10            0x2           2   
.bss.gu16SessionID      0x20001b12            0x2           2   
.data.gSysTimeTokenCoun 0x20001b14            0x2           2   
.bss.dummy.9279         0x20001b16            0x1           1   
.bss.rxSyncSem          0x20001b17            0x1           1   
.bss.txSyncSem          0x20001b18            0x1           1   
.bss.hifSemaphore       0x20001b19            0x1           1   
.bss.gu8ChNum           0x20001b1a            0x1           1   
.bss.gu8WifiState       0x20001b1b            0x1           1   
.bss.gu8scanInProgress  0x20001b1c            0x1           1   
.bss.gu8Crc_off         0x20001b1d            0x1           1   
.bss.s_spiLock          0x20001b1e            0x1           1   
.bss.gbSocketInit       0x20001b1f            0x1           1   
.bss.u8NextTcpSock.9603 0x20001b20            0x1           1   
.bss.u8NextUdpSock.9604 0x20001b21            0x1           1   
.bss.gbConnectedWifi    0x20001b22            0x1           1   
.bss.gbHostIpByName     0x20001b23            0x1           1   
.bss.gbTcpConnection    0x20001b24            0x1           1   
.data.tcp_client_socket 0x20001b25            0x1           1   
         Total RAM used  :      0x1b26        6950  21.2% of 0x8000
        --------------------------------------------------------------------------
            Total Data Memory used  :      0x1b26        6950  21.2% of 0x8000
        --------------------------------------------------------------------------


Dynamic Data-Memory Reservation
section                    address  length [bytes]      (dec)  Description
-------                 ----------  -------------------------  -----------
heap                    0x20001b28         0x2710       10000  Reserved for heap 
stack                   0x20004250         0x3da0       15776  Reserved for stack 

        --------------------------------------------------------------------------

Discarded input sections

 .text          0x00000000        0x0 c:/program files (x86)/microchip/xc32/v2.15/bin/bin/../../lib/gcc/pic32c/6.2.1/crti.o
 .data          0x00000000        0x0 c:/program files (x86)/microchip/xc32/v2.15/bin/bin/../../lib/gcc/pic32c/6.2.1/crti.o
 .bss           0x00000000        0x0 c:/program files (x86)/microchip/xc32/v2.15/bin/bin/../../lib/gcc/pic32c/6.2.1/crti.o
 .data          0x00000000        0x4 c:/program files (x86)/microchip/xc32/v2.15/bin/bin/../../lib/gcc/pic32c/6.2.1/crtbegin.o
 .text          0x00000000       0x78 c:/program files (x86)/microchip/xc32/v2.15/bin/bin/../../lib/gcc/pic32c/6.2.1/../../../../pic32c/lib/crt0.o
 .data          0x00000000        0x0 c:/program files (x86)/microchip/xc32/v2.15/bin/bin/../../lib/gcc/pic32c/6.2.1/../../../../pic32c/lib/crt0.o
 .bss           0x00000000        0x0 c:/program files (x86)/microchip/xc32/v2.15/bin/bin/../../lib/gcc/pic32c/6.2.1/../../../../pic32c/lib/crt0.o
 .ARM.extab     0x00000000        0x0 c:/program files (x86)/microchip/xc32/v2.15/bin/bin/../../lib/gcc/pic32c/6.2.1/../../../../pic32c/lib/crt0.o
 .ARM.exidx     0x00000000        0x8 c:/program files (x86)/microchip/xc32/v2.15/bin/bin/../../lib/gcc/pic32c/6.2.1/../../../../pic32c/lib/crt0.o
 .debug_line    0x00000000       0xd1 c:/program files (x86)/microchip/xc32/v2.15/bin/bin/../../lib/gcc/pic32c/6.2.1/../../../../pic32c/lib/crt0.o
 .debug_info    0x00000000      0x10d c:/program files (x86)/microchip/xc32/v2.15/bin/bin/../../lib/gcc/pic32c/6.2.1/../../../../pic32c/lib/crt0.o
 .debug_abbrev  0x00000000       0x14 c:/program files (x86)/microchip/xc32/v2.15/bin/bin/../../lib/gcc/pic32c/6.2.1/../../../../pic32c/lib/crt0.o
 .debug_aranges
                0x00000000       0x20 c:/program files (x86)/microchip/xc32/v2.15/bin/bin/../../lib/gcc/pic32c/6.2.1/../../../../pic32c/lib/crt0.o
 .ARM.attributes
                0x00000000       0x1b c:/program files (x86)/microchip/xc32/v2.15/bin/bin/../../lib/gcc/pic32c/6.2.1/../../../../pic32c/lib/crt0.o
 .text          0x00000000        0x0 build/sam_d21_xpro_winc1500/production/_ext/1242531425/plib_sercom3_usart.o
 .data          0x00000000        0x0 build/sam_d21_xpro_winc1500/production/_ext/1242531425/plib_sercom3_usart.o
 .bss           0x00000000        0x0 build/sam_d21_xpro_winc1500/production/_ext/1242531425/plib_sercom3_usart.o
 .text.SERCOM3_USART_FrequencyGet
                0x00000000        0x8 build/sam_d21_xpro_winc1500/production/_ext/1242531425/plib_sercom3_usart.o
 .text.SERCOM3_USART_SerialSetup
                0x00000000      0x11c build/sam_d21_xpro_winc1500/production/_ext/1242531425/plib_sercom3_usart.o
 .text.SERCOM3_USART_WriteIsBusy
                0x00000000        0xc build/sam_d21_xpro_winc1500/production/_ext/1242531425/plib_sercom3_usart.o
 .text.SERCOM3_USART_WriteCountGet
                0x00000000        0xc build/sam_d21_xpro_winc1500/production/_ext/1242531425/plib_sercom3_usart.o
 .text.SERCOM3_USART_ReadIsBusy
                0x00000000       0x10 build/sam_d21_xpro_winc1500/production/_ext/1242531425/plib_sercom3_usart.o
 .text.SERCOM3_USART_ReadCountGet
                0x00000000        0xc build/sam_d21_xpro_winc1500/production/_ext/1242531425/plib_sercom3_usart.o
 .text          0x00000000        0x0 build/sam_d21_xpro_winc1500/production/_ext/1910849038/plib_evsys.o
 .data          0x00000000        0x0 build/sam_d21_xpro_winc1500/production/_ext/1910849038/plib_evsys.o
 .bss           0x00000000        0x0 build/sam_d21_xpro_winc1500/production/_ext/1910849038/plib_evsys.o
 .text          0x00000000        0x0 build/sam_d21_xpro_winc1500/production/_ext/98527899/plib_sercom0_spi.o
 .data          0x00000000        0x0 build/sam_d21_xpro_winc1500/production/_ext/98527899/plib_sercom0_spi.o
 .bss           0x00000000        0x0 build/sam_d21_xpro_winc1500/production/_ext/98527899/plib_sercom0_spi.o
 .text.SERCOM0_SPI_Write
                0x00000000        0xc build/sam_d21_xpro_winc1500/production/_ext/98527899/plib_sercom0_spi.o
 .text.SERCOM0_SPI_Read
                0x00000000       0x10 build/sam_d21_xpro_winc1500/production/_ext/98527899/plib_sercom0_spi.o
 .text          0x00000000        0x0 build/sam_d21_xpro_winc1500/production/_ext/2003669979/wdrv_winc.o
 .data          0x00000000        0x0 build/sam_d21_xpro_winc1500/production/_ext/2003669979/wdrv_winc.o
 .bss           0x00000000        0x0 build/sam_d21_xpro_winc1500/production/_ext/2003669979/wdrv_winc.o
 .text._WDRV_WINC_OTAUpdateCallback
                0x00000000       0x48 build/sam_d21_xpro_winc1500/production/_ext/2003669979/wdrv_winc.o
 .text._WDRV_WINC_SSLCallback
                0x00000000       0x24 build/sam_d21_xpro_winc1500/production/_ext/2003669979/wdrv_winc.o
 .text._WDRV_WINC_HostFileGetCallback
                0x00000000       0x48 build/sam_d21_xpro_winc1500/production/_ext/2003669979/wdrv_winc.o
 .text._WDRV_WINC_HostFileEraseCallback
                0x00000000       0x2c build/sam_d21_xpro_winc1500/production/_ext/2003669979/wdrv_winc.o
 .text._WDRV_WINC_HostFileReadHIFCallback
                0x00000000       0x8c build/sam_d21_xpro_winc1500/production/_ext/2003669979/wdrv_winc.o
 .text._WDRV_WINC_WifiCallback
                0x00000000      0x358 build/sam_d21_xpro_winc1500/production/_ext/2003669979/wdrv_winc.o
 .rodata._WDRV_WINC_WifiCallback
                0x00000000       0xbc build/sam_d21_xpro_winc1500/production/_ext/2003669979/wdrv_winc.o
 .text.WDRV_WINC_Deinitialize
                0x00000000       0x1e build/sam_d21_xpro_winc1500/production/_ext/2003669979/wdrv_winc.o
 .text.WDRV_WINC_Reinitialize
                0x00000000        0x2 build/sam_d21_xpro_winc1500/production/_ext/2003669979/wdrv_winc.o
 .text.WDRV_WINC_Status
                0x00000000        0x6 build/sam_d21_xpro_winc1500/production/_ext/2003669979/wdrv_winc.o
 .text.WDRV_WINC_DebugRegisterCallback
                0x00000000        0xc build/sam_d21_xpro_winc1500/production/_ext/2003669979/wdrv_winc.o
 .text.WDRV_WINC_Open
                0x00000000      0x174 build/sam_d21_xpro_winc1500/production/_ext/2003669979/wdrv_winc.o
 .text.WDRV_WINC_Close
                0x00000000       0x26 build/sam_d21_xpro_winc1500/production/_ext/2003669979/wdrv_winc.o
 .text.WDRV_WINC_MulticastMACFilterAdd
                0x00000000       0x22 build/sam_d21_xpro_winc1500/production/_ext/2003669979/wdrv_winc.o
 .text.WDRV_WINC_MulticastMACFilterRemove
                0x00000000       0x22 build/sam_d21_xpro_winc1500/production/_ext/2003669979/wdrv_winc.o
 .text.WDRV_WINC_EthernetAddressGet
                0x00000000       0x24 build/sam_d21_xpro_winc1500/production/_ext/2003669979/wdrv_winc.o
 .text.WDRV_WINC_OperatingModeGet
                0x00000000       0x1a build/sam_d21_xpro_winc1500/production/_ext/2003669979/wdrv_winc.o
 .text.WDRV_WINC_UserHandleSet
                0x00000000       0x18 build/sam_d21_xpro_winc1500/production/_ext/2003669979/wdrv_winc.o
 .text.WDRV_WINC_UserHandleGet
                0x00000000       0x14 build/sam_d21_xpro_winc1500/production/_ext/2003669979/wdrv_winc.o
 .text.WDRV_WINC_InfoDriverVersionGet
                0x00000000       0x38 build/sam_d21_xpro_winc1500/production/_ext/2003669979/wdrv_winc.o
 .text.WDRV_WINC_InfoDeviceFirmwareVersionGet
                0x00000000       0x7e build/sam_d21_xpro_winc1500/production/_ext/2003669979/wdrv_winc.o
 .text.WDRV_WINC_InfoDeviceIDGet
                0x00000000       0x1a build/sam_d21_xpro_winc1500/production/_ext/2003669979/wdrv_winc.o
 .text.WDRV_WINC_InfoDeviceMACAddressGet
                0x00000000       0x4e build/sam_d21_xpro_winc1500/production/_ext/2003669979/wdrv_winc.o
 .text.WDRV_WINC_InfoDeviceNameSet
                0x00000000       0x34 build/sam_d21_xpro_winc1500/production/_ext/2003669979/wdrv_winc.o
 .text.WDRV_WINC_GainTableIndexSet
                0x00000000       0x22 build/sam_d21_xpro_winc1500/production/_ext/2003669979/wdrv_winc.o
 .text.WDRV_WINC_ISR
                0x00000000       0x10 build/sam_d21_xpro_winc1500/production/_ext/2003669979/wdrv_winc.o
 .text          0x00000000        0x0 build/sam_d21_xpro_winc1500/production/_ext/2003669979/wdrv_winc_assoc.o
 .data          0x00000000        0x0 build/sam_d21_xpro_winc1500/production/_ext/2003669979/wdrv_winc_assoc.o
 .bss           0x00000000        0x0 build/sam_d21_xpro_winc1500/production/_ext/2003669979/wdrv_winc_assoc.o
 .text.WDRV_WINC_AssociationSSIDGet
                0x00000000       0x4c build/sam_d21_xpro_winc1500/production/_ext/2003669979/wdrv_winc_assoc.o
 .text.WDRV_WINC_AssociationPeerAddressGet
                0x00000000       0x4c build/sam_d21_xpro_winc1500/production/_ext/2003669979/wdrv_winc_assoc.o
 .text.WDRV_WINC_AssociationAuthTypeGet
                0x00000000       0x44 build/sam_d21_xpro_winc1500/production/_ext/2003669979/wdrv_winc_assoc.o
 .text.WDRV_WINC_AssociationRSSIGet
                0x00000000       0x52 build/sam_d21_xpro_winc1500/production/_ext/2003669979/wdrv_winc_assoc.o
 .debug_info    0x00000000     0x2874 build/sam_d21_xpro_winc1500/production/_ext/2003669979/wdrv_winc_assoc.o
 .debug_abbrev  0x00000000      0x2b2 build/sam_d21_xpro_winc1500/production/_ext/2003669979/wdrv_winc_assoc.o
 .debug_loc     0x00000000      0x5d4 build/sam_d21_xpro_winc1500/production/_ext/2003669979/wdrv_winc_assoc.o
 .debug_aranges
                0x00000000       0x38 build/sam_d21_xpro_winc1500/production/_ext/2003669979/wdrv_winc_assoc.o
 .debug_ranges  0x00000000       0x28 build/sam_d21_xpro_winc1500/production/_ext/2003669979/wdrv_winc_assoc.o
 .debug_line    0x00000000      0x55a build/sam_d21_xpro_winc1500/production/_ext/2003669979/wdrv_winc_assoc.o
 .debug_str     0x00000000       0xb7 build/sam_d21_xpro_winc1500/production/_ext/2003669979/wdrv_winc_assoc.o
 .comment       0x00000000       0x3d build/sam_d21_xpro_winc1500/production/_ext/2003669979/wdrv_winc_assoc.o
 .debug_frame   0x00000000       0x70 build/sam_d21_xpro_winc1500/production/_ext/2003669979/wdrv_winc_assoc.o
 .ARM.attributes
                0x00000000       0x32 build/sam_d21_xpro_winc1500/production/_ext/2003669979/wdrv_winc_assoc.o
 .text          0x00000000        0x0 build/sam_d21_xpro_winc1500/production/_ext/2003669979/wdrv_winc_authctx.o
 .data          0x00000000        0x0 build/sam_d21_xpro_winc1500/production/_ext/2003669979/wdrv_winc_authctx.o
 .bss           0x00000000        0x0 build/sam_d21_xpro_winc1500/production/_ext/2003669979/wdrv_winc_authctx.o
 .text.WDRV_WINC_AuthCtxIsValid
                0x00000000       0x3e build/sam_d21_xpro_winc1500/production/_ext/2003669979/wdrv_winc_authctx.o
 .text.WDRV_WINC_AuthCtxSetDefaults
                0x00000000       0x10 build/sam_d21_xpro_winc1500/production/_ext/2003669979/wdrv_winc_authctx.o
 .text.WDRV_WINC_AuthCtxSetOpen
                0x00000000       0x10 build/sam_d21_xpro_winc1500/production/_ext/2003669979/wdrv_winc_authctx.o
 .text.WDRV_WINC_AuthCtxSetWEP
                0x00000000       0x44 build/sam_d21_xpro_winc1500/production/_ext/2003669979/wdrv_winc_authctx.o
 .text.WDRV_WINC_AuthCtxSetWPA
                0x00000000       0x38 build/sam_d21_xpro_winc1500/production/_ext/2003669979/wdrv_winc_authctx.o
 .text.WDRV_WINC_AuthCtxSetWPAEnterpriseMSCHAPv2
                0x00000000       0xc0 build/sam_d21_xpro_winc1500/production/_ext/2003669979/wdrv_winc_authctx.o
 .text.WDRV_WINC_AuthCtxSetWPAEnterpriseTLS
                0x00000000      0x344 build/sam_d21_xpro_winc1500/production/_ext/2003669979/wdrv_winc_authctx.o
 .rodata.WDRV_WINC_AuthCtxSetWPAEnterpriseTLS
                0x00000000       0x24 build/sam_d21_xpro_winc1500/production/_ext/2003669979/wdrv_winc_authctx.o
 .debug_info    0x00000000     0x1dd9 build/sam_d21_xpro_winc1500/production/_ext/2003669979/wdrv_winc_authctx.o
 .debug_abbrev  0x00000000      0x315 build/sam_d21_xpro_winc1500/production/_ext/2003669979/wdrv_winc_authctx.o
 .debug_loc     0x00000000      0xe5c build/sam_d21_xpro_winc1500/production/_ext/2003669979/wdrv_winc_authctx.o
 .debug_aranges
                0x00000000       0x50 build/sam_d21_xpro_winc1500/production/_ext/2003669979/wdrv_winc_authctx.o
 .debug_ranges  0x00000000       0xb8 build/sam_d21_xpro_winc1500/production/_ext/2003669979/wdrv_winc_authctx.o
 .debug_line    0x00000000      0x493 build/sam_d21_xpro_winc1500/production/_ext/2003669979/wdrv_winc_authctx.o
 .debug_str     0x00000000       0x77 build/sam_d21_xpro_winc1500/production/_ext/2003669979/wdrv_winc_authctx.o
 .comment       0x00000000       0x3d build/sam_d21_xpro_winc1500/production/_ext/2003669979/wdrv_winc_authctx.o
 .debug_frame   0x00000000       0xcc build/sam_d21_xpro_winc1500/production/_ext/2003669979/wdrv_winc_authctx.o
 .ARM.attributes
                0x00000000       0x32 build/sam_d21_xpro_winc1500/production/_ext/2003669979/wdrv_winc_authctx.o
 .text          0x00000000        0x0 build/sam_d21_xpro_winc1500/production/_ext/2003669979/wdrv_winc_bssctx.o
 .data          0x00000000        0x0 build/sam_d21_xpro_winc1500/production/_ext/2003669979/wdrv_winc_bssctx.o
 .bss           0x00000000        0x0 build/sam_d21_xpro_winc1500/production/_ext/2003669979/wdrv_winc_bssctx.o
 .text.WDRV_WINC_BSSCtxIsValid
                0x00000000       0x54 build/sam_d21_xpro_winc1500/production/_ext/2003669979/wdrv_winc_bssctx.o
 .text.WDRV_WINC_BSSCtxSetDefaults
                0x00000000       0x2e build/sam_d21_xpro_winc1500/production/_ext/2003669979/wdrv_winc_bssctx.o
 .text.WDRV_WINC_BSSCtxSetSSID
                0x00000000       0x4e build/sam_d21_xpro_winc1500/production/_ext/2003669979/wdrv_winc_bssctx.o
 .text.WDRV_WINC_BSSCtxSetBSSID
                0x00000000       0x36 build/sam_d21_xpro_winc1500/production/_ext/2003669979/wdrv_winc_bssctx.o
 .text.WDRV_WINC_BSSCtxSetChannel
                0x00000000       0x34 build/sam_d21_xpro_winc1500/production/_ext/2003669979/wdrv_winc_bssctx.o
 .text.WDRV_WINC_BSSCtxSetSSIDVisibility
                0x00000000       0x26 build/sam_d21_xpro_winc1500/production/_ext/2003669979/wdrv_winc_bssctx.o
 .debug_info    0x00000000     0x163f build/sam_d21_xpro_winc1500/production/_ext/2003669979/wdrv_winc_bssctx.o
 .debug_abbrev  0x00000000      0x277 build/sam_d21_xpro_winc1500/production/_ext/2003669979/wdrv_winc_bssctx.o
 .debug_loc     0x00000000      0x3e6 build/sam_d21_xpro_winc1500/production/_ext/2003669979/wdrv_winc_bssctx.o
 .debug_aranges
                0x00000000       0x48 build/sam_d21_xpro_winc1500/production/_ext/2003669979/wdrv_winc_bssctx.o
 .debug_ranges  0x00000000       0x38 build/sam_d21_xpro_winc1500/production/_ext/2003669979/wdrv_winc_bssctx.o
 .debug_line    0x00000000      0x3ba build/sam_d21_xpro_winc1500/production/_ext/2003669979/wdrv_winc_bssctx.o
 .debug_str     0x00000000       0x16 build/sam_d21_xpro_winc1500/production/_ext/2003669979/wdrv_winc_bssctx.o
 .comment       0x00000000       0x3d build/sam_d21_xpro_winc1500/production/_ext/2003669979/wdrv_winc_bssctx.o
 .debug_frame   0x00000000       0xa8 build/sam_d21_xpro_winc1500/production/_ext/2003669979/wdrv_winc_bssctx.o
 .ARM.attributes
                0x00000000       0x32 build/sam_d21_xpro_winc1500/production/_ext/2003669979/wdrv_winc_bssctx.o
 .text          0x00000000        0x0 build/sam_d21_xpro_winc1500/production/_ext/2003669979/wdrv_winc_bssfind.o
 .data          0x00000000        0x0 build/sam_d21_xpro_winc1500/production/_ext/2003669979/wdrv_winc_bssfind.o
 .bss           0x00000000        0x0 build/sam_d21_xpro_winc1500/production/_ext/2003669979/wdrv_winc_bssfind.o
 .text.WDRV_WINC_BSSFindFirst
                0x00000000       0x8a build/sam_d21_xpro_winc1500/production/_ext/2003669979/wdrv_winc_bssfind.o
 .text.WDRV_WINC_BSSFindNext
                0x00000000       0x4c build/sam_d21_xpro_winc1500/production/_ext/2003669979/wdrv_winc_bssfind.o
 .text.WDRV_WINC_BSSFindReset
                0x00000000       0x40 build/sam_d21_xpro_winc1500/production/_ext/2003669979/wdrv_winc_bssfind.o
 .text.WDRV_WINC_BSSFindGetInfo
                0x00000000       0x38 build/sam_d21_xpro_winc1500/production/_ext/2003669979/wdrv_winc_bssfind.o
 .text.WDRV_WINC_BSSFindSetScanParameters
                0x00000000       0x6e build/sam_d21_xpro_winc1500/production/_ext/2003669979/wdrv_winc_bssfind.o
 .text.WDRV_WINC_BSSFindSetRSSIThreshold
                0x00000000       0x20 build/sam_d21_xpro_winc1500/production/_ext/2003669979/wdrv_winc_bssfind.o
 .text.WDRV_WINC_BSSFindSetEnabledChannels
                0x00000000       0x24 build/sam_d21_xpro_winc1500/production/_ext/2003669979/wdrv_winc_bssfind.o
 .text.WDRV_WINC_BSSFindGetNumBSSResults
                0x00000000       0x24 build/sam_d21_xpro_winc1500/production/_ext/2003669979/wdrv_winc_bssfind.o
 .text.WDRV_WINC_BSSFindInProgress
                0x00000000       0x12 build/sam_d21_xpro_winc1500/production/_ext/2003669979/wdrv_winc_bssfind.o
 .debug_info    0x00000000     0x2e8d build/sam_d21_xpro_winc1500/production/_ext/2003669979/wdrv_winc_bssfind.o
 .debug_abbrev  0x00000000      0x31e build/sam_d21_xpro_winc1500/production/_ext/2003669979/wdrv_winc_bssfind.o
 .debug_loc     0x00000000      0x861 build/sam_d21_xpro_winc1500/production/_ext/2003669979/wdrv_winc_bssfind.o
 .debug_aranges
                0x00000000       0x60 build/sam_d21_xpro_winc1500/production/_ext/2003669979/wdrv_winc_bssfind.o
 .debug_ranges  0x00000000       0x50 build/sam_d21_xpro_winc1500/production/_ext/2003669979/wdrv_winc_bssfind.o
 .debug_line    0x00000000      0x5fe build/sam_d21_xpro_winc1500/production/_ext/2003669979/wdrv_winc_bssfind.o
 .debug_str     0x00000000      0x10e build/sam_d21_xpro_winc1500/production/_ext/2003669979/wdrv_winc_bssfind.o
 .comment       0x00000000       0x3d build/sam_d21_xpro_winc1500/production/_ext/2003669979/wdrv_winc_bssfind.o
 .debug_frame   0x00000000       0xec build/sam_d21_xpro_winc1500/production/_ext/2003669979/wdrv_winc_bssfind.o
 .ARM.attributes
                0x00000000       0x32 build/sam_d21_xpro_winc1500/production/_ext/2003669979/wdrv_winc_bssfind.o
 .text          0x00000000        0x0 build/sam_d21_xpro_winc1500/production/_ext/2003669979/wdrv_winc_custie.o
 .data          0x00000000        0x0 build/sam_d21_xpro_winc1500/production/_ext/2003669979/wdrv_winc_custie.o
 .bss           0x00000000        0x0 build/sam_d21_xpro_winc1500/production/_ext/2003669979/wdrv_winc_custie.o
 .text.WDRV_WINC_CustIEStoreCtxSetStorage
                0x00000000       0x32 build/sam_d21_xpro_winc1500/production/_ext/2003669979/wdrv_winc_custie.o
 .text.WDRV_WINC_CustIEStoreCtxAddIE
                0x00000000       0x5e build/sam_d21_xpro_winc1500/production/_ext/2003669979/wdrv_winc_custie.o
 .text.WDRV_WINC_CustIEStoreCtxRemoveIE
                0x00000000       0x84 build/sam_d21_xpro_winc1500/production/_ext/2003669979/wdrv_winc_custie.o
 .debug_info    0x00000000     0x14ba build/sam_d21_xpro_winc1500/production/_ext/2003669979/wdrv_winc_custie.o
 .debug_abbrev  0x00000000      0x22e build/sam_d21_xpro_winc1500/production/_ext/2003669979/wdrv_winc_custie.o
 .debug_loc     0x00000000      0x3a5 build/sam_d21_xpro_winc1500/production/_ext/2003669979/wdrv_winc_custie.o
 .debug_aranges
                0x00000000       0x30 build/sam_d21_xpro_winc1500/production/_ext/2003669979/wdrv_winc_custie.o
 .debug_ranges  0x00000000       0x20 build/sam_d21_xpro_winc1500/production/_ext/2003669979/wdrv_winc_custie.o
 .debug_line    0x00000000      0x385 build/sam_d21_xpro_winc1500/production/_ext/2003669979/wdrv_winc_custie.o
 .debug_str     0x00000000       0x24 build/sam_d21_xpro_winc1500/production/_ext/2003669979/wdrv_winc_custie.o
 .comment       0x00000000       0x3d build/sam_d21_xpro_winc1500/production/_ext/2003669979/wdrv_winc_custie.o
 .debug_frame   0x00000000       0x68 build/sam_d21_xpro_winc1500/production/_ext/2003669979/wdrv_winc_custie.o
 .ARM.attributes
                0x00000000       0x32 build/sam_d21_xpro_winc1500/production/_ext/2003669979/wdrv_winc_custie.o
 .text          0x00000000        0x0 build/sam_d21_xpro_winc1500/production/_ext/2003669979/wdrv_winc_host_file.o
 .data          0x00000000        0x0 build/sam_d21_xpro_winc1500/production/_ext/2003669979/wdrv_winc_host_file.o
 .bss           0x00000000        0x0 build/sam_d21_xpro_winc1500/production/_ext/2003669979/wdrv_winc_host_file.o
 .text.WDRV_WINC_HostFileDownload
                0x00000000       0x56 build/sam_d21_xpro_winc1500/production/_ext/2003669979/wdrv_winc_host_file.o
 .text.WDRV_WINC_HostFileRead
                0x00000000       0x6c build/sam_d21_xpro_winc1500/production/_ext/2003669979/wdrv_winc_host_file.o
 .text.WDRV_WINC_HostFileErase
                0x00000000       0x48 build/sam_d21_xpro_winc1500/production/_ext/2003669979/wdrv_winc_host_file.o
 .text.WDRV_WINC_HostFileFindByID
                0x00000000       0x3e build/sam_d21_xpro_winc1500/production/_ext/2003669979/wdrv_winc_host_file.o
 .text.WDRV_WINC_HostFileGetSize
                0x00000000        0xc build/sam_d21_xpro_winc1500/production/_ext/2003669979/wdrv_winc_host_file.o
 .debug_info    0x00000000     0x2905 build/sam_d21_xpro_winc1500/production/_ext/2003669979/wdrv_winc_host_file.o
 .debug_abbrev  0x00000000      0x2dc build/sam_d21_xpro_winc1500/production/_ext/2003669979/wdrv_winc_host_file.o
 .debug_loc     0x00000000      0x709 build/sam_d21_xpro_winc1500/production/_ext/2003669979/wdrv_winc_host_file.o
 .debug_aranges
                0x00000000       0x40 build/sam_d21_xpro_winc1500/production/_ext/2003669979/wdrv_winc_host_file.o
 .debug_ranges  0x00000000       0x30 build/sam_d21_xpro_winc1500/production/_ext/2003669979/wdrv_winc_host_file.o
 .debug_line    0x00000000      0x54a build/sam_d21_xpro_winc1500/production/_ext/2003669979/wdrv_winc_host_file.o
 .debug_str     0x00000000       0xd6 build/sam_d21_xpro_winc1500/production/_ext/2003669979/wdrv_winc_host_file.o
 .comment       0x00000000       0x3d build/sam_d21_xpro_winc1500/production/_ext/2003669979/wdrv_winc_host_file.o
 .debug_frame   0x00000000       0x90 build/sam_d21_xpro_winc1500/production/_ext/2003669979/wdrv_winc_host_file.o
 .ARM.attributes
                0x00000000       0x32 build/sam_d21_xpro_winc1500/production/_ext/2003669979/wdrv_winc_host_file.o
 .text          0x00000000        0x0 build/sam_d21_xpro_winc1500/production/_ext/2003669979/wdrv_winc_httpprovctx.o
 .data          0x00000000        0x0 build/sam_d21_xpro_winc1500/production/_ext/2003669979/wdrv_winc_httpprovctx.o
 .bss           0x00000000        0x0 build/sam_d21_xpro_winc1500/production/_ext/2003669979/wdrv_winc_httpprovctx.o
 .text.WDRV_WINC_HTTPProvCtxSetDefaults
                0x00000000       0x16 build/sam_d21_xpro_winc1500/production/_ext/2003669979/wdrv_winc_httpprovctx.o
 .text.WDRV_WINC_HTTPProvCtxSetDomainName
                0x00000000       0x38 build/sam_d21_xpro_winc1500/production/_ext/2003669979/wdrv_winc_httpprovctx.o
 .text.WDRV_WINC_HTTPProvCtxSetURLWildcard
                0x00000000        0xe build/sam_d21_xpro_winc1500/production/_ext/2003669979/wdrv_winc_httpprovctx.o
 .text.WDRV_WINC_HTTPProvCtxSetConnectCallback
                0x00000000        0xe build/sam_d21_xpro_winc1500/production/_ext/2003669979/wdrv_winc_httpprovctx.o
 .debug_info    0x00000000     0x189c build/sam_d21_xpro_winc1500/production/_ext/2003669979/wdrv_winc_httpprovctx.o
 .debug_abbrev  0x00000000      0x27c build/sam_d21_xpro_winc1500/production/_ext/2003669979/wdrv_winc_httpprovctx.o
 .debug_loc     0x00000000      0x193 build/sam_d21_xpro_winc1500/production/_ext/2003669979/wdrv_winc_httpprovctx.o
 .debug_aranges
                0x00000000       0x38 build/sam_d21_xpro_winc1500/production/_ext/2003669979/wdrv_winc_httpprovctx.o
 .debug_ranges  0x00000000       0x28 build/sam_d21_xpro_winc1500/production/_ext/2003669979/wdrv_winc_httpprovctx.o
 .debug_line    0x00000000      0x3cb build/sam_d21_xpro_winc1500/production/_ext/2003669979/wdrv_winc_httpprovctx.o
 .debug_str     0x00000000       0x68 build/sam_d21_xpro_winc1500/production/_ext/2003669979/wdrv_winc_httpprovctx.o
 .comment       0x00000000       0x3d build/sam_d21_xpro_winc1500/production/_ext/2003669979/wdrv_winc_httpprovctx.o
 .debug_frame   0x00000000       0x5c build/sam_d21_xpro_winc1500/production/_ext/2003669979/wdrv_winc_httpprovctx.o
 .ARM.attributes
                0x00000000       0x32 build/sam_d21_xpro_winc1500/production/_ext/2003669979/wdrv_winc_httpprovctx.o
 .text          0x00000000        0x0 build/sam_d21_xpro_winc1500/production/_ext/2003669979/wdrv_winc_nvm.o
 .data          0x00000000        0x0 build/sam_d21_xpro_winc1500/production/_ext/2003669979/wdrv_winc_nvm.o
 .bss           0x00000000        0x0 build/sam_d21_xpro_winc1500/production/_ext/2003669979/wdrv_winc_nvm.o
 .text._WDRV_WINC_NVMCRC7
                0x00000000       0x42 build/sam_d21_xpro_winc1500/production/_ext/2003669979/wdrv_winc_nvm.o
 .text._WDRV_WINC_NVMFindSection
                0x00000000      0x100 build/sam_d21_xpro_winc1500/production/_ext/2003669979/wdrv_winc_nvm.o
 .text.WDRV_WINC_NVMEraseSector
                0x00000000       0x7c build/sam_d21_xpro_winc1500/production/_ext/2003669979/wdrv_winc_nvm.o
 .text.WDRV_WINC_NVMWrite
                0x00000000       0x82 build/sam_d21_xpro_winc1500/production/_ext/2003669979/wdrv_winc_nvm.o
 .text.WDRV_WINC_NVMRead
                0x00000000       0x7e build/sam_d21_xpro_winc1500/production/_ext/2003669979/wdrv_winc_nvm.o
 .rodata.flashLocationIDMap
                0x00000000       0x18 build/sam_d21_xpro_winc1500/production/_ext/2003669979/wdrv_winc_nvm.o
 .debug_info    0x00000000     0x337c build/sam_d21_xpro_winc1500/production/_ext/2003669979/wdrv_winc_nvm.o
 .debug_abbrev  0x00000000      0x366 build/sam_d21_xpro_winc1500/production/_ext/2003669979/wdrv_winc_nvm.o
 .debug_loc     0x00000000      0x7cb build/sam_d21_xpro_winc1500/production/_ext/2003669979/wdrv_winc_nvm.o
 .debug_aranges
                0x00000000       0x40 build/sam_d21_xpro_winc1500/production/_ext/2003669979/wdrv_winc_nvm.o
 .debug_ranges  0x00000000       0xa0 build/sam_d21_xpro_winc1500/production/_ext/2003669979/wdrv_winc_nvm.o
 .debug_line    0x00000000      0x631 build/sam_d21_xpro_winc1500/production/_ext/2003669979/wdrv_winc_nvm.o
 .debug_str     0x00000000      0x10a build/sam_d21_xpro_winc1500/production/_ext/2003669979/wdrv_winc_nvm.o
 .comment       0x00000000       0x3d build/sam_d21_xpro_winc1500/production/_ext/2003669979/wdrv_winc_nvm.o
 .debug_frame   0x00000000       0xb0 build/sam_d21_xpro_winc1500/production/_ext/2003669979/wdrv_winc_nvm.o
 .ARM.attributes
                0x00000000       0x32 build/sam_d21_xpro_winc1500/production/_ext/2003669979/wdrv_winc_nvm.o
 .text          0x00000000        0x0 build/sam_d21_xpro_winc1500/production/_ext/2003669979/wdrv_winc_powersave.o
 .data          0x00000000        0x0 build/sam_d21_xpro_winc1500/production/_ext/2003669979/wdrv_winc_powersave.o
 .bss           0x00000000        0x0 build/sam_d21_xpro_winc1500/production/_ext/2003669979/wdrv_winc_powersave.o
 .text.WDRV_WINC_PowerSaveSetMode
                0x00000000       0x30 build/sam_d21_xpro_winc1500/production/_ext/2003669979/wdrv_winc_powersave.o
 .text.WDRV_WINC_PowerSaveGetMode
                0x00000000       0x20 build/sam_d21_xpro_winc1500/production/_ext/2003669979/wdrv_winc_powersave.o
 .text.WDRV_WINC_PowerSaveSetBeaconInterval
                0x00000000       0x32 build/sam_d21_xpro_winc1500/production/_ext/2003669979/wdrv_winc_powersave.o
 .text.WDRV_WINC_PowerSaveManualSleep
                0x00000000       0x22 build/sam_d21_xpro_winc1500/production/_ext/2003669979/wdrv_winc_powersave.o
 .debug_info    0x00000000     0x2943 build/sam_d21_xpro_winc1500/production/_ext/2003669979/wdrv_winc_powersave.o
 .debug_abbrev  0x00000000      0x268 build/sam_d21_xpro_winc1500/production/_ext/2003669979/wdrv_winc_powersave.o
 .debug_loc     0x00000000      0x3a4 build/sam_d21_xpro_winc1500/production/_ext/2003669979/wdrv_winc_powersave.o
 .debug_aranges
                0x00000000       0x38 build/sam_d21_xpro_winc1500/production/_ext/2003669979/wdrv_winc_powersave.o
 .debug_ranges  0x00000000       0x28 build/sam_d21_xpro_winc1500/production/_ext/2003669979/wdrv_winc_powersave.o
 .debug_line    0x00000000      0x53a build/sam_d21_xpro_winc1500/production/_ext/2003669979/wdrv_winc_powersave.o
 .debug_str     0x00000000       0xb7 build/sam_d21_xpro_winc1500/production/_ext/2003669979/wdrv_winc_powersave.o
 .comment       0x00000000       0x3d build/sam_d21_xpro_winc1500/production/_ext/2003669979/wdrv_winc_powersave.o
 .debug_frame   0x00000000       0x74 build/sam_d21_xpro_winc1500/production/_ext/2003669979/wdrv_winc_powersave.o
 .ARM.attributes
                0x00000000       0x32 build/sam_d21_xpro_winc1500/production/_ext/2003669979/wdrv_winc_powersave.o
 .text          0x00000000        0x0 build/sam_d21_xpro_winc1500/production/_ext/2003669979/wdrv_winc_socket.o
 .data          0x00000000        0x0 build/sam_d21_xpro_winc1500/production/_ext/2003669979/wdrv_winc_socket.o
 .bss           0x00000000        0x0 build/sam_d21_xpro_winc1500/production/_ext/2003669979/wdrv_winc_socket.o
 .text._WDRV_WINC_ICMPEchoResponseCallback
                0x00000000       0x26 build/sam_d21_xpro_winc1500/production/_ext/2003669979/wdrv_winc_socket.o
 .text.WDRV_WINC_IPAddressSet
                0x00000000       0x30 build/sam_d21_xpro_winc1500/production/_ext/2003669979/wdrv_winc_socket.o
 .text.WDRV_WINC_IPAddressGet
                0x00000000       0x22 build/sam_d21_xpro_winc1500/production/_ext/2003669979/wdrv_winc_socket.o
 .text.WDRV_WINC_IPDNSServerAddressSet
                0x00000000       0x28 build/sam_d21_xpro_winc1500/production/_ext/2003669979/wdrv_winc_socket.o
 .text.WDRV_WINC_IPDefaultGatewaySet
                0x00000000       0x28 build/sam_d21_xpro_winc1500/production/_ext/2003669979/wdrv_winc_socket.o
 .text.WDRV_WINC_IPUseDHCPSet
                0x00000000       0x2a build/sam_d21_xpro_winc1500/production/_ext/2003669979/wdrv_winc_socket.o
 .text.WDRV_WINC_IPUseDHCPGet
                0x00000000        0xe build/sam_d21_xpro_winc1500/production/_ext/2003669979/wdrv_winc_socket.o
 .text.WDRV_WINC_IPDHCPServerConfigure
                0x00000000       0x24 build/sam_d21_xpro_winc1500/production/_ext/2003669979/wdrv_winc_socket.o
 .text.WDRV_WINC_IPLinkActive
                0x00000000        0xe build/sam_d21_xpro_winc1500/production/_ext/2003669979/wdrv_winc_socket.o
 .text.WDRV_WINC_ICMPEchoRequest
                0x00000000       0x40 build/sam_d21_xpro_winc1500/production/_ext/2003669979/wdrv_winc_socket.o
 .text.WDRV_WINC_OTAUpdateFromURL
                0x00000000       0x46 build/sam_d21_xpro_winc1500/production/_ext/2003669979/wdrv_winc_socket.o
 .text.WDRV_WINC_OTAUpdateAbort
                0x00000000       0x2e build/sam_d21_xpro_winc1500/production/_ext/2003669979/wdrv_winc_socket.o
 .text.WDRV_WINC_SwitchActiveFirmwareImage
                0x00000000       0x22 build/sam_d21_xpro_winc1500/production/_ext/2003669979/wdrv_winc_socket.o
 .text.WDRV_WINC_SocketRegisterEventCallback
                0x00000000       0x16 build/sam_d21_xpro_winc1500/production/_ext/2003669979/wdrv_winc_socket.o
 .text.WDRV_WINC_SocketRegisterResolverCallback
                0x00000000       0x16 build/sam_d21_xpro_winc1500/production/_ext/2003669979/wdrv_winc_socket.o
 .debug_info    0x00000000     0x2d73 build/sam_d21_xpro_winc1500/production/_ext/2003669979/wdrv_winc_socket.o
 .debug_abbrev  0x00000000      0x327 build/sam_d21_xpro_winc1500/production/_ext/2003669979/wdrv_winc_socket.o
 .debug_loc     0x00000000      0xa31 build/sam_d21_xpro_winc1500/production/_ext/2003669979/wdrv_winc_socket.o
 .debug_aranges
                0x00000000       0x90 build/sam_d21_xpro_winc1500/production/_ext/2003669979/wdrv_winc_socket.o
 .debug_ranges  0x00000000       0x80 build/sam_d21_xpro_winc1500/production/_ext/2003669979/wdrv_winc_socket.o
 .debug_line    0x00000000      0x681 build/sam_d21_xpro_winc1500/production/_ext/2003669979/wdrv_winc_socket.o
 .debug_str     0x00000000      0x15d build/sam_d21_xpro_winc1500/production/_ext/2003669979/wdrv_winc_socket.o
 .comment       0x00000000       0x3d build/sam_d21_xpro_winc1500/production/_ext/2003669979/wdrv_winc_socket.o
 .debug_frame   0x00000000      0x160 build/sam_d21_xpro_winc1500/production/_ext/2003669979/wdrv_winc_socket.o
 .ARM.attributes
                0x00000000       0x32 build/sam_d21_xpro_winc1500/production/_ext/2003669979/wdrv_winc_socket.o
 .text          0x00000000        0x0 build/sam_d21_xpro_winc1500/production/_ext/2003669979/wdrv_winc_softap.o
 .data          0x00000000        0x0 build/sam_d21_xpro_winc1500/production/_ext/2003669979/wdrv_winc_softap.o
 .bss           0x00000000        0x0 build/sam_d21_xpro_winc1500/production/_ext/2003669979/wdrv_winc_softap.o
 .text.WDRV_WINC_APStart
                0x00000000      0x1c8 build/sam_d21_xpro_winc1500/production/_ext/2003669979/wdrv_winc_softap.o
 .text.WDRV_WINC_APStop
                0x00000000       0x4a build/sam_d21_xpro_winc1500/production/_ext/2003669979/wdrv_winc_softap.o
 .text.WDRV_WINC_APSetCustIE
                0x00000000       0x36 build/sam_d21_xpro_winc1500/production/_ext/2003669979/wdrv_winc_softap.o
 .debug_info    0x00000000     0x2c3b build/sam_d21_xpro_winc1500/production/_ext/2003669979/wdrv_winc_softap.o
 .debug_abbrev  0x00000000      0x303 build/sam_d21_xpro_winc1500/production/_ext/2003669979/wdrv_winc_softap.o
 .debug_loc     0x00000000      0x494 build/sam_d21_xpro_winc1500/production/_ext/2003669979/wdrv_winc_softap.o
 .debug_aranges
                0x00000000       0x30 build/sam_d21_xpro_winc1500/production/_ext/2003669979/wdrv_winc_softap.o
 .debug_ranges  0x00000000       0x20 build/sam_d21_xpro_winc1500/production/_ext/2003669979/wdrv_winc_softap.o
 .debug_line    0x00000000      0x582 build/sam_d21_xpro_winc1500/production/_ext/2003669979/wdrv_winc_softap.o
 .debug_str     0x00000000      0x109 build/sam_d21_xpro_winc1500/production/_ext/2003669979/wdrv_winc_softap.o
 .comment       0x00000000       0x3d build/sam_d21_xpro_winc1500/production/_ext/2003669979/wdrv_winc_softap.o
 .debug_frame   0x00000000       0x6c build/sam_d21_xpro_winc1500/production/_ext/2003669979/wdrv_winc_softap.o
 .ARM.attributes
                0x00000000       0x32 build/sam_d21_xpro_winc1500/production/_ext/2003669979/wdrv_winc_softap.o
 .text          0x00000000        0x0 build/sam_d21_xpro_winc1500/production/_ext/2003669979/wdrv_winc_ssl.o
 .data          0x00000000        0x0 build/sam_d21_xpro_winc1500/production/_ext/2003669979/wdrv_winc_ssl.o
 .bss           0x00000000        0x0 build/sam_d21_xpro_winc1500/production/_ext/2003669979/wdrv_winc_ssl.o
 .text.WDRV_WINC_SSLCTXDefault
                0x00000000       0x10 build/sam_d21_xpro_winc1500/production/_ext/2003669979/wdrv_winc_ssl.o
 .text.WDRV_WINC_SSLCTXCipherSuitesSet
                0x00000000       0x70 build/sam_d21_xpro_winc1500/production/_ext/2003669979/wdrv_winc_ssl.o
 .text.WDRV_WINC_SSLCTXCipherSuitesGet
                0x00000000       0x54 build/sam_d21_xpro_winc1500/production/_ext/2003669979/wdrv_winc_ssl.o
 .text.WDRV_WINC_SSLActiveCipherSuitesSet
                0x00000000       0x32 build/sam_d21_xpro_winc1500/production/_ext/2003669979/wdrv_winc_ssl.o
 .rodata._cipherSuiteMap
                0x00000000       0x40 build/sam_d21_xpro_winc1500/production/_ext/2003669979/wdrv_winc_ssl.o
 .debug_info    0x00000000     0x2bc9 build/sam_d21_xpro_winc1500/production/_ext/2003669979/wdrv_winc_ssl.o
 .debug_abbrev  0x00000000      0x2e1 build/sam_d21_xpro_winc1500/production/_ext/2003669979/wdrv_winc_ssl.o
 .debug_loc     0x00000000      0x350 build/sam_d21_xpro_winc1500/production/_ext/2003669979/wdrv_winc_ssl.o
 .debug_aranges
                0x00000000       0x38 build/sam_d21_xpro_winc1500/production/_ext/2003669979/wdrv_winc_ssl.o
 .debug_ranges  0x00000000       0x28 build/sam_d21_xpro_winc1500/production/_ext/2003669979/wdrv_winc_ssl.o
 .debug_line    0x00000000      0x538 build/sam_d21_xpro_winc1500/production/_ext/2003669979/wdrv_winc_ssl.o
 .debug_str     0x00000000       0xa2 build/sam_d21_xpro_winc1500/production/_ext/2003669979/wdrv_winc_ssl.o
 .comment       0x00000000       0x3d build/sam_d21_xpro_winc1500/production/_ext/2003669979/wdrv_winc_ssl.o
 .debug_frame   0x00000000       0x74 build/sam_d21_xpro_winc1500/production/_ext/2003669979/wdrv_winc_ssl.o
 .ARM.attributes
                0x00000000       0x32 build/sam_d21_xpro_winc1500/production/_ext/2003669979/wdrv_winc_ssl.o
 .text          0x00000000        0x0 build/sam_d21_xpro_winc1500/production/_ext/2003669979/wdrv_winc_sta.o
 .data          0x00000000        0x0 build/sam_d21_xpro_winc1500/production/_ext/2003669979/wdrv_winc_sta.o
 .bss           0x00000000        0x0 build/sam_d21_xpro_winc1500/production/_ext/2003669979/wdrv_winc_sta.o
 .text.WDRV_WINC_BSSConnect
                0x00000000      0x27e build/sam_d21_xpro_winc1500/production/_ext/2003669979/wdrv_winc_sta.o
 .text.WDRV_WINC_BSSReconnect
                0x00000000       0x3c build/sam_d21_xpro_winc1500/production/_ext/2003669979/wdrv_winc_sta.o
 .text.WDRV_WINC_BSSDisconnect
                0x00000000       0x36 build/sam_d21_xpro_winc1500/production/_ext/2003669979/wdrv_winc_sta.o
 .text.WDRV_WINC_BSSRoamingConfigure
                0x00000000       0x46 build/sam_d21_xpro_winc1500/production/_ext/2003669979/wdrv_winc_sta.o
 .debug_info    0x00000000     0x30de build/sam_d21_xpro_winc1500/production/_ext/2003669979/wdrv_winc_sta.o
 .debug_abbrev  0x00000000      0x341 build/sam_d21_xpro_winc1500/production/_ext/2003669979/wdrv_winc_sta.o
 .debug_loc     0x00000000      0x6b4 build/sam_d21_xpro_winc1500/production/_ext/2003669979/wdrv_winc_sta.o
 .debug_aranges
                0x00000000       0x38 build/sam_d21_xpro_winc1500/production/_ext/2003669979/wdrv_winc_sta.o
 .debug_ranges  0x00000000       0x70 build/sam_d21_xpro_winc1500/production/_ext/2003669979/wdrv_winc_sta.o
 .debug_line    0x00000000      0x5ef build/sam_d21_xpro_winc1500/production/_ext/2003669979/wdrv_winc_sta.o
 .debug_str     0x00000000      0x1ec build/sam_d21_xpro_winc1500/production/_ext/2003669979/wdrv_winc_sta.o
 .comment       0x00000000       0x3d build/sam_d21_xpro_winc1500/production/_ext/2003669979/wdrv_winc_sta.o
 .debug_frame   0x00000000       0x84 build/sam_d21_xpro_winc1500/production/_ext/2003669979/wdrv_winc_sta.o
 .ARM.attributes
                0x00000000       0x32 build/sam_d21_xpro_winc1500/production/_ext/2003669979/wdrv_winc_sta.o
 .text          0x00000000        0x0 build/sam_d21_xpro_winc1500/production/_ext/2003669979/wdrv_winc_systime.o
 .data          0x00000000        0x0 build/sam_d21_xpro_winc1500/production/_ext/2003669979/wdrv_winc_systime.o
 .bss           0x00000000        0x0 build/sam_d21_xpro_winc1500/production/_ext/2003669979/wdrv_winc_systime.o
 .text.WDRV_WINC_LocalTimeToUTC
                0x00000000       0x44 build/sam_d21_xpro_winc1500/production/_ext/2003669979/wdrv_winc_systime.o
 .text.WDRV_WINC_UTCToLocalTime
                0x00000000       0x40 build/sam_d21_xpro_winc1500/production/_ext/2003669979/wdrv_winc_systime.o
 .text.WDRV_WINC_SystemTimeSNTPClientEnable
                0x00000000       0x56 build/sam_d21_xpro_winc1500/production/_ext/2003669979/wdrv_winc_systime.o
 .text.WDRV_WINC_SystemTimeSNTPClientDisable
                0x00000000       0x22 build/sam_d21_xpro_winc1500/production/_ext/2003669979/wdrv_winc_systime.o
 .text.WDRV_WINC_SystemTimeSetCurrent
                0x00000000       0x28 build/sam_d21_xpro_winc1500/production/_ext/2003669979/wdrv_winc_systime.o
 .text.WDRV_WINC_SystemTimeGetCurrent
                0x00000000       0x28 build/sam_d21_xpro_winc1500/production/_ext/2003669979/wdrv_winc_systime.o
 .debug_info    0x00000000     0x2bf4 build/sam_d21_xpro_winc1500/production/_ext/2003669979/wdrv_winc_systime.o
 .debug_abbrev  0x00000000      0x2b0 build/sam_d21_xpro_winc1500/production/_ext/2003669979/wdrv_winc_systime.o
 .debug_loc     0x00000000      0x4e1 build/sam_d21_xpro_winc1500/production/_ext/2003669979/wdrv_winc_systime.o
 .debug_aranges
                0x00000000       0x48 build/sam_d21_xpro_winc1500/production/_ext/2003669979/wdrv_winc_systime.o
 .debug_ranges  0x00000000       0x38 build/sam_d21_xpro_winc1500/production/_ext/2003669979/wdrv_winc_systime.o
 .debug_line    0x00000000      0x590 build/sam_d21_xpro_winc1500/production/_ext/2003669979/wdrv_winc_systime.o
 .debug_str     0x00000000       0xc3 build/sam_d21_xpro_winc1500/production/_ext/2003669979/wdrv_winc_systime.o
 .comment       0x00000000       0x3d build/sam_d21_xpro_winc1500/production/_ext/2003669979/wdrv_winc_systime.o
 .debug_frame   0x00000000       0xa8 build/sam_d21_xpro_winc1500/production/_ext/2003669979/wdrv_winc_systime.o
 .ARM.attributes
                0x00000000       0x32 build/sam_d21_xpro_winc1500/production/_ext/2003669979/wdrv_winc_systime.o
 .text          0x00000000        0x0 build/sam_d21_xpro_winc1500/production/_ext/2003669979/wdrv_winc_wps.o
 .data          0x00000000        0x0 build/sam_d21_xpro_winc1500/production/_ext/2003669979/wdrv_winc_wps.o
 .bss           0x00000000        0x0 build/sam_d21_xpro_winc1500/production/_ext/2003669979/wdrv_winc_wps.o
 .text.WDRV_WINC_WPSEnrolleeDiscoveryStartPIN
                0x00000000       0xe0 build/sam_d21_xpro_winc1500/production/_ext/2003669979/wdrv_winc_wps.o
 .text.WDRV_WINC_WPSEnrolleeDiscoveryStartPBC
                0x00000000       0x2c build/sam_d21_xpro_winc1500/production/_ext/2003669979/wdrv_winc_wps.o
 .text.WDRV_WINC_WPSEnrolleeDiscoveryStop
                0x00000000       0x20 build/sam_d21_xpro_winc1500/production/_ext/2003669979/wdrv_winc_wps.o
 .rodata        0x00000000        0x8 build/sam_d21_xpro_winc1500/production/_ext/2003669979/wdrv_winc_wps.o
 .debug_info    0x00000000     0x285c build/sam_d21_xpro_winc1500/production/_ext/2003669979/wdrv_winc_wps.o
 .debug_abbrev  0x00000000      0x303 build/sam_d21_xpro_winc1500/production/_ext/2003669979/wdrv_winc_wps.o
 .debug_loc     0x00000000      0x2d4 build/sam_d21_xpro_winc1500/production/_ext/2003669979/wdrv_winc_wps.o
 .debug_aranges
                0x00000000       0x30 build/sam_d21_xpro_winc1500/production/_ext/2003669979/wdrv_winc_wps.o
 .debug_ranges  0x00000000       0x20 build/sam_d21_xpro_winc1500/production/_ext/2003669979/wdrv_winc_wps.o
 .debug_line    0x00000000      0x517 build/sam_d21_xpro_winc1500/production/_ext/2003669979/wdrv_winc_wps.o
 .debug_str     0x00000000       0x9a build/sam_d21_xpro_winc1500/production/_ext/2003669979/wdrv_winc_wps.o
 .comment       0x00000000       0x3d build/sam_d21_xpro_winc1500/production/_ext/2003669979/wdrv_winc_wps.o
 .debug_frame   0x00000000       0x60 build/sam_d21_xpro_winc1500/production/_ext/2003669979/wdrv_winc_wps.o
 .ARM.attributes
                0x00000000       0x32 build/sam_d21_xpro_winc1500/production/_ext/2003669979/wdrv_winc_wps.o
 .text          0x00000000        0x0 build/sam_d21_xpro_winc1500/production/_ext/1115528141/wdrv_winc_eint.o
 .data          0x00000000        0x0 build/sam_d21_xpro_winc1500/production/_ext/1115528141/wdrv_winc_eint.o
 .bss           0x00000000        0x0 build/sam_d21_xpro_winc1500/production/_ext/1115528141/wdrv_winc_eint.o
 .text.WDRV_WINC_INTInitialize
                0x00000000       0x18 build/sam_d21_xpro_winc1500/production/_ext/1115528141/wdrv_winc_eint.o
 .text.WDRV_WINC_INTDeinitialize
                0x00000000        0xa build/sam_d21_xpro_winc1500/production/_ext/1115528141/wdrv_winc_eint.o
 .debug_info    0x00000000     0x10c9 build/sam_d21_xpro_winc1500/production/_ext/1115528141/wdrv_winc_eint.o
 .debug_abbrev  0x00000000      0x1fb build/sam_d21_xpro_winc1500/production/_ext/1115528141/wdrv_winc_eint.o
 .debug_loc     0x00000000       0x40 build/sam_d21_xpro_winc1500/production/_ext/1115528141/wdrv_winc_eint.o
 .debug_aranges
                0x00000000       0x28 build/sam_d21_xpro_winc1500/production/_ext/1115528141/wdrv_winc_eint.o
 .debug_ranges  0x00000000       0x18 build/sam_d21_xpro_winc1500/production/_ext/1115528141/wdrv_winc_eint.o
 .debug_line    0x00000000      0x33e build/sam_d21_xpro_winc1500/production/_ext/1115528141/wdrv_winc_eint.o
 .debug_str     0x00000000       0x37 build/sam_d21_xpro_winc1500/production/_ext/1115528141/wdrv_winc_eint.o
 .comment       0x00000000       0x3d build/sam_d21_xpro_winc1500/production/_ext/1115528141/wdrv_winc_eint.o
 .debug_frame   0x00000000       0x40 build/sam_d21_xpro_winc1500/production/_ext/1115528141/wdrv_winc_eint.o
 .ARM.attributes
                0x00000000       0x32 build/sam_d21_xpro_winc1500/production/_ext/1115528141/wdrv_winc_eint.o
 .text          0x00000000        0x0 build/sam_d21_xpro_winc1500/production/_ext/1115528141/wdrv_winc_gpio.o
 .data          0x00000000        0x0 build/sam_d21_xpro_winc1500/production/_ext/1115528141/wdrv_winc_gpio.o
 .bss           0x00000000        0x0 build/sam_d21_xpro_winc1500/production/_ext/1115528141/wdrv_winc_gpio.o
 .text          0x00000000        0x0 build/sam_d21_xpro_winc1500/production/_ext/1837088568/wdrv_winc_spi.o
 .data          0x00000000        0x0 build/sam_d21_xpro_winc1500/production/_ext/1837088568/wdrv_winc_spi.o
 .bss           0x00000000        0x0 build/sam_d21_xpro_winc1500/production/_ext/1837088568/wdrv_winc_spi.o
 .text.WDRV_WINC_SPIDeinitialize
                0x00000000       0x38 build/sam_d21_xpro_winc1500/production/_ext/1837088568/wdrv_winc_spi.o
 .text          0x00000000        0x0 build/sam_d21_xpro_winc1500/production/_ext/1879120711/wdrv_winc_osal.o
 .data          0x00000000        0x0 build/sam_d21_xpro_winc1500/production/_ext/1879120711/wdrv_winc_osal.o
 .bss           0x00000000        0x0 build/sam_d21_xpro_winc1500/production/_ext/1879120711/wdrv_winc_osal.o
 .text          0x00000000        0x0 build/sam_d21_xpro_winc1500/production/_ext/418110372/nm_common.o
 .data          0x00000000        0x0 build/sam_d21_xpro_winc1500/production/_ext/418110372/nm_common.o
 .bss           0x00000000        0x0 build/sam_d21_xpro_winc1500/production/_ext/418110372/nm_common.o
 .text          0x00000000        0x0 build/sam_d21_xpro_winc1500/production/_ext/386821479/m2m_hif.o
 .data          0x00000000        0x0 build/sam_d21_xpro_winc1500/production/_ext/386821479/m2m_hif.o
 .bss           0x00000000        0x0 build/sam_d21_xpro_winc1500/production/_ext/386821479/m2m_hif.o
 .text.hif_set_sleep_mode
                0x00000000        0xc build/sam_d21_xpro_winc1500/production/_ext/386821479/m2m_hif.o
 .text.hif_get_sleep_mode
                0x00000000        0xc build/sam_d21_xpro_winc1500/production/_ext/386821479/m2m_hif.o
 .text.hif_deinit
                0x00000000       0x1c build/sam_d21_xpro_winc1500/production/_ext/386821479/m2m_hif.o
 .text          0x00000000        0x0 build/sam_d21_xpro_winc1500/production/_ext/386821479/m2m_periph.o
 .data          0x00000000        0x0 build/sam_d21_xpro_winc1500/production/_ext/386821479/m2m_periph.o
 .bss           0x00000000        0x0 build/sam_d21_xpro_winc1500/production/_ext/386821479/m2m_periph.o
 .text.get_gpio_idx
                0x00000000       0x3c build/sam_d21_xpro_winc1500/production/_ext/386821479/m2m_periph.o
 .text.m2m_periph_init
                0x00000000        0x4 build/sam_d21_xpro_winc1500/production/_ext/386821479/m2m_periph.o
 .text.m2m_periph_gpio_set_dir
                0x00000000       0x26 build/sam_d21_xpro_winc1500/production/_ext/386821479/m2m_periph.o
 .text.m2m_periph_gpio_set_val
                0x00000000       0x26 build/sam_d21_xpro_winc1500/production/_ext/386821479/m2m_periph.o
 .text.m2m_periph_gpio_get_val
                0x00000000       0x26 build/sam_d21_xpro_winc1500/production/_ext/386821479/m2m_periph.o
 .text.m2m_periph_pullup_ctrl
                0x00000000        0x8 build/sam_d21_xpro_winc1500/production/_ext/386821479/m2m_periph.o
 .debug_info    0x00000000     0x1589 build/sam_d21_xpro_winc1500/production/_ext/386821479/m2m_periph.o
 .debug_abbrev  0x00000000      0x2c2 build/sam_d21_xpro_winc1500/production/_ext/386821479/m2m_periph.o
 .debug_loc     0x00000000      0x333 build/sam_d21_xpro_winc1500/production/_ext/386821479/m2m_periph.o
 .debug_aranges
                0x00000000       0x48 build/sam_d21_xpro_winc1500/production/_ext/386821479/m2m_periph.o
 .debug_ranges  0x00000000       0x38 build/sam_d21_xpro_winc1500/production/_ext/386821479/m2m_periph.o
 .debug_line    0x00000000      0x3d5 build/sam_d21_xpro_winc1500/production/_ext/386821479/m2m_periph.o
 .debug_str     0x00000000       0x68 build/sam_d21_xpro_winc1500/production/_ext/386821479/m2m_periph.o
 .comment       0x00000000       0x3d build/sam_d21_xpro_winc1500/production/_ext/386821479/m2m_periph.o
 .debug_frame   0x00000000       0x9c build/sam_d21_xpro_winc1500/production/_ext/386821479/m2m_periph.o
 .ARM.attributes
                0x00000000       0x32 build/sam_d21_xpro_winc1500/production/_ext/386821479/m2m_periph.o
 .text          0x00000000        0x0 build/sam_d21_xpro_winc1500/production/_ext/386821479/m2m_wifi.o
 .data          0x00000000        0x0 build/sam_d21_xpro_winc1500/production/_ext/386821479/m2m_wifi.o
 .bss           0x00000000        0x0 build/sam_d21_xpro_winc1500/production/_ext/386821479/m2m_wifi.o
 .text.m2m_wifi_download_mode
                0x00000000       0x20 build/sam_d21_xpro_winc1500/production/_ext/386821479/m2m_wifi.o
 .text.m2m_wifi_send_crl
                0x00000000       0x20 build/sam_d21_xpro_winc1500/production/_ext/386821479/m2m_wifi.o
 .text.m2m_wifi_deinit
                0x00000000       0x1c build/sam_d21_xpro_winc1500/production/_ext/386821479/m2m_wifi.o
 .text.m2m_wifi_delete_sc
                0x00000000       0x2c build/sam_d21_xpro_winc1500/production/_ext/386821479/m2m_wifi.o
 .text.m2m_wifi_default_connect
                0x00000000       0x1a build/sam_d21_xpro_winc1500/production/_ext/386821479/m2m_wifi.o
 .text.m2m_wifi_connect_1x_tls
                0x00000000      0x1a0 build/sam_d21_xpro_winc1500/production/_ext/386821479/m2m_wifi.o
 .text.m2m_wifi_disconnect
                0x00000000       0x1a build/sam_d21_xpro_winc1500/production/_ext/386821479/m2m_wifi.o
 .text.m2m_wifi_set_static_ip
                0x00000000       0x1c build/sam_d21_xpro_winc1500/production/_ext/386821479/m2m_wifi.o
 .text.m2m_wifi_enable_dhcp
                0x00000000       0x1e build/sam_d21_xpro_winc1500/production/_ext/386821479/m2m_wifi.o
 .text.m2m_wifi_set_lsn_int
                0x00000000       0x1c build/sam_d21_xpro_winc1500/production/_ext/386821479/m2m_wifi.o
 .text.m2m_wifi_set_cust_InfoElement
                0x00000000       0x34 build/sam_d21_xpro_winc1500/production/_ext/386821479/m2m_wifi.o
 .text.m2m_wifi_set_scan_options
                0x00000000       0x5c build/sam_d21_xpro_winc1500/production/_ext/386821479/m2m_wifi.o
 .text.m2m_wifi_set_scan_region
                0x00000000       0x1e build/sam_d21_xpro_winc1500/production/_ext/386821479/m2m_wifi.o
 .text.m2m_wifi_request_scan
                0x00000000       0x4c build/sam_d21_xpro_winc1500/production/_ext/386821479/m2m_wifi.o
 .text.m2m_wifi_request_scan_passive
                0x00000000       0x4c build/sam_d21_xpro_winc1500/production/_ext/386821479/m2m_wifi.o
 .text.m2m_wifi_request_scan_ssid_list
                0x00000000       0x88 build/sam_d21_xpro_winc1500/production/_ext/386821479/m2m_wifi.o
 .text.m2m_wifi_wps
                0x00000000       0x38 build/sam_d21_xpro_winc1500/production/_ext/386821479/m2m_wifi.o
 .text.m2m_wifi_wps_disable
                0x00000000       0x1a build/sam_d21_xpro_winc1500/production/_ext/386821479/m2m_wifi.o
 .text.m2m_wifi_req_client_ctrl
                0x00000000        0x4 build/sam_d21_xpro_winc1500/production/_ext/386821479/m2m_wifi.o
 .text.m2m_wifi_req_server_init
                0x00000000        0x4 build/sam_d21_xpro_winc1500/production/_ext/386821479/m2m_wifi.o
 .text.m2m_wifi_p2p
                0x00000000       0x3c build/sam_d21_xpro_winc1500/production/_ext/386821479/m2m_wifi.o
 .text.m2m_wifi_p2p_disconnect
                0x00000000       0x1a build/sam_d21_xpro_winc1500/production/_ext/386821479/m2m_wifi.o
 .text.m2m_wifi_enable_ap_ext
                0x00000000       0x2e build/sam_d21_xpro_winc1500/production/_ext/386821479/m2m_wifi.o
 .text.m2m_wifi_enable_ap
                0x00000000       0x38 build/sam_d21_xpro_winc1500/production/_ext/386821479/m2m_wifi.o
 .text.m2m_wifi_set_gains
                0x00000000       0x26 build/sam_d21_xpro_winc1500/production/_ext/386821479/m2m_wifi.o
 .text.m2m_wifi_disable_ap
                0x00000000       0x1a build/sam_d21_xpro_winc1500/production/_ext/386821479/m2m_wifi.o
 .text.m2m_wifi_req_curr_rssi
                0x00000000       0x1a build/sam_d21_xpro_winc1500/production/_ext/386821479/m2m_wifi.o
 .text.m2m_wifi_send_ethernet_pkt
                0x00000000       0x36 build/sam_d21_xpro_winc1500/production/_ext/386821479/m2m_wifi.o
 .text.m2m_wifi_req_scan_result
                0x00000000       0x1e build/sam_d21_xpro_winc1500/production/_ext/386821479/m2m_wifi.o
 .text.m2m_wifi_get_num_ap_found
                0x00000000        0xc build/sam_d21_xpro_winc1500/production/_ext/386821479/m2m_wifi.o
 .text.m2m_wifi_get_sleep_mode
                0x00000000        0x8 build/sam_d21_xpro_winc1500/production/_ext/386821479/m2m_wifi.o
 .text.m2m_wifi_set_sleep_mode
                0x00000000       0x2c build/sam_d21_xpro_winc1500/production/_ext/386821479/m2m_wifi.o
 .text.m2m_wifi_request_sleep
                0x00000000       0x2e build/sam_d21_xpro_winc1500/production/_ext/386821479/m2m_wifi.o
 .text.m2m_wifi_configure_sntp
                0x00000000       0x3c build/sam_d21_xpro_winc1500/production/_ext/386821479/m2m_wifi.o
 .text.m2m_wifi_get_chipId
                0x00000000        0x8 build/sam_d21_xpro_winc1500/production/_ext/386821479/m2m_wifi.o
 .text.m2m_wifi_get_firmware_version
                0x00000000       0x1e build/sam_d21_xpro_winc1500/production/_ext/386821479/m2m_wifi.o
 .text.m2m_wifi_stop_provision_mode
                0x00000000       0x1a build/sam_d21_xpro_winc1500/production/_ext/386821479/m2m_wifi.o
 .text.m2m_wifi_get_connection_info
                0x00000000       0x1a build/sam_d21_xpro_winc1500/production/_ext/386821479/m2m_wifi.o
 .text.m2m_wifi_set_system_time
                0x00000000       0x1e build/sam_d21_xpro_winc1500/production/_ext/386821479/m2m_wifi.o
 .text.m2m_wifi_get_system_time
                0x00000000       0x1a build/sam_d21_xpro_winc1500/production/_ext/386821479/m2m_wifi.o
 .text.m2m_wifi_enable_sntp
                0x00000000       0x1e build/sam_d21_xpro_winc1500/production/_ext/386821479/m2m_wifi.o
 .text.m2m_wifi_set_power_profile
                0x00000000       0x1e build/sam_d21_xpro_winc1500/production/_ext/386821479/m2m_wifi.o
 .text.m2m_wifi_set_tx_power
                0x00000000       0x1e build/sam_d21_xpro_winc1500/production/_ext/386821479/m2m_wifi.o
 .text.m2m_wifi_set_gain_table_idx
                0x00000000       0x1e build/sam_d21_xpro_winc1500/production/_ext/386821479/m2m_wifi.o
 .text.m2m_wifi_enable_firmware_logs
                0x00000000       0x1e build/sam_d21_xpro_winc1500/production/_ext/386821479/m2m_wifi.o
 .text.m2m_wifi_set_battery_voltage
                0x00000000       0x20 build/sam_d21_xpro_winc1500/production/_ext/386821479/m2m_wifi.o
 .text.m2m_wifi_prng_get_random_bytes
                0x00000000       0x48 build/sam_d21_xpro_winc1500/production/_ext/386821479/m2m_wifi.o
 .text.m2m_wifi_conf_auto_rate
                0x00000000       0x1c build/sam_d21_xpro_winc1500/production/_ext/386821479/m2m_wifi.o
 .text.m2m_wifi_enable_mac_mcast
                0x00000000       0x34 build/sam_d21_xpro_winc1500/production/_ext/386821479/m2m_wifi.o
 .text.m2m_wifi_set_receive_buffer
                0x00000000       0x20 build/sam_d21_xpro_winc1500/production/_ext/386821479/m2m_wifi.o
 .text.m2m_wifi_reinit_hold
                0x00000000        0xe build/sam_d21_xpro_winc1500/production/_ext/386821479/m2m_wifi.o
 .text.m2m_wifi_reinit
                0x00000000       0x16 build/sam_d21_xpro_winc1500/production/_ext/386821479/m2m_wifi.o
 .text.m2m_wifi_reinit_start
                0x00000000        0x8 build/sam_d21_xpro_winc1500/production/_ext/386821479/m2m_wifi.o
 .text.m2m_wifi_get_state
                0x00000000        0xc build/sam_d21_xpro_winc1500/production/_ext/386821479/m2m_wifi.o
 .text.m2m_wifi_enable_roaming
                0x00000000       0x2e build/sam_d21_xpro_winc1500/production/_ext/386821479/m2m_wifi.o
 .text.m2m_wifi_disable_roaming
                0x00000000       0x1e build/sam_d21_xpro_winc1500/production/_ext/386821479/m2m_wifi.o
 .text          0x00000000        0x0 build/sam_d21_xpro_winc1500/production/_ext/386821479/nmasic.o
 .data          0x00000000        0x0 build/sam_d21_xpro_winc1500/production/_ext/386821479/nmasic.o
 .bss           0x00000000        0x0 build/sam_d21_xpro_winc1500/production/_ext/386821479/nmasic.o
 .text.chip_idle
                0x00000000       0x28 build/sam_d21_xpro_winc1500/production/_ext/386821479/nmasic.o
 .text.cpu_start
                0x00000000       0xac build/sam_d21_xpro_winc1500/production/_ext/386821479/nmasic.o
 .text.nmi_get_rfrevid
                0x00000000       0x20 build/sam_d21_xpro_winc1500/production/_ext/386821479/nmasic.o
 .text.restore_pmu_settings_after_global_reset
                0x00000000       0x28 build/sam_d21_xpro_winc1500/production/_ext/386821479/nmasic.o
 .text.nmi_update_pll
                0x00000000       0x28 build/sam_d21_xpro_winc1500/production/_ext/386821479/nmasic.o
 .text.nmi_set_sys_clk_src_to_xo
                0x00000000       0x20 build/sam_d21_xpro_winc1500/production/_ext/386821479/nmasic.o
 .text.cpu_halt
                0x00000000       0x6c build/sam_d21_xpro_winc1500/production/_ext/386821479/nmasic.o
 .text.chip_reset
                0x00000000       0x18 build/sam_d21_xpro_winc1500/production/_ext/386821479/nmasic.o
 .text.set_gpio_dir
                0x00000000       0x40 build/sam_d21_xpro_winc1500/production/_ext/386821479/nmasic.o
 .text.set_gpio_val
                0x00000000       0x40 build/sam_d21_xpro_winc1500/production/_ext/386821479/nmasic.o
 .text.get_gpio_val
                0x00000000       0x28 build/sam_d21_xpro_winc1500/production/_ext/386821479/nmasic.o
 .text.pullup_ctrl
                0x00000000       0x38 build/sam_d21_xpro_winc1500/production/_ext/386821479/nmasic.o
 .text          0x00000000        0x0 build/sam_d21_xpro_winc1500/production/_ext/386821479/nmbus.o
 .data          0x00000000        0x0 build/sam_d21_xpro_winc1500/production/_ext/386821479/nmbus.o
 .bss           0x00000000        0x0 build/sam_d21_xpro_winc1500/production/_ext/386821479/nmbus.o
 .text.nm_bus_iface_reconfigure
                0x00000000        0x4 build/sam_d21_xpro_winc1500/production/_ext/386821479/nmbus.o
 .text          0x00000000        0x0 build/sam_d21_xpro_winc1500/production/_ext/386821479/nmdrv.o
 .data          0x00000000        0x0 build/sam_d21_xpro_winc1500/production/_ext/386821479/nmdrv.o
 .bss           0x00000000        0x0 build/sam_d21_xpro_winc1500/production/_ext/386821479/nmdrv.o
 .text.nm_get_firmware_info
                0x00000000       0xac build/sam_d21_xpro_winc1500/production/_ext/386821479/nmdrv.o
 .text.nm_get_ota_firmware_info
                0x00000000       0xd0 build/sam_d21_xpro_winc1500/production/_ext/386821479/nmdrv.o
 .text.nm_drv_init_download_mode
                0x00000000       0x34 build/sam_d21_xpro_winc1500/production/_ext/386821479/nmdrv.o
 .text.nm_drv_init
                0x00000000       0x16 build/sam_d21_xpro_winc1500/production/_ext/386821479/nmdrv.o
 .text          0x00000000        0x0 build/sam_d21_xpro_winc1500/production/_ext/386821479/nmspi.o
 .data          0x00000000        0x0 build/sam_d21_xpro_winc1500/production/_ext/386821479/nmspi.o
 .bss           0x00000000        0x0 build/sam_d21_xpro_winc1500/production/_ext/386821479/nmspi.o
 .text          0x00000000        0x0 build/sam_d21_xpro_winc1500/production/_ext/1591721076/spi_flash.o
 .data          0x00000000        0x0 build/sam_d21_xpro_winc1500/production/_ext/1591721076/spi_flash.o
 .bss           0x00000000        0x0 build/sam_d21_xpro_winc1500/production/_ext/1591721076/spi_flash.o
 .text.spi_flash_load_to_cortus_mem
                0x00000000       0xa4 build/sam_d21_xpro_winc1500/production/_ext/1591721076/spi_flash.o
 .text.spi_flash_write_enable
                0x00000000       0x78 build/sam_d21_xpro_winc1500/production/_ext/1591721076/spi_flash.o
 .text.spi_flash_read_status_reg
                0x00000000       0x88 build/sam_d21_xpro_winc1500/production/_ext/1591721076/spi_flash.o
 .text.spi_flash_pp
                0x00000000      0x140 build/sam_d21_xpro_winc1500/production/_ext/1591721076/spi_flash.o
 .text.spi_flash_read
                0x00000000       0x6c build/sam_d21_xpro_winc1500/production/_ext/1591721076/spi_flash.o
 .text.spi_flash_write
                0x00000000       0x82 build/sam_d21_xpro_winc1500/production/_ext/1591721076/spi_flash.o
 .text.spi_flash_erase
                0x00000000      0x104 build/sam_d21_xpro_winc1500/production/_ext/1591721076/spi_flash.o
 .text.spi_flash_get_size
                0x00000000       0xb4 build/sam_d21_xpro_winc1500/production/_ext/1591721076/spi_flash.o
 .bss.gu32InternalFlashSize.9452
                0x00000000        0x4 build/sam_d21_xpro_winc1500/production/_ext/1591721076/spi_flash.o
 .text          0x00000000        0x0 build/sam_d21_xpro_winc1500/production/_ext/1591721076/flexible_flash.o
 .data          0x00000000        0x0 build/sam_d21_xpro_winc1500/production/_ext/1591721076/flexible_flash.o
 .bss           0x00000000        0x0 build/sam_d21_xpro_winc1500/production/_ext/1591721076/flexible_flash.o
 .text.spi_flexible_flash_find_section
                0x00000000       0x98 build/sam_d21_xpro_winc1500/production/_ext/1591721076/flexible_flash.o
 .debug_info    0x00000000     0x11b1 build/sam_d21_xpro_winc1500/production/_ext/1591721076/flexible_flash.o
 .debug_abbrev  0x00000000      0x221 build/sam_d21_xpro_winc1500/production/_ext/1591721076/flexible_flash.o
 .debug_loc     0x00000000      0x1f0 build/sam_d21_xpro_winc1500/production/_ext/1591721076/flexible_flash.o
 .debug_aranges
                0x00000000       0x20 build/sam_d21_xpro_winc1500/production/_ext/1591721076/flexible_flash.o
 .debug_ranges  0x00000000       0x28 build/sam_d21_xpro_winc1500/production/_ext/1591721076/flexible_flash.o
 .debug_line    0x00000000      0x359 build/sam_d21_xpro_winc1500/production/_ext/1591721076/flexible_flash.o
 .debug_str     0x00000000       0x1d build/sam_d21_xpro_winc1500/production/_ext/1591721076/flexible_flash.o
 .comment       0x00000000       0x3d build/sam_d21_xpro_winc1500/production/_ext/1591721076/flexible_flash.o
 .debug_frame   0x00000000       0x38 build/sam_d21_xpro_winc1500/production/_ext/1591721076/flexible_flash.o
 .ARM.attributes
                0x00000000       0x32 build/sam_d21_xpro_winc1500/production/_ext/1591721076/flexible_flash.o
 .text          0x00000000        0x0 build/sam_d21_xpro_winc1500/production/_ext/386821479/m2m_ota.o
 .data          0x00000000        0x0 build/sam_d21_xpro_winc1500/production/_ext/386821479/m2m_ota.o
 .bss           0x00000000        0x0 build/sam_d21_xpro_winc1500/production/_ext/386821479/m2m_ota.o
 .text.m2m_ota_cb
                0x00000000      0x168 build/sam_d21_xpro_winc1500/production/_ext/386821479/m2m_ota.o
 .text.m2m_ota_host_file_get_id
                0x00000000        0xc build/sam_d21_xpro_winc1500/production/_ext/386821479/m2m_ota.o
 .text.m2m_ota_init
                0x00000000       0x40 build/sam_d21_xpro_winc1500/production/_ext/386821479/m2m_ota.o
 .text.m2m_ota_notif_set_url
                0x00000000       0x24 build/sam_d21_xpro_winc1500/production/_ext/386821479/m2m_ota.o
 .text.m2m_ota_notif_check_for_update
                0x00000000       0x1a build/sam_d21_xpro_winc1500/production/_ext/386821479/m2m_ota.o
 .text.m2m_ota_notif_sched
                0x00000000       0x1a build/sam_d21_xpro_winc1500/production/_ext/386821479/m2m_ota.o
 .text.m2m_ota_start_update
                0x00000000       0x24 build/sam_d21_xpro_winc1500/production/_ext/386821479/m2m_ota.o
 .text.m2m_ota_rollback
                0x00000000       0x1a build/sam_d21_xpro_winc1500/production/_ext/386821479/m2m_ota.o
 .text.m2m_ota_abort
                0x00000000       0x1a build/sam_d21_xpro_winc1500/production/_ext/386821479/m2m_ota.o
 .text.m2m_ota_switch_firmware
                0x00000000       0x1a build/sam_d21_xpro_winc1500/production/_ext/386821479/m2m_ota.o
 .text.m2m_ota_get_firmware_version
                0x00000000       0x1e build/sam_d21_xpro_winc1500/production/_ext/386821479/m2m_ota.o
 .text.m2m_ota_host_file_get
                0x00000000       0x64 build/sam_d21_xpro_winc1500/production/_ext/386821479/m2m_ota.o
 .text.m2m_ota_host_file_read_hif
                0x00000000       0x5c build/sam_d21_xpro_winc1500/production/_ext/386821479/m2m_ota.o
 .text.m2m_ota_host_file_read_spi
                0x00000000       0xa0 build/sam_d21_xpro_winc1500/production/_ext/386821479/m2m_ota.o
 .text.m2m_ota_host_file_erase
                0x00000000       0x4c build/sam_d21_xpro_winc1500/production/_ext/386821479/m2m_ota.o
 .bss.FileBlock
                0x00000000        0x8 build/sam_d21_xpro_winc1500/production/_ext/386821479/m2m_ota.o
 .bss.gpfHFDEraseCb
                0x00000000        0x4 build/sam_d21_xpro_winc1500/production/_ext/386821479/m2m_ota.o
 .bss.gpfHFDGetCb
                0x00000000        0x4 build/sam_d21_xpro_winc1500/production/_ext/386821479/m2m_ota.o
 .bss.gpfHFDReadCb
                0x00000000        0x4 build/sam_d21_xpro_winc1500/production/_ext/386821479/m2m_ota.o
 .bss.gpfOtaNotifCb
                0x00000000        0x4 build/sam_d21_xpro_winc1500/production/_ext/386821479/m2m_ota.o
 .bss.gpfOtaUpdateCb
                0x00000000        0x4 build/sam_d21_xpro_winc1500/production/_ext/386821479/m2m_ota.o
 .bss.u32FlashHFDSize.9507
                0x00000000        0x4 build/sam_d21_xpro_winc1500/production/_ext/386821479/m2m_ota.o
 .bss.u32FlashHFDStart.9506
                0x00000000        0x4 build/sam_d21_xpro_winc1500/production/_ext/386821479/m2m_ota.o
 .data.gu8CurrFileHandlerID
                0x00000000        0x1 build/sam_d21_xpro_winc1500/production/_ext/386821479/m2m_ota.o
 .debug_info    0x00000000     0x28d3 build/sam_d21_xpro_winc1500/production/_ext/386821479/m2m_ota.o
 .debug_abbrev  0x00000000      0x36c build/sam_d21_xpro_winc1500/production/_ext/386821479/m2m_ota.o
 .debug_loc     0x00000000      0xbe7 build/sam_d21_xpro_winc1500/production/_ext/386821479/m2m_ota.o
 .debug_aranges
                0x00000000       0x90 build/sam_d21_xpro_winc1500/production/_ext/386821479/m2m_ota.o
 .debug_ranges  0x00000000       0x80 build/sam_d21_xpro_winc1500/production/_ext/386821479/m2m_ota.o
 .debug_line    0x00000000      0x59a build/sam_d21_xpro_winc1500/production/_ext/386821479/m2m_ota.o
 .debug_str     0x00000000      0x10b build/sam_d21_xpro_winc1500/production/_ext/386821479/m2m_ota.o
 .comment       0x00000000       0x3d build/sam_d21_xpro_winc1500/production/_ext/386821479/m2m_ota.o
 .debug_frame   0x00000000      0x18c build/sam_d21_xpro_winc1500/production/_ext/386821479/m2m_ota.o
 .ARM.attributes
                0x00000000       0x32 build/sam_d21_xpro_winc1500/production/_ext/386821479/m2m_ota.o
 .text          0x00000000        0x0 build/sam_d21_xpro_winc1500/production/_ext/386821479/m2m_ssl.o
 .data          0x00000000        0x0 build/sam_d21_xpro_winc1500/production/_ext/386821479/m2m_ssl.o
 .bss           0x00000000        0x0 build/sam_d21_xpro_winc1500/production/_ext/386821479/m2m_ssl.o
 .text.m2m_ssl_cb
                0x00000000      0x118 build/sam_d21_xpro_winc1500/production/_ext/386821479/m2m_ssl.o
 .text.m2m_ssl_handshake_rsp
                0x00000000       0x1a build/sam_d21_xpro_winc1500/production/_ext/386821479/m2m_ssl.o
 .text.m2m_ssl_send_certs_to_winc
                0x00000000      0x174 build/sam_d21_xpro_winc1500/production/_ext/386821479/m2m_ssl.o
 .text.m2m_ssl_retrieve_cert
                0x00000000      0x128 build/sam_d21_xpro_winc1500/production/_ext/386821479/m2m_ssl.o
 .text.m2m_ssl_retrieve_hash
                0x00000000       0x3c build/sam_d21_xpro_winc1500/production/_ext/386821479/m2m_ssl.o
 .text.m2m_ssl_stop_processing_certs
                0x00000000       0x10 build/sam_d21_xpro_winc1500/production/_ext/386821479/m2m_ssl.o
 .text.m2m_ssl_ecc_process_done
                0x00000000        0xc build/sam_d21_xpro_winc1500/production/_ext/386821479/m2m_ssl.o
 .text.m2m_ssl_set_active_ciphersuites
                0x00000000       0x1e build/sam_d21_xpro_winc1500/production/_ext/386821479/m2m_ssl.o
 .text.m2m_ssl_init
                0x00000000       0x2c build/sam_d21_xpro_winc1500/production/_ext/386821479/m2m_ssl.o
 .bss.gpfAppSSLCb
                0x00000000        0x4 build/sam_d21_xpro_winc1500/production/_ext/386821479/m2m_ssl.o
 .bss.gu32HIFAddr
                0x00000000        0x4 build/sam_d21_xpro_winc1500/production/_ext/386821479/m2m_ssl.o
 .data.genuStatus
                0x00000000        0x1 build/sam_d21_xpro_winc1500/production/_ext/386821479/m2m_ssl.o
 .debug_info    0x00000000     0x1f10 build/sam_d21_xpro_winc1500/production/_ext/386821479/m2m_ssl.o
 .debug_abbrev  0x00000000      0x344 build/sam_d21_xpro_winc1500/production/_ext/386821479/m2m_ssl.o
 .debug_loc     0x00000000      0xbd8 build/sam_d21_xpro_winc1500/production/_ext/386821479/m2m_ssl.o
 .debug_aranges
                0x00000000       0x60 build/sam_d21_xpro_winc1500/production/_ext/386821479/m2m_ssl.o
 .debug_ranges  0x00000000       0xa8 build/sam_d21_xpro_winc1500/production/_ext/386821479/m2m_ssl.o
 .debug_line    0x00000000      0x4bf build/sam_d21_xpro_winc1500/production/_ext/386821479/m2m_ssl.o
 .debug_str     0x00000000       0x58 build/sam_d21_xpro_winc1500/production/_ext/386821479/m2m_ssl.o
 .comment       0x00000000       0x3d build/sam_d21_xpro_winc1500/production/_ext/386821479/m2m_ssl.o
 .debug_frame   0x00000000      0x100 build/sam_d21_xpro_winc1500/production/_ext/386821479/m2m_ssl.o
 .ARM.attributes
                0x00000000       0x32 build/sam_d21_xpro_winc1500/production/_ext/386821479/m2m_ssl.o
 .text          0x00000000        0x0 build/sam_d21_xpro_winc1500/production/_ext/39655908/socket.o
 .data          0x00000000        0x0 build/sam_d21_xpro_winc1500/production/_ext/39655908/socket.o
 .bss           0x00000000        0x0 build/sam_d21_xpro_winc1500/production/_ext/39655908/socket.o
 .text.socketDeinit
                0x00000000       0x34 build/sam_d21_xpro_winc1500/production/_ext/39655908/socket.o
 .text.registerSocketEventCallback
                0x00000000        0xc build/sam_d21_xpro_winc1500/production/_ext/39655908/socket.o
 .text.registerSocketResolveCallback
                0x00000000        0xc build/sam_d21_xpro_winc1500/production/_ext/39655908/socket.o
 .text.bind     0x00000000       0x80 build/sam_d21_xpro_winc1500/production/_ext/39655908/socket.o
 .text.listen   0x00000000       0x54 build/sam_d21_xpro_winc1500/production/_ext/39655908/socket.o
 .text.accept   0x00000000       0x24 build/sam_d21_xpro_winc1500/production/_ext/39655908/socket.o
 .text.sendto   0x00000000       0xac build/sam_d21_xpro_winc1500/production/_ext/39655908/socket.o
 .text.recvfrom
                0x00000000       0x98 build/sam_d21_xpro_winc1500/production/_ext/39655908/socket.o
 .text.setsockopt
                0x00000000      0x178 build/sam_d21_xpro_winc1500/production/_ext/39655908/socket.o
 .text.getsockopt
                0x00000000        0x4 build/sam_d21_xpro_winc1500/production/_ext/39655908/socket.o
 .text.m2m_ping_req
                0x00000000       0x3c build/sam_d21_xpro_winc1500/production/_ext/39655908/socket.o
 .text.sslEnableCertExpirationCheck
                0x00000000       0x1e build/sam_d21_xpro_winc1500/production/_ext/39655908/socket.o
 .text.IsSocketReady
                0x00000000        0xc build/sam_d21_xpro_winc1500/production/_ext/39655908/socket.o
 .text          0x00000000        0x0 build/sam_d21_xpro_winc1500/production/_ext/39655908/inet_ntop.o
 .data          0x00000000        0x0 build/sam_d21_xpro_winc1500/production/_ext/39655908/inet_ntop.o
 .bss           0x00000000        0x0 build/sam_d21_xpro_winc1500/production/_ext/39655908/inet_ntop.o
 .text.inet_ntop
                0x00000000       0xc6 build/sam_d21_xpro_winc1500/production/_ext/39655908/inet_ntop.o
 .debug_info    0x00000000     0x110c build/sam_d21_xpro_winc1500/production/_ext/39655908/inet_ntop.o
 .debug_abbrev  0x00000000      0x1d6 build/sam_d21_xpro_winc1500/production/_ext/39655908/inet_ntop.o
 .debug_loc     0x00000000      0x345 build/sam_d21_xpro_winc1500/production/_ext/39655908/inet_ntop.o
 .debug_aranges
                0x00000000       0x20 build/sam_d21_xpro_winc1500/production/_ext/39655908/inet_ntop.o
 .debug_ranges  0x00000000       0x10 build/sam_d21_xpro_winc1500/production/_ext/39655908/inet_ntop.o
 .debug_line    0x00000000      0x379 build/sam_d21_xpro_winc1500/production/_ext/39655908/inet_ntop.o
 .debug_str     0x00000000        0xe build/sam_d21_xpro_winc1500/production/_ext/39655908/inet_ntop.o
 .comment       0x00000000       0x3d build/sam_d21_xpro_winc1500/production/_ext/39655908/inet_ntop.o
 .debug_frame   0x00000000       0x3c build/sam_d21_xpro_winc1500/production/_ext/39655908/inet_ntop.o
 .ARM.attributes
                0x00000000       0x32 build/sam_d21_xpro_winc1500/production/_ext/39655908/inet_ntop.o
 .text          0x00000000        0x0 build/sam_d21_xpro_winc1500/production/_ext/39655908/inet_addr.o
 .data          0x00000000        0x0 build/sam_d21_xpro_winc1500/production/_ext/39655908/inet_addr.o
 .bss           0x00000000        0x0 build/sam_d21_xpro_winc1500/production/_ext/39655908/inet_addr.o
 .text.inet_addr
                0x00000000       0xc8 build/sam_d21_xpro_winc1500/production/_ext/39655908/inet_addr.o
 .debug_info    0x00000000     0x10ae build/sam_d21_xpro_winc1500/production/_ext/39655908/inet_addr.o
 .debug_abbrev  0x00000000      0x1d1 build/sam_d21_xpro_winc1500/production/_ext/39655908/inet_addr.o
 .debug_loc     0x00000000      0x275 build/sam_d21_xpro_winc1500/production/_ext/39655908/inet_addr.o
 .debug_aranges
                0x00000000       0x20 build/sam_d21_xpro_winc1500/production/_ext/39655908/inet_addr.o
 .debug_ranges  0x00000000       0x10 build/sam_d21_xpro_winc1500/production/_ext/39655908/inet_addr.o
 .debug_line    0x00000000      0x344 build/sam_d21_xpro_winc1500/production/_ext/39655908/inet_addr.o
 .debug_str     0x00000000        0xe build/sam_d21_xpro_winc1500/production/_ext/39655908/inet_addr.o
 .comment       0x00000000       0x3d build/sam_d21_xpro_winc1500/production/_ext/39655908/inet_addr.o
 .debug_frame   0x00000000       0x34 build/sam_d21_xpro_winc1500/production/_ext/39655908/inet_addr.o
 .ARM.attributes
                0x00000000       0x32 build/sam_d21_xpro_winc1500/production/_ext/39655908/inet_addr.o
 .text          0x00000000        0x0 build/sam_d21_xpro_winc1500/production/_ext/1360937237/main.o
 .data          0x00000000        0x0 build/sam_d21_xpro_winc1500/production/_ext/1360937237/main.o
 .bss           0x00000000        0x0 build/sam_d21_xpro_winc1500/production/_ext/1360937237/main.o
 .text          0x00000000        0x0 build/sam_d21_xpro_winc1500/production/_ext/281389274/initialization.o
 .data          0x00000000        0x0 build/sam_d21_xpro_winc1500/production/_ext/281389274/initialization.o
 .bss           0x00000000        0x0 build/sam_d21_xpro_winc1500/production/_ext/281389274/initialization.o
 .text          0x00000000        0x0 build/sam_d21_xpro_winc1500/production/_ext/281389274/interrupts.o
 .data          0x00000000        0x0 build/sam_d21_xpro_winc1500/production/_ext/281389274/interrupts.o
 .bss           0x00000000        0x0 build/sam_d21_xpro_winc1500/production/_ext/281389274/interrupts.o
 .text          0x00000000        0x0 build/sam_d21_xpro_winc1500/production/_ext/281389274/exceptions.o
 .data          0x00000000        0x0 build/sam_d21_xpro_winc1500/production/_ext/281389274/exceptions.o
 .bss           0x00000000        0x0 build/sam_d21_xpro_winc1500/production/_ext/281389274/exceptions.o
 .text          0x00000000        0x0 build/sam_d21_xpro_winc1500/production/_ext/1966573984/xc32_monitor.o
 .data          0x00000000        0x0 build/sam_d21_xpro_winc1500/production/_ext/1966573984/xc32_monitor.o
 .bss           0x00000000        0x0 build/sam_d21_xpro_winc1500/production/_ext/1966573984/xc32_monitor.o
 .text._mon_getc
                0x00000000        0x4 build/sam_d21_xpro_winc1500/production/_ext/1966573984/xc32_monitor.o
 .text._mon_putc
                0x00000000        0x2 build/sam_d21_xpro_winc1500/production/_ext/1966573984/xc32_monitor.o
 .debug_info    0x00000000      0x258 build/sam_d21_xpro_winc1500/production/_ext/1966573984/xc32_monitor.o
 .debug_abbrev  0x00000000       0x75 build/sam_d21_xpro_winc1500/production/_ext/1966573984/xc32_monitor.o
 .debug_loc     0x00000000       0x21 build/sam_d21_xpro_winc1500/production/_ext/1966573984/xc32_monitor.o
 .debug_aranges
                0x00000000       0x28 build/sam_d21_xpro_winc1500/production/_ext/1966573984/xc32_monitor.o
 .debug_ranges  0x00000000       0x18 build/sam_d21_xpro_winc1500/production/_ext/1966573984/xc32_monitor.o
 .debug_line    0x00000000       0x79 build/sam_d21_xpro_winc1500/production/_ext/1966573984/xc32_monitor.o
 .debug_str     0x00000000        0x0 build/sam_d21_xpro_winc1500/production/_ext/1966573984/xc32_monitor.o
 .comment       0x00000000       0x3d build/sam_d21_xpro_winc1500/production/_ext/1966573984/xc32_monitor.o
 .debug_frame   0x00000000       0x30 build/sam_d21_xpro_winc1500/production/_ext/1966573984/xc32_monitor.o
 .ARM.attributes
                0x00000000       0x32 build/sam_d21_xpro_winc1500/production/_ext/1966573984/xc32_monitor.o
 .text          0x00000000        0x0 build/sam_d21_xpro_winc1500/production/_ext/215775307/plib_port.o
 .data          0x00000000        0x0 build/sam_d21_xpro_winc1500/production/_ext/215775307/plib_port.o
 .bss           0x00000000        0x0 build/sam_d21_xpro_winc1500/production/_ext/215775307/plib_port.o
 .text.PORT_GroupRead
                0x00000000        0x4 build/sam_d21_xpro_winc1500/production/_ext/215775307/plib_port.o
 .text.PORT_GroupLatchRead
                0x00000000        0x4 build/sam_d21_xpro_winc1500/production/_ext/215775307/plib_port.o
 .text.PORT_GroupSet
                0x00000000        0x4 build/sam_d21_xpro_winc1500/production/_ext/215775307/plib_port.o
 .text.PORT_GroupClear
                0x00000000        0x4 build/sam_d21_xpro_winc1500/production/_ext/215775307/plib_port.o
 .text.PORT_GroupToggle
                0x00000000        0x4 build/sam_d21_xpro_winc1500/production/_ext/215775307/plib_port.o
 .text.PORT_GroupInputEnable
                0x00000000        0x4 build/sam_d21_xpro_winc1500/production/_ext/215775307/plib_port.o
 .text.PORT_GroupOutputEnable
                0x00000000        0x4 build/sam_d21_xpro_winc1500/production/_ext/215775307/plib_port.o
 .text          0x00000000        0x0 build/sam_d21_xpro_winc1500/production/_ext/1912998524/plib_clock.o
 .data          0x00000000        0x0 build/sam_d21_xpro_winc1500/production/_ext/1912998524/plib_clock.o
 .bss           0x00000000        0x0 build/sam_d21_xpro_winc1500/production/_ext/1912998524/plib_clock.o
 .text          0x00000000        0x0 build/sam_d21_xpro_winc1500/production/_ext/215722156/plib_nvic.o
 .data          0x00000000        0x0 build/sam_d21_xpro_winc1500/production/_ext/215722156/plib_nvic.o
 .bss           0x00000000        0x0 build/sam_d21_xpro_winc1500/production/_ext/215722156/plib_nvic.o
 .text          0x00000000        0x0 build/sam_d21_xpro_winc1500/production/_ext/215415349/plib_dmac.o
 .data          0x00000000        0x0 build/sam_d21_xpro_winc1500/production/_ext/215415349/plib_dmac.o
 .bss           0x00000000        0x0 build/sam_d21_xpro_winc1500/production/_ext/215415349/plib_dmac.o
 .text.DMAC_ChannelIsBusy
                0x00000000       0x14 build/sam_d21_xpro_winc1500/production/_ext/215415349/plib_dmac.o
 .text.DMAC_ChannelDisable
                0x00000000       0x28 build/sam_d21_xpro_winc1500/production/_ext/215415349/plib_dmac.o
 .text          0x00000000        0x0 build/sam_d21_xpro_winc1500/production/_ext/281389274/startup_xc32.o
 .data          0x00000000        0x0 build/sam_d21_xpro_winc1500/production/_ext/281389274/startup_xc32.o
 .bss           0x00000000        0x0 build/sam_d21_xpro_winc1500/production/_ext/281389274/startup_xc32.o
 .text          0x00000000        0x0 build/sam_d21_xpro_winc1500/production/_ext/281389274/libc_syscalls.o
 .data          0x00000000        0x0 build/sam_d21_xpro_winc1500/production/_ext/281389274/libc_syscalls.o
 .bss           0x00000000        0x0 build/sam_d21_xpro_winc1500/production/_ext/281389274/libc_syscalls.o
 .text._exit    0x00000000        0x2 build/sam_d21_xpro_winc1500/production/_ext/281389274/libc_syscalls.o
 .debug_info    0x00000000      0xe35 build/sam_d21_xpro_winc1500/production/_ext/281389274/libc_syscalls.o
 .debug_abbrev  0x00000000      0x1a1 build/sam_d21_xpro_winc1500/production/_ext/281389274/libc_syscalls.o
 .debug_aranges
                0x00000000       0x20 build/sam_d21_xpro_winc1500/production/_ext/281389274/libc_syscalls.o
 .debug_ranges  0x00000000       0x10 build/sam_d21_xpro_winc1500/production/_ext/281389274/libc_syscalls.o
 .debug_line    0x00000000      0x15d build/sam_d21_xpro_winc1500/production/_ext/281389274/libc_syscalls.o
 .debug_str     0x00000000        0xe build/sam_d21_xpro_winc1500/production/_ext/281389274/libc_syscalls.o
 .comment       0x00000000       0x3d build/sam_d21_xpro_winc1500/production/_ext/281389274/libc_syscalls.o
 .debug_frame   0x00000000       0x20 build/sam_d21_xpro_winc1500/production/_ext/281389274/libc_syscalls.o
 .ARM.attributes
                0x00000000       0x32 build/sam_d21_xpro_winc1500/production/_ext/281389274/libc_syscalls.o
 .text          0x00000000        0x0 build/sam_d21_xpro_winc1500/production/_ext/1101428939/plib_eic.o
 .data          0x00000000        0x0 build/sam_d21_xpro_winc1500/production/_ext/1101428939/plib_eic.o
 .bss           0x00000000        0x0 build/sam_d21_xpro_winc1500/production/_ext/1101428939/plib_eic.o
 .text.EIC_InterruptEnable
                0x00000000       0x10 build/sam_d21_xpro_winc1500/production/_ext/1101428939/plib_eic.o
 .text.EIC_InterruptDisable
                0x00000000       0x10 build/sam_d21_xpro_winc1500/production/_ext/1101428939/plib_eic.o
 .text.EIC_CallbackRegister
                0x00000000       0x28 build/sam_d21_xpro_winc1500/production/_ext/1101428939/plib_eic.o
 .text          0x00000000        0x0 build/sam_d21_xpro_winc1500/production/_ext/1143908167/plib_tc3.o
 .data          0x00000000        0x0 build/sam_d21_xpro_winc1500/production/_ext/1143908167/plib_tc3.o
 .bss           0x00000000        0x0 build/sam_d21_xpro_winc1500/production/_ext/1143908167/plib_tc3.o
 .text.TC3_Timer16bitCounterSet
                0x00000000       0x14 build/sam_d21_xpro_winc1500/production/_ext/1143908167/plib_tc3.o
 .text.TC3_Timer16bitPeriodGet
                0x00000000       0x20 build/sam_d21_xpro_winc1500/production/_ext/1143908167/plib_tc3.o
 .text          0x00000000        0x0 build/sam_d21_xpro_winc1500/production/_ext/1751631207/sys_time.o
 .data          0x00000000        0x0 build/sam_d21_xpro_winc1500/production/_ext/1751631207/sys_time.o
 .bss           0x00000000        0x0 build/sam_d21_xpro_winc1500/production/_ext/1751631207/sys_time.o
 .text.SYS_TIME_Deinitialize
                0x00000000       0x30 build/sam_d21_xpro_winc1500/production/_ext/1751631207/sys_time.o
 .text.SYS_TIME_Status
                0x00000000       0x18 build/sam_d21_xpro_winc1500/production/_ext/1751631207/sys_time.o
 .text.SYS_TIME_FrequencyGet
                0x00000000        0xc build/sam_d21_xpro_winc1500/production/_ext/1751631207/sys_time.o
 .text.SYS_TIME_Counter64Get
                0x00000000       0x50 build/sam_d21_xpro_winc1500/production/_ext/1751631207/sys_time.o
 .text.SYS_TIME_CounterGet
                0x00000000        0x8 build/sam_d21_xpro_winc1500/production/_ext/1751631207/sys_time.o
 .text.SYS_TIME_CounterSet
                0x00000000       0x20 build/sam_d21_xpro_winc1500/production/_ext/1751631207/sys_time.o
 .text.SYS_TIME_CountToUS
                0x00000000       0x34 build/sam_d21_xpro_winc1500/production/_ext/1751631207/sys_time.o
 .text.SYS_TIME_CountToMS
                0x00000000       0x34 build/sam_d21_xpro_winc1500/production/_ext/1751631207/sys_time.o
 .text.SYS_TIME_USToCount
                0x00000000       0x38 build/sam_d21_xpro_winc1500/production/_ext/1751631207/sys_time.o
 .text.SYS_TIME_TimerCreate
                0x00000000       0x20 build/sam_d21_xpro_winc1500/production/_ext/1751631207/sys_time.o
 .text.SYS_TIME_TimerReload
                0x00000000       0x9c build/sam_d21_xpro_winc1500/production/_ext/1751631207/sys_time.o
 .text.SYS_TIME_TimerStop
                0x00000000       0x3e build/sam_d21_xpro_winc1500/production/_ext/1751631207/sys_time.o
 .text.SYS_TIME_TimerCounterGet
                0x00000000       0x84 build/sam_d21_xpro_winc1500/production/_ext/1751631207/sys_time.o
 .text.SYS_TIME_DelayUS
                0x00000000       0x3a build/sam_d21_xpro_winc1500/production/_ext/1751631207/sys_time.o
 .text.SYS_TIME_CallbackRegisterUS
                0x00000000       0x44 build/sam_d21_xpro_winc1500/production/_ext/1751631207/sys_time.o
 .text.SYS_TIME_CallbackRegisterMS
                0x00000000       0x44 build/sam_d21_xpro_winc1500/production/_ext/1751631207/sys_time.o
 .text          0x00000000        0x0 build/sam_d21_xpro_winc1500/production/_ext/2114417963/sys_console.o
 .data          0x00000000        0x0 build/sam_d21_xpro_winc1500/production/_ext/2114417963/sys_console.o
 .bss           0x00000000        0x0 build/sam_d21_xpro_winc1500/production/_ext/2114417963/sys_console.o
 .text.SYS_CONSOLE_Status
                0x00000000       0x58 build/sam_d21_xpro_winc1500/production/_ext/2114417963/sys_console.o
 .text.SYS_CONSOLE_Tasks
                0x00000000       0x2c build/sam_d21_xpro_winc1500/production/_ext/2114417963/sys_console.o
 .text.SYS_CONSOLE_Read
                0x00000000       0x40 build/sam_d21_xpro_winc1500/production/_ext/2114417963/sys_console.o
 .text.SYS_CONSOLE_RegisterCallback
                0x00000000       0x28 build/sam_d21_xpro_winc1500/production/_ext/2114417963/sys_console.o
 .text.SYS_CONSOLE_Flush
                0x00000000       0x28 build/sam_d21_xpro_winc1500/production/_ext/2114417963/sys_console.o
 .text          0x00000000        0x0 build/sam_d21_xpro_winc1500/production/_ext/2114417963/sys_console_uart.o
 .data          0x00000000        0x0 build/sam_d21_xpro_winc1500/production/_ext/2114417963/sys_console_uart.o
 .bss           0x00000000        0x0 build/sam_d21_xpro_winc1500/production/_ext/2114417963/sys_console_uart.o
 .text          0x00000000        0x0 build/sam_d21_xpro_winc1500/production/_ext/2114417963/sys_debug.o
 .data          0x00000000        0x0 build/sam_d21_xpro_winc1500/production/_ext/2114417963/sys_debug.o
 .bss           0x00000000        0x0 build/sam_d21_xpro_winc1500/production/_ext/2114417963/sys_debug.o
 .text.SYS_DEBUG_Tasks
                0x00000000        0x2 build/sam_d21_xpro_winc1500/production/_ext/2114417963/sys_debug.o
 .text.SYS_DEBUG_Status
                0x00000000        0xc build/sam_d21_xpro_winc1500/production/_ext/2114417963/sys_debug.o
 .text.SYS_DEBUG_Message
                0x00000000       0x1c build/sam_d21_xpro_winc1500/production/_ext/2114417963/sys_debug.o
 .text.SYS_DEBUG_ErrorLevelSet
                0x00000000        0xc build/sam_d21_xpro_winc1500/production/_ext/2114417963/sys_debug.o
 .text.SYS_DEBUG_ErrorLevelGet
                0x00000000        0xc build/sam_d21_xpro_winc1500/production/_ext/2114417963/sys_debug.o
 .text          0x00000000        0x0 build/sam_d21_xpro_winc1500/production/_ext/1062439459/drv_spi.o
 .data          0x00000000        0x0 build/sam_d21_xpro_winc1500/production/_ext/1062439459/drv_spi.o
 .bss           0x00000000        0x0 build/sam_d21_xpro_winc1500/production/_ext/1062439459/drv_spi.o
 .text.DRV_SPI_Status
                0x00000000       0x14 build/sam_d21_xpro_winc1500/production/_ext/1062439459/drv_spi.o
 .text.DRV_SPI_Close
                0x00000000       0xa0 build/sam_d21_xpro_winc1500/production/_ext/1062439459/drv_spi.o
 .text.DRV_SPI_TransferSetup
                0x00000000       0x98 build/sam_d21_xpro_winc1500/production/_ext/1062439459/drv_spi.o
 .text.DRV_SPI_ReadTransferAdd
                0x00000000       0x16 build/sam_d21_xpro_winc1500/production/_ext/1062439459/drv_spi.o
 .text.DRV_SPI_TransferStatusGet
                0x00000000       0x40 build/sam_d21_xpro_winc1500/production/_ext/1062439459/drv_spi.o
 .text          0x00000000        0x0 build/sam_d21_xpro_winc1500/production/_ext/720072173/sys_int.o
 .data          0x00000000        0x0 build/sam_d21_xpro_winc1500/production/_ext/720072173/sys_int.o
 .bss           0x00000000        0x0 build/sam_d21_xpro_winc1500/production/_ext/720072173/sys_int.o
 .text.SYS_INT_Enable
                0x00000000        0x8 build/sam_d21_xpro_winc1500/production/_ext/720072173/sys_int.o
 .text          0x00000000        0x0 build/sam_d21_xpro_winc1500/production/_ext/676678561/sys_dma.o
 .data          0x00000000        0x0 build/sam_d21_xpro_winc1500/production/_ext/676678561/sys_dma.o
 .bss           0x00000000        0x0 build/sam_d21_xpro_winc1500/production/_ext/676678561/sys_dma.o
 .text          0x00000000        0x0 build/sam_d21_xpro_winc1500/production/_ext/1360937237/app.o
 .data          0x00000000        0x0 build/sam_d21_xpro_winc1500/production/_ext/1360937237/app.o
 .bss           0x00000000        0x0 build/sam_d21_xpro_winc1500/production/_ext/1360937237/app.o
 .text          0x00000000        0x0 build/sam_d21_xpro_winc1500/production/_ext/281389274/tasks.o
 .data          0x00000000        0x0 build/sam_d21_xpro_winc1500/production/_ext/281389274/tasks.o
 .bss           0x00000000        0x0 build/sam_d21_xpro_winc1500/production/_ext/281389274/tasks.o
 .text          0x00000000        0x0 c:/program files (x86)/microchip/xc32/v2.15/bin/bin/../../lib/gcc/pic32c/6.2.1/../../../../pic32c/lib\libpic32c.a(data_init.o)
 .data          0x00000000        0x0 c:/program files (x86)/microchip/xc32/v2.15/bin/bin/../../lib/gcc/pic32c/6.2.1/../../../../pic32c/lib\libpic32c.a(data_init.o)
 .bss           0x00000000        0x0 c:/program files (x86)/microchip/xc32/v2.15/bin/bin/../../lib/gcc/pic32c/6.2.1/../../../../pic32c/lib\libpic32c.a(data_init.o)
 .data          0x00000000        0x0 c:/program files (x86)/microchip/xc32/v2.15/bin/bin/../../lib/gcc/pic32c/6.2.1\libgcc.a(_udivsi3.o)
 .bss           0x00000000        0x0 c:/program files (x86)/microchip/xc32/v2.15/bin/bin/../../lib/gcc/pic32c/6.2.1\libgcc.a(_udivsi3.o)
 .data          0x00000000        0x0 c:/program files (x86)/microchip/xc32/v2.15/bin/bin/../../lib/gcc/pic32c/6.2.1\libgcc.a(_divsi3.o)
 .bss           0x00000000        0x0 c:/program files (x86)/microchip/xc32/v2.15/bin/bin/../../lib/gcc/pic32c/6.2.1\libgcc.a(_divsi3.o)
 .data          0x00000000        0x0 c:/program files (x86)/microchip/xc32/v2.15/bin/bin/../../lib/gcc/pic32c/6.2.1\libgcc.a(_dvmd_tls.o)
 .bss           0x00000000        0x0 c:/program files (x86)/microchip/xc32/v2.15/bin/bin/../../lib/gcc/pic32c/6.2.1\libgcc.a(_dvmd_tls.o)
 .data          0x00000000        0x0 c:/program files (x86)/microchip/xc32/v2.15/bin/bin/../../lib/gcc/pic32c/6.2.1\libgcc.a(_aeabi_uldivmod.o)
 .bss           0x00000000        0x0 c:/program files (x86)/microchip/xc32/v2.15/bin/bin/../../lib/gcc/pic32c/6.2.1\libgcc.a(_aeabi_uldivmod.o)
 .text          0x00000000       0x54 c:/program files (x86)/microchip/xc32/v2.15/bin/bin/../../lib/gcc/pic32c/6.2.1\libgcc.a(_muldi3.o)
 .data          0x00000000        0x0 c:/program files (x86)/microchip/xc32/v2.15/bin/bin/../../lib/gcc/pic32c/6.2.1\libgcc.a(_muldi3.o)
 .bss           0x00000000        0x0 c:/program files (x86)/microchip/xc32/v2.15/bin/bin/../../lib/gcc/pic32c/6.2.1\libgcc.a(_muldi3.o)
 .debug_info    0x00000000     0x1fdc c:/program files (x86)/microchip/xc32/v2.15/bin/bin/../../lib/gcc/pic32c/6.2.1\libgcc.a(_muldi3.o)
 .debug_abbrev  0x00000000      0x205 c:/program files (x86)/microchip/xc32/v2.15/bin/bin/../../lib/gcc/pic32c/6.2.1\libgcc.a(_muldi3.o)
 .debug_loc     0x00000000      0x1c8 c:/program files (x86)/microchip/xc32/v2.15/bin/bin/../../lib/gcc/pic32c/6.2.1\libgcc.a(_muldi3.o)
 .debug_aranges
                0x00000000       0x20 c:/program files (x86)/microchip/xc32/v2.15/bin/bin/../../lib/gcc/pic32c/6.2.1\libgcc.a(_muldi3.o)
 .debug_ranges  0x00000000       0x28 c:/program files (x86)/microchip/xc32/v2.15/bin/bin/../../lib/gcc/pic32c/6.2.1\libgcc.a(_muldi3.o)
 .debug_line    0x00000000      0x463 c:/program files (x86)/microchip/xc32/v2.15/bin/bin/../../lib/gcc/pic32c/6.2.1\libgcc.a(_muldi3.o)
 .debug_str     0x00000000        0xe c:/program files (x86)/microchip/xc32/v2.15/bin/bin/../../lib/gcc/pic32c/6.2.1\libgcc.a(_muldi3.o)
 .comment       0x00000000       0x3d c:/program files (x86)/microchip/xc32/v2.15/bin/bin/../../lib/gcc/pic32c/6.2.1\libgcc.a(_muldi3.o)
 .debug_frame   0x00000000       0x34 c:/program files (x86)/microchip/xc32/v2.15/bin/bin/../../lib/gcc/pic32c/6.2.1\libgcc.a(_muldi3.o)
 .ARM.attributes
                0x00000000       0x2c c:/program files (x86)/microchip/xc32/v2.15/bin/bin/../../lib/gcc/pic32c/6.2.1\libgcc.a(_muldi3.o)
 .data          0x00000000        0x0 c:/program files (x86)/microchip/xc32/v2.15/bin/bin/../../lib/gcc/pic32c/6.2.1\libgcc.a(_fixunsdfsi.o)
 .bss           0x00000000        0x0 c:/program files (x86)/microchip/xc32/v2.15/bin/bin/../../lib/gcc/pic32c/6.2.1\libgcc.a(_fixunsdfsi.o)
 .data          0x00000000        0x0 c:/program files (x86)/microchip/xc32/v2.15/bin/bin/../../lib/gcc/pic32c/6.2.1\libgcc.a(_udivmoddi4.o)
 .bss           0x00000000        0x0 c:/program files (x86)/microchip/xc32/v2.15/bin/bin/../../lib/gcc/pic32c/6.2.1\libgcc.a(_udivmoddi4.o)
 .ARM.extab     0x00000000        0x0 c:/program files (x86)/microchip/xc32/v2.15/bin/bin/../../lib/gcc/pic32c/6.2.1\libgcc.a(_udivmoddi4.o)
 .data          0x00000000        0x0 c:/program files (x86)/microchip/xc32/v2.15/bin/bin/../../lib/gcc/pic32c/6.2.1\libgcc.a(mulsf3.o)
 .bss           0x00000000        0x0 c:/program files (x86)/microchip/xc32/v2.15/bin/bin/../../lib/gcc/pic32c/6.2.1\libgcc.a(mulsf3.o)
 .data          0x00000000        0x0 c:/program files (x86)/microchip/xc32/v2.15/bin/bin/../../lib/gcc/pic32c/6.2.1\libgcc.a(floatunsisf.o)
 .bss           0x00000000        0x0 c:/program files (x86)/microchip/xc32/v2.15/bin/bin/../../lib/gcc/pic32c/6.2.1\libgcc.a(floatunsisf.o)
 .data          0x00000000        0x0 c:/program files (x86)/microchip/xc32/v2.15/bin/bin/../../lib/gcc/pic32c/6.2.1\libgcc.a(divdf3.o)
 .bss           0x00000000        0x0 c:/program files (x86)/microchip/xc32/v2.15/bin/bin/../../lib/gcc/pic32c/6.2.1\libgcc.a(divdf3.o)
 .data          0x00000000        0x0 c:/program files (x86)/microchip/xc32/v2.15/bin/bin/../../lib/gcc/pic32c/6.2.1\libgcc.a(muldf3.o)
 .bss           0x00000000        0x0 c:/program files (x86)/microchip/xc32/v2.15/bin/bin/../../lib/gcc/pic32c/6.2.1\libgcc.a(muldf3.o)
 .data          0x00000000        0x0 c:/program files (x86)/microchip/xc32/v2.15/bin/bin/../../lib/gcc/pic32c/6.2.1\libgcc.a(subdf3.o)
 .bss           0x00000000        0x0 c:/program files (x86)/microchip/xc32/v2.15/bin/bin/../../lib/gcc/pic32c/6.2.1\libgcc.a(subdf3.o)
 .data          0x00000000        0x0 c:/program files (x86)/microchip/xc32/v2.15/bin/bin/../../lib/gcc/pic32c/6.2.1\libgcc.a(fixdfsi.o)
 .bss           0x00000000        0x0 c:/program files (x86)/microchip/xc32/v2.15/bin/bin/../../lib/gcc/pic32c/6.2.1\libgcc.a(fixdfsi.o)
 .data          0x00000000        0x0 c:/program files (x86)/microchip/xc32/v2.15/bin/bin/../../lib/gcc/pic32c/6.2.1\libgcc.a(floatunsidf.o)
 .bss           0x00000000        0x0 c:/program files (x86)/microchip/xc32/v2.15/bin/bin/../../lib/gcc/pic32c/6.2.1\libgcc.a(floatunsidf.o)
 .data          0x00000000        0x0 c:/program files (x86)/microchip/xc32/v2.15/bin/bin/../../lib/gcc/pic32c/6.2.1\libgcc.a(extendsfdf2.o)
 .bss           0x00000000        0x0 c:/program files (x86)/microchip/xc32/v2.15/bin/bin/../../lib/gcc/pic32c/6.2.1\libgcc.a(extendsfdf2.o)
 .data          0x00000000        0x0 c:/program files (x86)/microchip/xc32/v2.15/bin/bin/../../lib/gcc/pic32c/6.2.1\libgcc.a(_arm_cmpdf2.o)
 .bss           0x00000000        0x0 c:/program files (x86)/microchip/xc32/v2.15/bin/bin/../../lib/gcc/pic32c/6.2.1\libgcc.a(_arm_cmpdf2.o)
 .data          0x00000000        0x0 c:/program files (x86)/microchip/xc32/v2.15/bin/bin/../../lib/gcc/pic32c/6.2.1\libgcc.a(_clzsi2.o)
 .bss           0x00000000        0x0 c:/program files (x86)/microchip/xc32/v2.15/bin/bin/../../lib/gcc/pic32c/6.2.1\libgcc.a(_clzsi2.o)
 .data          0x00000000        0x0 c:/program files (x86)/microchip/xc32/v2.15/bin/bin/../../lib/gcc/pic32c/6.2.1\libgcc.a(_clzdi2.o)
 .bss           0x00000000        0x0 c:/program files (x86)/microchip/xc32/v2.15/bin/bin/../../lib/gcc/pic32c/6.2.1\libgcc.a(_clzdi2.o)
 .data          0x00000000        0x0 c:/program files (x86)/microchip/xc32/v2.15/bin/bin/../../lib/gcc/pic32c/6.2.1\libgcc.a(eqdf2.o)
 .bss           0x00000000        0x0 c:/program files (x86)/microchip/xc32/v2.15/bin/bin/../../lib/gcc/pic32c/6.2.1\libgcc.a(eqdf2.o)
 .data          0x00000000        0x0 c:/program files (x86)/microchip/xc32/v2.15/bin/bin/../../lib/gcc/pic32c/6.2.1\libgcc.a(gedf2.o)
 .bss           0x00000000        0x0 c:/program files (x86)/microchip/xc32/v2.15/bin/bin/../../lib/gcc/pic32c/6.2.1\libgcc.a(gedf2.o)
 .data          0x00000000        0x0 c:/program files (x86)/microchip/xc32/v2.15/bin/bin/../../lib/gcc/pic32c/6.2.1\libgcc.a(ledf2.o)
 .bss           0x00000000        0x0 c:/program files (x86)/microchip/xc32/v2.15/bin/bin/../../lib/gcc/pic32c/6.2.1\libgcc.a(ledf2.o)
 .text          0x00000000        0x0 c:/program files (x86)/microchip/xc32/v2.15/bin/bin/../../lib/gcc/pic32c/6.2.1/../../../../pic32c/lib\libc.a(lib_a-exit.o)
 .data          0x00000000        0x0 c:/program files (x86)/microchip/xc32/v2.15/bin/bin/../../lib/gcc/pic32c/6.2.1/../../../../pic32c/lib\libc.a(lib_a-exit.o)
 .bss           0x00000000        0x0 c:/program files (x86)/microchip/xc32/v2.15/bin/bin/../../lib/gcc/pic32c/6.2.1/../../../../pic32c/lib\libc.a(lib_a-exit.o)
 .text.exit     0x00000000       0x20 c:/program files (x86)/microchip/xc32/v2.15/bin/bin/../../lib/gcc/pic32c/6.2.1/../../../../pic32c/lib\libc.a(lib_a-exit.o)
 .debug_info    0x00000000      0xe0a c:/program files (x86)/microchip/xc32/v2.15/bin/bin/../../lib/gcc/pic32c/6.2.1/../../../../pic32c/lib\libc.a(lib_a-exit.o)
 .debug_abbrev  0x00000000      0x1e9 c:/program files (x86)/microchip/xc32/v2.15/bin/bin/../../lib/gcc/pic32c/6.2.1/../../../../pic32c/lib\libc.a(lib_a-exit.o)
 .debug_loc     0x00000000       0x3e c:/program files (x86)/microchip/xc32/v2.15/bin/bin/../../lib/gcc/pic32c/6.2.1/../../../../pic32c/lib\libc.a(lib_a-exit.o)
 .debug_aranges
                0x00000000       0x20 c:/program files (x86)/microchip/xc32/v2.15/bin/bin/../../lib/gcc/pic32c/6.2.1/../../../../pic32c/lib\libc.a(lib_a-exit.o)
 .debug_ranges  0x00000000       0x10 c:/program files (x86)/microchip/xc32/v2.15/bin/bin/../../lib/gcc/pic32c/6.2.1/../../../../pic32c/lib\libc.a(lib_a-exit.o)
 .debug_line    0x00000000      0x258 c:/program files (x86)/microchip/xc32/v2.15/bin/bin/../../lib/gcc/pic32c/6.2.1/../../../../pic32c/lib\libc.a(lib_a-exit.o)
 .debug_str     0x00000000       0x1f c:/program files (x86)/microchip/xc32/v2.15/bin/bin/../../lib/gcc/pic32c/6.2.1/../../../../pic32c/lib\libc.a(lib_a-exit.o)
 .comment       0x00000000       0x3d c:/program files (x86)/microchip/xc32/v2.15/bin/bin/../../lib/gcc/pic32c/6.2.1/../../../../pic32c/lib\libc.a(lib_a-exit.o)
 .debug_frame   0x00000000       0x28 c:/program files (x86)/microchip/xc32/v2.15/bin/bin/../../lib/gcc/pic32c/6.2.1/../../../../pic32c/lib\libc.a(lib_a-exit.o)
 .ARM.attributes
                0x00000000       0x2c c:/program files (x86)/microchip/xc32/v2.15/bin/bin/../../lib/gcc/pic32c/6.2.1/../../../../pic32c/lib\libc.a(lib_a-exit.o)
 .text          0x00000000        0x0 c:/program files (x86)/microchip/xc32/v2.15/bin/bin/../../lib/gcc/pic32c/6.2.1/../../../../pic32c/lib\libc.a(lib_a-gmtime.o)
 .data          0x00000000        0x0 c:/program files (x86)/microchip/xc32/v2.15/bin/bin/../../lib/gcc/pic32c/6.2.1/../../../../pic32c/lib\libc.a(lib_a-gmtime.o)
 .bss           0x00000000        0x0 c:/program files (x86)/microchip/xc32/v2.15/bin/bin/../../lib/gcc/pic32c/6.2.1/../../../../pic32c/lib\libc.a(lib_a-gmtime.o)
 .text.gmtime   0x00000000       0x14 c:/program files (x86)/microchip/xc32/v2.15/bin/bin/../../lib/gcc/pic32c/6.2.1/../../../../pic32c/lib\libc.a(lib_a-gmtime.o)
 .debug_info    0x00000000      0xea1 c:/program files (x86)/microchip/xc32/v2.15/bin/bin/../../lib/gcc/pic32c/6.2.1/../../../../pic32c/lib\libc.a(lib_a-gmtime.o)
 .debug_abbrev  0x00000000      0x1d8 c:/program files (x86)/microchip/xc32/v2.15/bin/bin/../../lib/gcc/pic32c/6.2.1/../../../../pic32c/lib\libc.a(lib_a-gmtime.o)
 .debug_loc     0x00000000       0x55 c:/program files (x86)/microchip/xc32/v2.15/bin/bin/../../lib/gcc/pic32c/6.2.1/../../../../pic32c/lib\libc.a(lib_a-gmtime.o)
 .debug_aranges
                0x00000000       0x20 c:/program files (x86)/microchip/xc32/v2.15/bin/bin/../../lib/gcc/pic32c/6.2.1/../../../../pic32c/lib\libc.a(lib_a-gmtime.o)
 .debug_ranges  0x00000000       0x10 c:/program files (x86)/microchip/xc32/v2.15/bin/bin/../../lib/gcc/pic32c/6.2.1/../../../../pic32c/lib\libc.a(lib_a-gmtime.o)
 .debug_line    0x00000000      0x254 c:/program files (x86)/microchip/xc32/v2.15/bin/bin/../../lib/gcc/pic32c/6.2.1/../../../../pic32c/lib\libc.a(lib_a-gmtime.o)
 .debug_str     0x00000000       0x17 c:/program files (x86)/microchip/xc32/v2.15/bin/bin/../../lib/gcc/pic32c/6.2.1/../../../../pic32c/lib\libc.a(lib_a-gmtime.o)
 .comment       0x00000000       0x3d c:/program files (x86)/microchip/xc32/v2.15/bin/bin/../../lib/gcc/pic32c/6.2.1/../../../../pic32c/lib\libc.a(lib_a-gmtime.o)
 .debug_frame   0x00000000       0x28 c:/program files (x86)/microchip/xc32/v2.15/bin/bin/../../lib/gcc/pic32c/6.2.1/../../../../pic32c/lib\libc.a(lib_a-gmtime.o)
 .ARM.attributes
                0x00000000       0x2c c:/program files (x86)/microchip/xc32/v2.15/bin/bin/../../lib/gcc/pic32c/6.2.1/../../../../pic32c/lib\libc.a(lib_a-gmtime.o)
 .text          0x00000000        0x0 c:/program files (x86)/microchip/xc32/v2.15/bin/bin/../../lib/gcc/pic32c/6.2.1/../../../../pic32c/lib\libc.a(lib_a-gmtime_r.o)
 .data          0x00000000        0x0 c:/program files (x86)/microchip/xc32/v2.15/bin/bin/../../lib/gcc/pic32c/6.2.1/../../../../pic32c/lib\libc.a(lib_a-gmtime_r.o)
 .bss           0x00000000        0x0 c:/program files (x86)/microchip/xc32/v2.15/bin/bin/../../lib/gcc/pic32c/6.2.1/../../../../pic32c/lib\libc.a(lib_a-gmtime_r.o)
 .text.gmtime_r
                0x00000000      0x188 c:/program files (x86)/microchip/xc32/v2.15/bin/bin/../../lib/gcc/pic32c/6.2.1/../../../../pic32c/lib\libc.a(lib_a-gmtime_r.o)
 .debug_info    0x00000000      0xfd7 c:/program files (x86)/microchip/xc32/v2.15/bin/bin/../../lib/gcc/pic32c/6.2.1/../../../../pic32c/lib\libc.a(lib_a-gmtime_r.o)
 .debug_abbrev  0x00000000      0x1b1 c:/program files (x86)/microchip/xc32/v2.15/bin/bin/../../lib/gcc/pic32c/6.2.1/../../../../pic32c/lib\libc.a(lib_a-gmtime_r.o)
 .debug_loc     0x00000000      0x28b c:/program files (x86)/microchip/xc32/v2.15/bin/bin/../../lib/gcc/pic32c/6.2.1/../../../../pic32c/lib\libc.a(lib_a-gmtime_r.o)
 .debug_aranges
                0x00000000       0x20 c:/program files (x86)/microchip/xc32/v2.15/bin/bin/../../lib/gcc/pic32c/6.2.1/../../../../pic32c/lib\libc.a(lib_a-gmtime_r.o)
 .debug_ranges  0x00000000       0x10 c:/program files (x86)/microchip/xc32/v2.15/bin/bin/../../lib/gcc/pic32c/6.2.1/../../../../pic32c/lib\libc.a(lib_a-gmtime_r.o)
 .debug_line    0x00000000      0x29c c:/program files (x86)/microchip/xc32/v2.15/bin/bin/../../lib/gcc/pic32c/6.2.1/../../../../pic32c/lib\libc.a(lib_a-gmtime_r.o)
 .debug_str     0x00000000        0xe c:/program files (x86)/microchip/xc32/v2.15/bin/bin/../../lib/gcc/pic32c/6.2.1/../../../../pic32c/lib\libc.a(lib_a-gmtime_r.o)
 .comment       0x00000000       0x3d c:/program files (x86)/microchip/xc32/v2.15/bin/bin/../../lib/gcc/pic32c/6.2.1/../../../../pic32c/lib\libc.a(lib_a-gmtime_r.o)
 .debug_frame   0x00000000       0x38 c:/program files (x86)/microchip/xc32/v2.15/bin/bin/../../lib/gcc/pic32c/6.2.1/../../../../pic32c/lib\libc.a(lib_a-gmtime_r.o)
 .ARM.attributes
                0x00000000       0x2c c:/program files (x86)/microchip/xc32/v2.15/bin/bin/../../lib/gcc/pic32c/6.2.1/../../../../pic32c/lib\libc.a(lib_a-gmtime_r.o)
 .text          0x00000000        0x0 c:/program files (x86)/microchip/xc32/v2.15/bin/bin/../../lib/gcc/pic32c/6.2.1/../../../../pic32c/lib\libc.a(lib_a-impure.o)
 .data          0x00000000        0x0 c:/program files (x86)/microchip/xc32/v2.15/bin/bin/../../lib/gcc/pic32c/6.2.1/../../../../pic32c/lib\libc.a(lib_a-impure.o)
 .bss           0x00000000        0x0 c:/program files (x86)/microchip/xc32/v2.15/bin/bin/../../lib/gcc/pic32c/6.2.1/../../../../pic32c/lib\libc.a(lib_a-impure.o)
 .text          0x00000000        0x0 c:/program files (x86)/microchip/xc32/v2.15/bin/bin/../../lib/gcc/pic32c/6.2.1/../../../../pic32c/lib\libc.a(lib_a-init.o)
 .data          0x00000000        0x0 c:/program files (x86)/microchip/xc32/v2.15/bin/bin/../../lib/gcc/pic32c/6.2.1/../../../../pic32c/lib\libc.a(lib_a-init.o)
 .bss           0x00000000        0x0 c:/program files (x86)/microchip/xc32/v2.15/bin/bin/../../lib/gcc/pic32c/6.2.1/../../../../pic32c/lib\libc.a(lib_a-init.o)
 .text          0x00000000        0x0 c:/program files (x86)/microchip/xc32/v2.15/bin/bin/../../lib/gcc/pic32c/6.2.1/../../../../pic32c/lib\libc.a(lib_a-malloc.o)
 .data          0x00000000        0x0 c:/program files (x86)/microchip/xc32/v2.15/bin/bin/../../lib/gcc/pic32c/6.2.1/../../../../pic32c/lib\libc.a(lib_a-malloc.o)
 .bss           0x00000000        0x0 c:/program files (x86)/microchip/xc32/v2.15/bin/bin/../../lib/gcc/pic32c/6.2.1/../../../../pic32c/lib\libc.a(lib_a-malloc.o)
 .text          0x00000000        0x0 c:/program files (x86)/microchip/xc32/v2.15/bin/bin/../../lib/gcc/pic32c/6.2.1/../../../../pic32c/lib\libc.a(lib_a-mallocr.o)
 .data          0x00000000        0x0 c:/program files (x86)/microchip/xc32/v2.15/bin/bin/../../lib/gcc/pic32c/6.2.1/../../../../pic32c/lib\libc.a(lib_a-mallocr.o)
 .bss           0x00000000        0x0 c:/program files (x86)/microchip/xc32/v2.15/bin/bin/../../lib/gcc/pic32c/6.2.1/../../../../pic32c/lib\libc.a(lib_a-mallocr.o)
 .text          0x00000000        0x0 c:/program files (x86)/microchip/xc32/v2.15/bin/bin/../../lib/gcc/pic32c/6.2.1/../../../../pic32c/lib\libc.a(lib_a-memcpy-stub.o)
 .data          0x00000000        0x0 c:/program files (x86)/microchip/xc32/v2.15/bin/bin/../../lib/gcc/pic32c/6.2.1/../../../../pic32c/lib\libc.a(lib_a-memcpy-stub.o)
 .bss           0x00000000        0x0 c:/program files (x86)/microchip/xc32/v2.15/bin/bin/../../lib/gcc/pic32c/6.2.1/../../../../pic32c/lib\libc.a(lib_a-memcpy-stub.o)
 .text          0x00000000        0x0 c:/program files (x86)/microchip/xc32/v2.15/bin/bin/../../lib/gcc/pic32c/6.2.1/../../../../pic32c/lib\libc.a(lib_a-memset.o)
 .data          0x00000000        0x0 c:/program files (x86)/microchip/xc32/v2.15/bin/bin/../../lib/gcc/pic32c/6.2.1/../../../../pic32c/lib\libc.a(lib_a-memset.o)
 .bss           0x00000000        0x0 c:/program files (x86)/microchip/xc32/v2.15/bin/bin/../../lib/gcc/pic32c/6.2.1/../../../../pic32c/lib\libc.a(lib_a-memset.o)
 .text          0x00000000        0x0 c:/program files (x86)/microchip/xc32/v2.15/bin/bin/../../lib/gcc/pic32c/6.2.1/../../../../pic32c/lib\libc.a(lib_a-mktime.o)
 .data          0x00000000        0x0 c:/program files (x86)/microchip/xc32/v2.15/bin/bin/../../lib/gcc/pic32c/6.2.1/../../../../pic32c/lib\libc.a(lib_a-mktime.o)
 .bss           0x00000000        0x0 c:/program files (x86)/microchip/xc32/v2.15/bin/bin/../../lib/gcc/pic32c/6.2.1/../../../../pic32c/lib\libc.a(lib_a-mktime.o)
 .text.validate_structure
                0x00000000      0x1e4 c:/program files (x86)/microchip/xc32/v2.15/bin/bin/../../lib/gcc/pic32c/6.2.1/../../../../pic32c/lib\libc.a(lib_a-mktime.o)
 .text.mktime   0x00000000      0x380 c:/program files (x86)/microchip/xc32/v2.15/bin/bin/../../lib/gcc/pic32c/6.2.1/../../../../pic32c/lib\libc.a(lib_a-mktime.o)
 .rodata.DAYS_IN_MONTH
                0x00000000       0x30 c:/program files (x86)/microchip/xc32/v2.15/bin/bin/../../lib/gcc/pic32c/6.2.1/../../../../pic32c/lib\libc.a(lib_a-mktime.o)
 .rodata._DAYS_BEFORE_MONTH
                0x00000000       0x30 c:/program files (x86)/microchip/xc32/v2.15/bin/bin/../../lib/gcc/pic32c/6.2.1/../../../../pic32c/lib\libc.a(lib_a-mktime.o)
 .debug_info    0x00000000     0x1290 c:/program files (x86)/microchip/xc32/v2.15/bin/bin/../../lib/gcc/pic32c/6.2.1/../../../../pic32c/lib\libc.a(lib_a-mktime.o)
 .debug_abbrev  0x00000000      0x248 c:/program files (x86)/microchip/xc32/v2.15/bin/bin/../../lib/gcc/pic32c/6.2.1/../../../../pic32c/lib\libc.a(lib_a-mktime.o)
 .debug_loc     0x00000000      0x8e9 c:/program files (x86)/microchip/xc32/v2.15/bin/bin/../../lib/gcc/pic32c/6.2.1/../../../../pic32c/lib\libc.a(lib_a-mktime.o)
 .debug_aranges
                0x00000000       0x28 c:/program files (x86)/microchip/xc32/v2.15/bin/bin/../../lib/gcc/pic32c/6.2.1/../../../../pic32c/lib\libc.a(lib_a-mktime.o)
 .debug_ranges  0x00000000       0x80 c:/program files (x86)/microchip/xc32/v2.15/bin/bin/../../lib/gcc/pic32c/6.2.1/../../../../pic32c/lib\libc.a(lib_a-mktime.o)
 .debug_line    0x00000000      0x3d9 c:/program files (x86)/microchip/xc32/v2.15/bin/bin/../../lib/gcc/pic32c/6.2.1/../../../../pic32c/lib\libc.a(lib_a-mktime.o)
 .debug_str     0x00000000       0x59 c:/program files (x86)/microchip/xc32/v2.15/bin/bin/../../lib/gcc/pic32c/6.2.1/../../../../pic32c/lib\libc.a(lib_a-mktime.o)
 .comment       0x00000000       0x3d c:/program files (x86)/microchip/xc32/v2.15/bin/bin/../../lib/gcc/pic32c/6.2.1/../../../../pic32c/lib\libc.a(lib_a-mktime.o)
 .debug_frame   0x00000000       0x64 c:/program files (x86)/microchip/xc32/v2.15/bin/bin/../../lib/gcc/pic32c/6.2.1/../../../../pic32c/lib\libc.a(lib_a-mktime.o)
 .ARM.attributes
                0x00000000       0x2c c:/program files (x86)/microchip/xc32/v2.15/bin/bin/../../lib/gcc/pic32c/6.2.1/../../../../pic32c/lib\libc.a(lib_a-mktime.o)
 .text          0x00000000        0x0 c:/program files (x86)/microchip/xc32/v2.15/bin/bin/../../lib/gcc/pic32c/6.2.1/../../../../pic32c/lib\libc.a(lib_a-mlock.o)
 .data          0x00000000        0x0 c:/program files (x86)/microchip/xc32/v2.15/bin/bin/../../lib/gcc/pic32c/6.2.1/../../../../pic32c/lib\libc.a(lib_a-mlock.o)
 .bss           0x00000000        0x0 c:/program files (x86)/microchip/xc32/v2.15/bin/bin/../../lib/gcc/pic32c/6.2.1/../../../../pic32c/lib\libc.a(lib_a-mlock.o)
 .text          0x00000000        0x0 c:/program files (x86)/microchip/xc32/v2.15/bin/bin/../../lib/gcc/pic32c/6.2.1/../../../../pic32c/lib\libc.a(lib_a-sbrkr.o)
 .data          0x00000000        0x0 c:/program files (x86)/microchip/xc32/v2.15/bin/bin/../../lib/gcc/pic32c/6.2.1/../../../../pic32c/lib\libc.a(lib_a-sbrkr.o)
 .bss           0x00000000        0x0 c:/program files (x86)/microchip/xc32/v2.15/bin/bin/../../lib/gcc/pic32c/6.2.1/../../../../pic32c/lib\libc.a(lib_a-sbrkr.o)
 .text          0x00000000        0x0 c:/program files (x86)/microchip/xc32/v2.15/bin/bin/../../lib/gcc/pic32c/6.2.1/../../../../pic32c/lib\libc.a(lib_a-sprintf.o)
 .data          0x00000000        0x0 c:/program files (x86)/microchip/xc32/v2.15/bin/bin/../../lib/gcc/pic32c/6.2.1/../../../../pic32c/lib\libc.a(lib_a-sprintf.o)
 .bss           0x00000000        0x0 c:/program files (x86)/microchip/xc32/v2.15/bin/bin/../../lib/gcc/pic32c/6.2.1/../../../../pic32c/lib\libc.a(lib_a-sprintf.o)
 .text._sprintf_r
                0x00000000       0x40 c:/program files (x86)/microchip/xc32/v2.15/bin/bin/../../lib/gcc/pic32c/6.2.1/../../../../pic32c/lib\libc.a(lib_a-sprintf.o)
 .text          0x00000000        0x0 c:/program files (x86)/microchip/xc32/v2.15/bin/bin/../../lib/gcc/pic32c/6.2.1/../../../../pic32c/lib\libc.a(lib_a-strchr.o)
 .data          0x00000000        0x0 c:/program files (x86)/microchip/xc32/v2.15/bin/bin/../../lib/gcc/pic32c/6.2.1/../../../../pic32c/lib\libc.a(lib_a-strchr.o)
 .bss           0x00000000        0x0 c:/program files (x86)/microchip/xc32/v2.15/bin/bin/../../lib/gcc/pic32c/6.2.1/../../../../pic32c/lib\libc.a(lib_a-strchr.o)
 .text          0x00000000        0x0 c:/program files (x86)/microchip/xc32/v2.15/bin/bin/../../lib/gcc/pic32c/6.2.1/../../../../pic32c/lib\libc.a(lib_a-strcpy.o)
 .data          0x00000000        0x0 c:/program files (x86)/microchip/xc32/v2.15/bin/bin/../../lib/gcc/pic32c/6.2.1/../../../../pic32c/lib\libc.a(lib_a-strcpy.o)
 .bss           0x00000000        0x0 c:/program files (x86)/microchip/xc32/v2.15/bin/bin/../../lib/gcc/pic32c/6.2.1/../../../../pic32c/lib\libc.a(lib_a-strcpy.o)
 .text          0x00000000        0x0 c:/program files (x86)/microchip/xc32/v2.15/bin/bin/../../lib/gcc/pic32c/6.2.1/../../../../pic32c/lib\libc.a(lib_a-strlen-stub.o)
 .data          0x00000000        0x0 c:/program files (x86)/microchip/xc32/v2.15/bin/bin/../../lib/gcc/pic32c/6.2.1/../../../../pic32c/lib\libc.a(lib_a-strlen-stub.o)
 .bss           0x00000000        0x0 c:/program files (x86)/microchip/xc32/v2.15/bin/bin/../../lib/gcc/pic32c/6.2.1/../../../../pic32c/lib\libc.a(lib_a-strlen-stub.o)
 .text          0x00000000        0x0 c:/program files (x86)/microchip/xc32/v2.15/bin/bin/../../lib/gcc/pic32c/6.2.1/../../../../pic32c/lib\libc.a(lib_a-strstr.o)
 .data          0x00000000        0x0 c:/program files (x86)/microchip/xc32/v2.15/bin/bin/../../lib/gcc/pic32c/6.2.1/../../../../pic32c/lib\libc.a(lib_a-strstr.o)
 .bss           0x00000000        0x0 c:/program files (x86)/microchip/xc32/v2.15/bin/bin/../../lib/gcc/pic32c/6.2.1/../../../../pic32c/lib\libc.a(lib_a-strstr.o)
 .text          0x00000000        0x0 c:/program files (x86)/microchip/xc32/v2.15/bin/bin/../../lib/gcc/pic32c/6.2.1/../../../../pic32c/lib\libc.a(lib_a-svfprintf.o)
 .data          0x00000000        0x0 c:/program files (x86)/microchip/xc32/v2.15/bin/bin/../../lib/gcc/pic32c/6.2.1/../../../../pic32c/lib\libc.a(lib_a-svfprintf.o)
 .bss           0x00000000        0x0 c:/program files (x86)/microchip/xc32/v2.15/bin/bin/../../lib/gcc/pic32c/6.2.1/../../../../pic32c/lib\libc.a(lib_a-svfprintf.o)
 .text          0x00000000        0x0 c:/program files (x86)/microchip/xc32/v2.15/bin/bin/../../lib/gcc/pic32c/6.2.1/../../../../pic32c/lib\libc.a(lib_a-tzcalc_limits.o)
 .data          0x00000000        0x0 c:/program files (x86)/microchip/xc32/v2.15/bin/bin/../../lib/gcc/pic32c/6.2.1/../../../../pic32c/lib\libc.a(lib_a-tzcalc_limits.o)
 .bss           0x00000000        0x0 c:/program files (x86)/microchip/xc32/v2.15/bin/bin/../../lib/gcc/pic32c/6.2.1/../../../../pic32c/lib\libc.a(lib_a-tzcalc_limits.o)
 .text.__tzcalc_limits
                0x00000000      0x19c c:/program files (x86)/microchip/xc32/v2.15/bin/bin/../../lib/gcc/pic32c/6.2.1/../../../../pic32c/lib\libc.a(lib_a-tzcalc_limits.o)
 .debug_info    0x00000000     0x1046 c:/program files (x86)/microchip/xc32/v2.15/bin/bin/../../lib/gcc/pic32c/6.2.1/../../../../pic32c/lib\libc.a(lib_a-tzcalc_limits.o)
 .debug_abbrev  0x00000000      0x1e4 c:/program files (x86)/microchip/xc32/v2.15/bin/bin/../../lib/gcc/pic32c/6.2.1/../../../../pic32c/lib\libc.a(lib_a-tzcalc_limits.o)
 .debug_loc     0x00000000      0x204 c:/program files (x86)/microchip/xc32/v2.15/bin/bin/../../lib/gcc/pic32c/6.2.1/../../../../pic32c/lib\libc.a(lib_a-tzcalc_limits.o)
 .debug_aranges
                0x00000000       0x20 c:/program files (x86)/microchip/xc32/v2.15/bin/bin/../../lib/gcc/pic32c/6.2.1/../../../../pic32c/lib\libc.a(lib_a-tzcalc_limits.o)
 .debug_ranges  0x00000000       0x50 c:/program files (x86)/microchip/xc32/v2.15/bin/bin/../../lib/gcc/pic32c/6.2.1/../../../../pic32c/lib\libc.a(lib_a-tzcalc_limits.o)
 .debug_line    0x00000000      0x2cb c:/program files (x86)/microchip/xc32/v2.15/bin/bin/../../lib/gcc/pic32c/6.2.1/../../../../pic32c/lib\libc.a(lib_a-tzcalc_limits.o)
 .debug_str     0x00000000       0x1a c:/program files (x86)/microchip/xc32/v2.15/bin/bin/../../lib/gcc/pic32c/6.2.1/../../../../pic32c/lib\libc.a(lib_a-tzcalc_limits.o)
 .comment       0x00000000       0x3d c:/program files (x86)/microchip/xc32/v2.15/bin/bin/../../lib/gcc/pic32c/6.2.1/../../../../pic32c/lib\libc.a(lib_a-tzcalc_limits.o)
 .debug_frame   0x00000000       0x3c c:/program files (x86)/microchip/xc32/v2.15/bin/bin/../../lib/gcc/pic32c/6.2.1/../../../../pic32c/lib\libc.a(lib_a-tzcalc_limits.o)
 .ARM.attributes
                0x00000000       0x2c c:/program files (x86)/microchip/xc32/v2.15/bin/bin/../../lib/gcc/pic32c/6.2.1/../../../../pic32c/lib\libc.a(lib_a-tzcalc_limits.o)
 .text          0x00000000        0x0 c:/program files (x86)/microchip/xc32/v2.15/bin/bin/../../lib/gcc/pic32c/6.2.1/../../../../pic32c/lib\libc.a(lib_a-tzlock.o)
 .data          0x00000000        0x0 c:/program files (x86)/microchip/xc32/v2.15/bin/bin/../../lib/gcc/pic32c/6.2.1/../../../../pic32c/lib\libc.a(lib_a-tzlock.o)
 .bss           0x00000000        0x0 c:/program files (x86)/microchip/xc32/v2.15/bin/bin/../../lib/gcc/pic32c/6.2.1/../../../../pic32c/lib\libc.a(lib_a-tzlock.o)
 .text.__tz_lock
                0x00000000        0x4 c:/program files (x86)/microchip/xc32/v2.15/bin/bin/../../lib/gcc/pic32c/6.2.1/../../../../pic32c/lib\libc.a(lib_a-tzlock.o)
 .text.__tz_unlock
                0x00000000        0x4 c:/program files (x86)/microchip/xc32/v2.15/bin/bin/../../lib/gcc/pic32c/6.2.1/../../../../pic32c/lib\libc.a(lib_a-tzlock.o)
 .debug_info    0x00000000      0xe55 c:/program files (x86)/microchip/xc32/v2.15/bin/bin/../../lib/gcc/pic32c/6.2.1/../../../../pic32c/lib\libc.a(lib_a-tzlock.o)
 .debug_abbrev  0x00000000      0x1b6 c:/program files (x86)/microchip/xc32/v2.15/bin/bin/../../lib/gcc/pic32c/6.2.1/../../../../pic32c/lib\libc.a(lib_a-tzlock.o)
 .debug_aranges
                0x00000000       0x20 c:/program files (x86)/microchip/xc32/v2.15/bin/bin/../../lib/gcc/pic32c/6.2.1/../../../../pic32c/lib\libc.a(lib_a-tzlock.o)
 .debug_ranges  0x00000000       0x10 c:/program files (x86)/microchip/xc32/v2.15/bin/bin/../../lib/gcc/pic32c/6.2.1/../../../../pic32c/lib\libc.a(lib_a-tzlock.o)
 .debug_line    0x00000000      0x242 c:/program files (x86)/microchip/xc32/v2.15/bin/bin/../../lib/gcc/pic32c/6.2.1/../../../../pic32c/lib\libc.a(lib_a-tzlock.o)
 .debug_str     0x00000000        0xe c:/program files (x86)/microchip/xc32/v2.15/bin/bin/../../lib/gcc/pic32c/6.2.1/../../../../pic32c/lib\libc.a(lib_a-tzlock.o)
 .comment       0x00000000       0x3d c:/program files (x86)/microchip/xc32/v2.15/bin/bin/../../lib/gcc/pic32c/6.2.1/../../../../pic32c/lib\libc.a(lib_a-tzlock.o)
 .debug_frame   0x00000000       0x30 c:/program files (x86)/microchip/xc32/v2.15/bin/bin/../../lib/gcc/pic32c/6.2.1/../../../../pic32c/lib\libc.a(lib_a-tzlock.o)
 .ARM.attributes
                0x00000000       0x2c c:/program files (x86)/microchip/xc32/v2.15/bin/bin/../../lib/gcc/pic32c/6.2.1/../../../../pic32c/lib\libc.a(lib_a-tzlock.o)
 .text          0x00000000        0x0 c:/program files (x86)/microchip/xc32/v2.15/bin/bin/../../lib/gcc/pic32c/6.2.1/../../../../pic32c/lib\libc.a(lib_a-tzset.o)
 .data          0x00000000        0x0 c:/program files (x86)/microchip/xc32/v2.15/bin/bin/../../lib/gcc/pic32c/6.2.1/../../../../pic32c/lib\libc.a(lib_a-tzset.o)
 .bss           0x00000000        0x0 c:/program files (x86)/microchip/xc32/v2.15/bin/bin/../../lib/gcc/pic32c/6.2.1/../../../../pic32c/lib\libc.a(lib_a-tzset.o)
 .text._tzset_unlocked
                0x00000000       0x10 c:/program files (x86)/microchip/xc32/v2.15/bin/bin/../../lib/gcc/pic32c/6.2.1/../../../../pic32c/lib\libc.a(lib_a-tzset.o)
 .text.tzset    0x00000000       0x18 c:/program files (x86)/microchip/xc32/v2.15/bin/bin/../../lib/gcc/pic32c/6.2.1/../../../../pic32c/lib\libc.a(lib_a-tzset.o)
 .debug_info    0x00000000      0xe28 c:/program files (x86)/microchip/xc32/v2.15/bin/bin/../../lib/gcc/pic32c/6.2.1/../../../../pic32c/lib\libc.a(lib_a-tzset.o)
 .debug_abbrev  0x00000000      0x1ac c:/program files (x86)/microchip/xc32/v2.15/bin/bin/../../lib/gcc/pic32c/6.2.1/../../../../pic32c/lib\libc.a(lib_a-tzset.o)
 .debug_loc     0x00000000       0x40 c:/program files (x86)/microchip/xc32/v2.15/bin/bin/../../lib/gcc/pic32c/6.2.1/../../../../pic32c/lib\libc.a(lib_a-tzset.o)
 .debug_aranges
                0x00000000       0x28 c:/program files (x86)/microchip/xc32/v2.15/bin/bin/../../lib/gcc/pic32c/6.2.1/../../../../pic32c/lib\libc.a(lib_a-tzset.o)
 .debug_ranges  0x00000000       0x18 c:/program files (x86)/microchip/xc32/v2.15/bin/bin/../../lib/gcc/pic32c/6.2.1/../../../../pic32c/lib\libc.a(lib_a-tzset.o)
 .debug_line    0x00000000      0x25b c:/program files (x86)/microchip/xc32/v2.15/bin/bin/../../lib/gcc/pic32c/6.2.1/../../../../pic32c/lib\libc.a(lib_a-tzset.o)
 .debug_str     0x00000000       0x36 c:/program files (x86)/microchip/xc32/v2.15/bin/bin/../../lib/gcc/pic32c/6.2.1/../../../../pic32c/lib\libc.a(lib_a-tzset.o)
 .comment       0x00000000       0x3d c:/program files (x86)/microchip/xc32/v2.15/bin/bin/../../lib/gcc/pic32c/6.2.1/../../../../pic32c/lib\libc.a(lib_a-tzset.o)
 .debug_frame   0x00000000       0x40 c:/program files (x86)/microchip/xc32/v2.15/bin/bin/../../lib/gcc/pic32c/6.2.1/../../../../pic32c/lib\libc.a(lib_a-tzset.o)
 .ARM.attributes
                0x00000000       0x2c c:/program files (x86)/microchip/xc32/v2.15/bin/bin/../../lib/gcc/pic32c/6.2.1/../../../../pic32c/lib\libc.a(lib_a-tzset.o)
 .text          0x00000000        0x0 c:/program files (x86)/microchip/xc32/v2.15/bin/bin/../../lib/gcc/pic32c/6.2.1/../../../../pic32c/lib\libc.a(lib_a-tzset_r.o)
 .data          0x00000000        0x0 c:/program files (x86)/microchip/xc32/v2.15/bin/bin/../../lib/gcc/pic32c/6.2.1/../../../../pic32c/lib\libc.a(lib_a-tzset_r.o)
 .bss           0x00000000        0x0 c:/program files (x86)/microchip/xc32/v2.15/bin/bin/../../lib/gcc/pic32c/6.2.1/../../../../pic32c/lib\libc.a(lib_a-tzset_r.o)
 .text._tzset_unlocked_r
                0x00000000      0x364 c:/program files (x86)/microchip/xc32/v2.15/bin/bin/../../lib/gcc/pic32c/6.2.1/../../../../pic32c/lib\libc.a(lib_a-tzset_r.o)
 .text._tzset_r
                0x00000000       0x14 c:/program files (x86)/microchip/xc32/v2.15/bin/bin/../../lib/gcc/pic32c/6.2.1/../../../../pic32c/lib\libc.a(lib_a-tzset_r.o)
 .rodata        0x00000000       0x54 c:/program files (x86)/microchip/xc32/v2.15/bin/bin/../../lib/gcc/pic32c/6.2.1/../../../../pic32c/lib\libc.a(lib_a-tzset_r.o)
 .bss.__tzname_dst
                0x00000000        0xb c:/program files (x86)/microchip/xc32/v2.15/bin/bin/../../lib/gcc/pic32c/6.2.1/../../../../pic32c/lib\libc.a(lib_a-tzset_r.o)
 .bss.__tzname_std
                0x00000000        0xb c:/program files (x86)/microchip/xc32/v2.15/bin/bin/../../lib/gcc/pic32c/6.2.1/../../../../pic32c/lib\libc.a(lib_a-tzset_r.o)
 .bss.prev_tzenv
                0x00000000        0x4 c:/program files (x86)/microchip/xc32/v2.15/bin/bin/../../lib/gcc/pic32c/6.2.1/../../../../pic32c/lib\libc.a(lib_a-tzset_r.o)
 .debug_info    0x00000000     0x1395 c:/program files (x86)/microchip/xc32/v2.15/bin/bin/../../lib/gcc/pic32c/6.2.1/../../../../pic32c/lib\libc.a(lib_a-tzset_r.o)
 .debug_abbrev  0x00000000      0x23e c:/program files (x86)/microchip/xc32/v2.15/bin/bin/../../lib/gcc/pic32c/6.2.1/../../../../pic32c/lib\libc.a(lib_a-tzset_r.o)
 .debug_loc     0x00000000      0x282 c:/program files (x86)/microchip/xc32/v2.15/bin/bin/../../lib/gcc/pic32c/6.2.1/../../../../pic32c/lib\libc.a(lib_a-tzset_r.o)
 .debug_aranges
                0x00000000       0x28 c:/program files (x86)/microchip/xc32/v2.15/bin/bin/../../lib/gcc/pic32c/6.2.1/../../../../pic32c/lib\libc.a(lib_a-tzset_r.o)
 .debug_ranges  0x00000000       0x40 c:/program files (x86)/microchip/xc32/v2.15/bin/bin/../../lib/gcc/pic32c/6.2.1/../../../../pic32c/lib\libc.a(lib_a-tzset_r.o)
 .debug_line    0x00000000      0x346 c:/program files (x86)/microchip/xc32/v2.15/bin/bin/../../lib/gcc/pic32c/6.2.1/../../../../pic32c/lib\libc.a(lib_a-tzset_r.o)
 .debug_str     0x00000000       0x5e c:/program files (x86)/microchip/xc32/v2.15/bin/bin/../../lib/gcc/pic32c/6.2.1/../../../../pic32c/lib\libc.a(lib_a-tzset_r.o)
 .comment       0x00000000       0x3d c:/program files (x86)/microchip/xc32/v2.15/bin/bin/../../lib/gcc/pic32c/6.2.1/../../../../pic32c/lib\libc.a(lib_a-tzset_r.o)
 .debug_frame   0x00000000       0x54 c:/program files (x86)/microchip/xc32/v2.15/bin/bin/../../lib/gcc/pic32c/6.2.1/../../../../pic32c/lib\libc.a(lib_a-tzset_r.o)
 .ARM.attributes
                0x00000000       0x2c c:/program files (x86)/microchip/xc32/v2.15/bin/bin/../../lib/gcc/pic32c/6.2.1/../../../../pic32c/lib\libc.a(lib_a-tzset_r.o)
 .text          0x00000000        0x0 c:/program files (x86)/microchip/xc32/v2.15/bin/bin/../../lib/gcc/pic32c/6.2.1/../../../../pic32c/lib\libc.a(lib_a-tzvars.o)
 .data          0x00000000        0x0 c:/program files (x86)/microchip/xc32/v2.15/bin/bin/../../lib/gcc/pic32c/6.2.1/../../../../pic32c/lib\libc.a(lib_a-tzvars.o)
 .bss           0x00000000        0x0 c:/program files (x86)/microchip/xc32/v2.15/bin/bin/../../lib/gcc/pic32c/6.2.1/../../../../pic32c/lib\libc.a(lib_a-tzvars.o)
 .rodata        0x00000000        0x4 c:/program files (x86)/microchip/xc32/v2.15/bin/bin/../../lib/gcc/pic32c/6.2.1/../../../../pic32c/lib\libc.a(lib_a-tzvars.o)
 .bss._daylight
                0x00000000        0x4 c:/program files (x86)/microchip/xc32/v2.15/bin/bin/../../lib/gcc/pic32c/6.2.1/../../../../pic32c/lib\libc.a(lib_a-tzvars.o)
 .bss._timezone
                0x00000000        0x4 c:/program files (x86)/microchip/xc32/v2.15/bin/bin/../../lib/gcc/pic32c/6.2.1/../../../../pic32c/lib\libc.a(lib_a-tzvars.o)
 .data._tzname  0x00000000        0x8 c:/program files (x86)/microchip/xc32/v2.15/bin/bin/../../lib/gcc/pic32c/6.2.1/../../../../pic32c/lib\libc.a(lib_a-tzvars.o)
 .debug_info    0x00000000      0xde6 c:/program files (x86)/microchip/xc32/v2.15/bin/bin/../../lib/gcc/pic32c/6.2.1/../../../../pic32c/lib\libc.a(lib_a-tzvars.o)
 .debug_abbrev  0x00000000      0x17a c:/program files (x86)/microchip/xc32/v2.15/bin/bin/../../lib/gcc/pic32c/6.2.1/../../../../pic32c/lib\libc.a(lib_a-tzvars.o)
 .debug_aranges
                0x00000000       0x18 c:/program files (x86)/microchip/xc32/v2.15/bin/bin/../../lib/gcc/pic32c/6.2.1/../../../../pic32c/lib\libc.a(lib_a-tzvars.o)
 .debug_line    0x00000000      0x1ab c:/program files (x86)/microchip/xc32/v2.15/bin/bin/../../lib/gcc/pic32c/6.2.1/../../../../pic32c/lib\libc.a(lib_a-tzvars.o)
 .debug_str     0x00000000        0xe c:/program files (x86)/microchip/xc32/v2.15/bin/bin/../../lib/gcc/pic32c/6.2.1/../../../../pic32c/lib\libc.a(lib_a-tzvars.o)
 .comment       0x00000000       0x3d c:/program files (x86)/microchip/xc32/v2.15/bin/bin/../../lib/gcc/pic32c/6.2.1/../../../../pic32c/lib\libc.a(lib_a-tzvars.o)
 .ARM.attributes
                0x00000000       0x2c c:/program files (x86)/microchip/xc32/v2.15/bin/bin/../../lib/gcc/pic32c/6.2.1/../../../../pic32c/lib\libc.a(lib_a-tzvars.o)
 .text          0x00000000        0x0 c:/program files (x86)/microchip/xc32/v2.15/bin/bin/../../lib/gcc/pic32c/6.2.1/../../../../pic32c/lib\libc.a(lib_a-vsnprintf.o)
 .data          0x00000000        0x0 c:/program files (x86)/microchip/xc32/v2.15/bin/bin/../../lib/gcc/pic32c/6.2.1/../../../../pic32c/lib\libc.a(lib_a-vsnprintf.o)
 .bss           0x00000000        0x0 c:/program files (x86)/microchip/xc32/v2.15/bin/bin/../../lib/gcc/pic32c/6.2.1/../../../../pic32c/lib\libc.a(lib_a-vsnprintf.o)
 .text          0x00000000        0x0 c:/program files (x86)/microchip/xc32/v2.15/bin/bin/../../lib/gcc/pic32c/6.2.1/../../../../pic32c/lib\libc.a(lib_a-__call_atexit.o)
 .data          0x00000000        0x0 c:/program files (x86)/microchip/xc32/v2.15/bin/bin/../../lib/gcc/pic32c/6.2.1/../../../../pic32c/lib\libc.a(lib_a-__call_atexit.o)
 .bss           0x00000000        0x0 c:/program files (x86)/microchip/xc32/v2.15/bin/bin/../../lib/gcc/pic32c/6.2.1/../../../../pic32c/lib\libc.a(lib_a-__call_atexit.o)
 .text.__call_exitprocs
                0x00000000       0xf8 c:/program files (x86)/microchip/xc32/v2.15/bin/bin/../../lib/gcc/pic32c/6.2.1/../../../../pic32c/lib\libc.a(lib_a-__call_atexit.o)
 .text          0x00000000        0x0 c:/program files (x86)/microchip/xc32/v2.15/bin/bin/../../lib/gcc/pic32c/6.2.1/../../../../pic32c/lib\libc.a(lib_a-atexit.o)
 .data          0x00000000        0x0 c:/program files (x86)/microchip/xc32/v2.15/bin/bin/../../lib/gcc/pic32c/6.2.1/../../../../pic32c/lib\libc.a(lib_a-atexit.o)
 .bss           0x00000000        0x0 c:/program files (x86)/microchip/xc32/v2.15/bin/bin/../../lib/gcc/pic32c/6.2.1/../../../../pic32c/lib\libc.a(lib_a-atexit.o)
 .text          0x00000000        0x0 c:/program files (x86)/microchip/xc32/v2.15/bin/bin/../../lib/gcc/pic32c/6.2.1/../../../../pic32c/lib\libc.a(lib_a-div.o)
 .data          0x00000000        0x0 c:/program files (x86)/microchip/xc32/v2.15/bin/bin/../../lib/gcc/pic32c/6.2.1/../../../../pic32c/lib\libc.a(lib_a-div.o)
 .bss           0x00000000        0x0 c:/program files (x86)/microchip/xc32/v2.15/bin/bin/../../lib/gcc/pic32c/6.2.1/../../../../pic32c/lib\libc.a(lib_a-div.o)
 .text.div      0x00000000       0x3c c:/program files (x86)/microchip/xc32/v2.15/bin/bin/../../lib/gcc/pic32c/6.2.1/../../../../pic32c/lib\libc.a(lib_a-div.o)
 .debug_info    0x00000000      0xda7 c:/program files (x86)/microchip/xc32/v2.15/bin/bin/../../lib/gcc/pic32c/6.2.1/../../../../pic32c/lib\libc.a(lib_a-div.o)
 .debug_abbrev  0x00000000      0x1ad c:/program files (x86)/microchip/xc32/v2.15/bin/bin/../../lib/gcc/pic32c/6.2.1/../../../../pic32c/lib\libc.a(lib_a-div.o)
 .debug_loc     0x00000000      0x114 c:/program files (x86)/microchip/xc32/v2.15/bin/bin/../../lib/gcc/pic32c/6.2.1/../../../../pic32c/lib\libc.a(lib_a-div.o)
 .debug_aranges
                0x00000000       0x20 c:/program files (x86)/microchip/xc32/v2.15/bin/bin/../../lib/gcc/pic32c/6.2.1/../../../../pic32c/lib\libc.a(lib_a-div.o)
 .debug_ranges  0x00000000       0x10 c:/program files (x86)/microchip/xc32/v2.15/bin/bin/../../lib/gcc/pic32c/6.2.1/../../../../pic32c/lib\libc.a(lib_a-div.o)
 .debug_line    0x00000000      0x24e c:/program files (x86)/microchip/xc32/v2.15/bin/bin/../../lib/gcc/pic32c/6.2.1/../../../../pic32c/lib\libc.a(lib_a-div.o)
 .debug_str     0x00000000        0xe c:/program files (x86)/microchip/xc32/v2.15/bin/bin/../../lib/gcc/pic32c/6.2.1/../../../../pic32c/lib\libc.a(lib_a-div.o)
 .comment       0x00000000       0x3d c:/program files (x86)/microchip/xc32/v2.15/bin/bin/../../lib/gcc/pic32c/6.2.1/../../../../pic32c/lib\libc.a(lib_a-div.o)
 .debug_frame   0x00000000       0x30 c:/program files (x86)/microchip/xc32/v2.15/bin/bin/../../lib/gcc/pic32c/6.2.1/../../../../pic32c/lib\libc.a(lib_a-div.o)
 .ARM.attributes
                0x00000000       0x2c c:/program files (x86)/microchip/xc32/v2.15/bin/bin/../../lib/gcc/pic32c/6.2.1/../../../../pic32c/lib\libc.a(lib_a-div.o)
 .text          0x00000000        0x0 c:/program files (x86)/microchip/xc32/v2.15/bin/bin/../../lib/gcc/pic32c/6.2.1/../../../../pic32c/lib\libc.a(lib_a-dtoa.o)
 .data          0x00000000        0x0 c:/program files (x86)/microchip/xc32/v2.15/bin/bin/../../lib/gcc/pic32c/6.2.1/../../../../pic32c/lib\libc.a(lib_a-dtoa.o)
 .bss           0x00000000        0x0 c:/program files (x86)/microchip/xc32/v2.15/bin/bin/../../lib/gcc/pic32c/6.2.1/../../../../pic32c/lib\libc.a(lib_a-dtoa.o)
 .text          0x00000000        0x0 c:/program files (x86)/microchip/xc32/v2.15/bin/bin/../../lib/gcc/pic32c/6.2.1/../../../../pic32c/lib\libc.a(lib_a-fini.o)
 .data          0x00000000        0x0 c:/program files (x86)/microchip/xc32/v2.15/bin/bin/../../lib/gcc/pic32c/6.2.1/../../../../pic32c/lib\libc.a(lib_a-fini.o)
 .bss           0x00000000        0x0 c:/program files (x86)/microchip/xc32/v2.15/bin/bin/../../lib/gcc/pic32c/6.2.1/../../../../pic32c/lib\libc.a(lib_a-fini.o)
 .text          0x00000000        0x0 c:/program files (x86)/microchip/xc32/v2.15/bin/bin/../../lib/gcc/pic32c/6.2.1/../../../../pic32c/lib\libc.a(lib_a-freer.o)
 .data          0x00000000        0x0 c:/program files (x86)/microchip/xc32/v2.15/bin/bin/../../lib/gcc/pic32c/6.2.1/../../../../pic32c/lib\libc.a(lib_a-freer.o)
 .bss           0x00000000        0x0 c:/program files (x86)/microchip/xc32/v2.15/bin/bin/../../lib/gcc/pic32c/6.2.1/../../../../pic32c/lib\libc.a(lib_a-freer.o)
 .text          0x00000000        0x0 c:/program files (x86)/microchip/xc32/v2.15/bin/bin/../../lib/gcc/pic32c/6.2.1/../../../../pic32c/lib\libc.a(lib_a-getenv_r.o)
 .data          0x00000000        0x0 c:/program files (x86)/microchip/xc32/v2.15/bin/bin/../../lib/gcc/pic32c/6.2.1/../../../../pic32c/lib\libc.a(lib_a-getenv_r.o)
 .bss           0x00000000        0x0 c:/program files (x86)/microchip/xc32/v2.15/bin/bin/../../lib/gcc/pic32c/6.2.1/../../../../pic32c/lib\libc.a(lib_a-getenv_r.o)
 .text._findenv_r
                0x00000000       0x8c c:/program files (x86)/microchip/xc32/v2.15/bin/bin/../../lib/gcc/pic32c/6.2.1/../../../../pic32c/lib\libc.a(lib_a-getenv_r.o)
 .text._getenv_r
                0x00000000       0x10 c:/program files (x86)/microchip/xc32/v2.15/bin/bin/../../lib/gcc/pic32c/6.2.1/../../../../pic32c/lib\libc.a(lib_a-getenv_r.o)
 .debug_info    0x00000000      0xed5 c:/program files (x86)/microchip/xc32/v2.15/bin/bin/../../lib/gcc/pic32c/6.2.1/../../../../pic32c/lib\libc.a(lib_a-getenv_r.o)
 .debug_abbrev  0x00000000      0x222 c:/program files (x86)/microchip/xc32/v2.15/bin/bin/../../lib/gcc/pic32c/6.2.1/../../../../pic32c/lib\libc.a(lib_a-getenv_r.o)
 .debug_loc     0x00000000      0x19c c:/program files (x86)/microchip/xc32/v2.15/bin/bin/../../lib/gcc/pic32c/6.2.1/../../../../pic32c/lib\libc.a(lib_a-getenv_r.o)
 .debug_aranges
                0x00000000       0x28 c:/program files (x86)/microchip/xc32/v2.15/bin/bin/../../lib/gcc/pic32c/6.2.1/../../../../pic32c/lib\libc.a(lib_a-getenv_r.o)
 .debug_ranges  0x00000000       0x18 c:/program files (x86)/microchip/xc32/v2.15/bin/bin/../../lib/gcc/pic32c/6.2.1/../../../../pic32c/lib\libc.a(lib_a-getenv_r.o)
 .debug_line    0x00000000      0x284 c:/program files (x86)/microchip/xc32/v2.15/bin/bin/../../lib/gcc/pic32c/6.2.1/../../../../pic32c/lib\libc.a(lib_a-getenv_r.o)
 .debug_str     0x00000000       0x30 c:/program files (x86)/microchip/xc32/v2.15/bin/bin/../../lib/gcc/pic32c/6.2.1/../../../../pic32c/lib\libc.a(lib_a-getenv_r.o)
 .comment       0x00000000       0x3d c:/program files (x86)/microchip/xc32/v2.15/bin/bin/../../lib/gcc/pic32c/6.2.1/../../../../pic32c/lib\libc.a(lib_a-getenv_r.o)
 .debug_frame   0x00000000       0x50 c:/program files (x86)/microchip/xc32/v2.15/bin/bin/../../lib/gcc/pic32c/6.2.1/../../../../pic32c/lib\libc.a(lib_a-getenv_r.o)
 .ARM.attributes
                0x00000000       0x2c c:/program files (x86)/microchip/xc32/v2.15/bin/bin/../../lib/gcc/pic32c/6.2.1/../../../../pic32c/lib\libc.a(lib_a-getenv_r.o)
 .text          0x00000000        0x0 c:/program files (x86)/microchip/xc32/v2.15/bin/bin/../../lib/gcc/pic32c/6.2.1/../../../../pic32c/lib\libc.a(lib_a-gettzinfo.o)
 .data          0x00000000        0x0 c:/program files (x86)/microchip/xc32/v2.15/bin/bin/../../lib/gcc/pic32c/6.2.1/../../../../pic32c/lib\libc.a(lib_a-gettzinfo.o)
 .bss           0x00000000        0x0 c:/program files (x86)/microchip/xc32/v2.15/bin/bin/../../lib/gcc/pic32c/6.2.1/../../../../pic32c/lib\libc.a(lib_a-gettzinfo.o)
 .text.__gettzinfo
                0x00000000        0x8 c:/program files (x86)/microchip/xc32/v2.15/bin/bin/../../lib/gcc/pic32c/6.2.1/../../../../pic32c/lib\libc.a(lib_a-gettzinfo.o)
 .data.tzinfo   0x00000000       0x40 c:/program files (x86)/microchip/xc32/v2.15/bin/bin/../../lib/gcc/pic32c/6.2.1/../../../../pic32c/lib\libc.a(lib_a-gettzinfo.o)
 .debug_info    0x00000000      0xf5b c:/program files (x86)/microchip/xc32/v2.15/bin/bin/../../lib/gcc/pic32c/6.2.1/../../../../pic32c/lib\libc.a(lib_a-gettzinfo.o)
 .debug_abbrev  0x00000000      0x1a0 c:/program files (x86)/microchip/xc32/v2.15/bin/bin/../../lib/gcc/pic32c/6.2.1/../../../../pic32c/lib\libc.a(lib_a-gettzinfo.o)
 .debug_aranges
                0x00000000       0x20 c:/program files (x86)/microchip/xc32/v2.15/bin/bin/../../lib/gcc/pic32c/6.2.1/../../../../pic32c/lib\libc.a(lib_a-gettzinfo.o)
 .debug_ranges  0x00000000       0x10 c:/program files (x86)/microchip/xc32/v2.15/bin/bin/../../lib/gcc/pic32c/6.2.1/../../../../pic32c/lib\libc.a(lib_a-gettzinfo.o)
 .debug_line    0x00000000      0x253 c:/program files (x86)/microchip/xc32/v2.15/bin/bin/../../lib/gcc/pic32c/6.2.1/../../../../pic32c/lib\libc.a(lib_a-gettzinfo.o)
 .debug_str     0x00000000        0xe c:/program files (x86)/microchip/xc32/v2.15/bin/bin/../../lib/gcc/pic32c/6.2.1/../../../../pic32c/lib\libc.a(lib_a-gettzinfo.o)
 .comment       0x00000000       0x3d c:/program files (x86)/microchip/xc32/v2.15/bin/bin/../../lib/gcc/pic32c/6.2.1/../../../../pic32c/lib\libc.a(lib_a-gettzinfo.o)
 .debug_frame   0x00000000       0x20 c:/program files (x86)/microchip/xc32/v2.15/bin/bin/../../lib/gcc/pic32c/6.2.1/../../../../pic32c/lib\libc.a(lib_a-gettzinfo.o)
 .ARM.attributes
                0x00000000       0x2c c:/program files (x86)/microchip/xc32/v2.15/bin/bin/../../lib/gcc/pic32c/6.2.1/../../../../pic32c/lib\libc.a(lib_a-gettzinfo.o)
 .text          0x00000000        0x0 c:/program files (x86)/microchip/xc32/v2.15/bin/bin/../../lib/gcc/pic32c/6.2.1/../../../../pic32c/lib\libc.a(lib_a-localeconv.o)
 .data          0x00000000        0x0 c:/program files (x86)/microchip/xc32/v2.15/bin/bin/../../lib/gcc/pic32c/6.2.1/../../../../pic32c/lib\libc.a(lib_a-localeconv.o)
 .bss           0x00000000        0x0 c:/program files (x86)/microchip/xc32/v2.15/bin/bin/../../lib/gcc/pic32c/6.2.1/../../../../pic32c/lib\libc.a(lib_a-localeconv.o)
 .text.__localeconv_l
                0x00000000        0x4 c:/program files (x86)/microchip/xc32/v2.15/bin/bin/../../lib/gcc/pic32c/6.2.1/../../../../pic32c/lib\libc.a(lib_a-localeconv.o)
 .text.localeconv
                0x00000000       0x1c c:/program files (x86)/microchip/xc32/v2.15/bin/bin/../../lib/gcc/pic32c/6.2.1/../../../../pic32c/lib\libc.a(lib_a-localeconv.o)
 .text          0x00000000        0x0 c:/program files (x86)/microchip/xc32/v2.15/bin/bin/../../lib/gcc/pic32c/6.2.1/../../../../pic32c/lib\libc.a(lib_a-memchr-stub.o)
 .data          0x00000000        0x0 c:/program files (x86)/microchip/xc32/v2.15/bin/bin/../../lib/gcc/pic32c/6.2.1/../../../../pic32c/lib\libc.a(lib_a-memchr-stub.o)
 .bss           0x00000000        0x0 c:/program files (x86)/microchip/xc32/v2.15/bin/bin/../../lib/gcc/pic32c/6.2.1/../../../../pic32c/lib\libc.a(lib_a-memchr-stub.o)
 .text          0x00000000        0x0 c:/program files (x86)/microchip/xc32/v2.15/bin/bin/../../lib/gcc/pic32c/6.2.1/../../../../pic32c/lib\libc.a(lib_a-memcmp.o)
 .data          0x00000000        0x0 c:/program files (x86)/microchip/xc32/v2.15/bin/bin/../../lib/gcc/pic32c/6.2.1/../../../../pic32c/lib\libc.a(lib_a-memcmp.o)
 .bss           0x00000000        0x0 c:/program files (x86)/microchip/xc32/v2.15/bin/bin/../../lib/gcc/pic32c/6.2.1/../../../../pic32c/lib\libc.a(lib_a-memcmp.o)
 .text          0x00000000        0x0 c:/program files (x86)/microchip/xc32/v2.15/bin/bin/../../lib/gcc/pic32c/6.2.1/../../../../pic32c/lib\libc.a(lib_a-month_lengths.o)
 .data          0x00000000        0x0 c:/program files (x86)/microchip/xc32/v2.15/bin/bin/../../lib/gcc/pic32c/6.2.1/../../../../pic32c/lib\libc.a(lib_a-month_lengths.o)
 .bss           0x00000000        0x0 c:/program files (x86)/microchip/xc32/v2.15/bin/bin/../../lib/gcc/pic32c/6.2.1/../../../../pic32c/lib\libc.a(lib_a-month_lengths.o)
 .rodata.__month_lengths
                0x00000000       0x60 c:/program files (x86)/microchip/xc32/v2.15/bin/bin/../../lib/gcc/pic32c/6.2.1/../../../../pic32c/lib\libc.a(lib_a-month_lengths.o)
 .debug_info    0x00000000      0xe12 c:/program files (x86)/microchip/xc32/v2.15/bin/bin/../../lib/gcc/pic32c/6.2.1/../../../../pic32c/lib\libc.a(lib_a-month_lengths.o)
 .debug_abbrev  0x00000000      0x17e c:/program files (x86)/microchip/xc32/v2.15/bin/bin/../../lib/gcc/pic32c/6.2.1/../../../../pic32c/lib\libc.a(lib_a-month_lengths.o)
 .debug_aranges
                0x00000000       0x18 c:/program files (x86)/microchip/xc32/v2.15/bin/bin/../../lib/gcc/pic32c/6.2.1/../../../../pic32c/lib\libc.a(lib_a-month_lengths.o)
 .debug_line    0x00000000      0x239 c:/program files (x86)/microchip/xc32/v2.15/bin/bin/../../lib/gcc/pic32c/6.2.1/../../../../pic32c/lib\libc.a(lib_a-month_lengths.o)
 .debug_str     0x00000000        0xe c:/program files (x86)/microchip/xc32/v2.15/bin/bin/../../lib/gcc/pic32c/6.2.1/../../../../pic32c/lib\libc.a(lib_a-month_lengths.o)
 .comment       0x00000000       0x3d c:/program files (x86)/microchip/xc32/v2.15/bin/bin/../../lib/gcc/pic32c/6.2.1/../../../../pic32c/lib\libc.a(lib_a-month_lengths.o)
 .ARM.attributes
                0x00000000       0x2c c:/program files (x86)/microchip/xc32/v2.15/bin/bin/../../lib/gcc/pic32c/6.2.1/../../../../pic32c/lib\libc.a(lib_a-month_lengths.o)
 .text          0x00000000        0x0 c:/program files (x86)/microchip/xc32/v2.15/bin/bin/../../lib/gcc/pic32c/6.2.1/../../../../pic32c/lib\libc.a(lib_a-mprec.o)
 .data          0x00000000        0x0 c:/program files (x86)/microchip/xc32/v2.15/bin/bin/../../lib/gcc/pic32c/6.2.1/../../../../pic32c/lib\libc.a(lib_a-mprec.o)
 .bss           0x00000000        0x0 c:/program files (x86)/microchip/xc32/v2.15/bin/bin/../../lib/gcc/pic32c/6.2.1/../../../../pic32c/lib\libc.a(lib_a-mprec.o)
 .text.__s2b    0x00000000       0x94 c:/program files (x86)/microchip/xc32/v2.15/bin/bin/../../lib/gcc/pic32c/6.2.1/../../../../pic32c/lib\libc.a(lib_a-mprec.o)
 .text.__ulp    0x00000000       0x4c c:/program files (x86)/microchip/xc32/v2.15/bin/bin/../../lib/gcc/pic32c/6.2.1/../../../../pic32c/lib\libc.a(lib_a-mprec.o)
 .text.__b2d    0x00000000       0xd8 c:/program files (x86)/microchip/xc32/v2.15/bin/bin/../../lib/gcc/pic32c/6.2.1/../../../../pic32c/lib\libc.a(lib_a-mprec.o)
 .text.__ratio  0x00000000       0x74 c:/program files (x86)/microchip/xc32/v2.15/bin/bin/../../lib/gcc/pic32c/6.2.1/../../../../pic32c/lib\libc.a(lib_a-mprec.o)
 .text._mprec_log10
                0x00000000       0x34 c:/program files (x86)/microchip/xc32/v2.15/bin/bin/../../lib/gcc/pic32c/6.2.1/../../../../pic32c/lib\libc.a(lib_a-mprec.o)
 .text.__copybits
                0x00000000       0x40 c:/program files (x86)/microchip/xc32/v2.15/bin/bin/../../lib/gcc/pic32c/6.2.1/../../../../pic32c/lib\libc.a(lib_a-mprec.o)
 .text.__any_on
                0x00000000       0x60 c:/program files (x86)/microchip/xc32/v2.15/bin/bin/../../lib/gcc/pic32c/6.2.1/../../../../pic32c/lib\libc.a(lib_a-mprec.o)
 .rodata.__mprec_tinytens
                0x00000000       0x28 c:/program files (x86)/microchip/xc32/v2.15/bin/bin/../../lib/gcc/pic32c/6.2.1/../../../../pic32c/lib\libc.a(lib_a-mprec.o)
 .text          0x00000000        0x0 c:/program files (x86)/microchip/xc32/v2.15/bin/bin/../../lib/gcc/pic32c/6.2.1/../../../../pic32c/lib\libc.a(lib_a-reent.o)
 .data          0x00000000        0x0 c:/program files (x86)/microchip/xc32/v2.15/bin/bin/../../lib/gcc/pic32c/6.2.1/../../../../pic32c/lib\libc.a(lib_a-reent.o)
 .bss           0x00000000        0x0 c:/program files (x86)/microchip/xc32/v2.15/bin/bin/../../lib/gcc/pic32c/6.2.1/../../../../pic32c/lib\libc.a(lib_a-reent.o)
 .text.cleanup_glue
                0x00000000       0x1c c:/program files (x86)/microchip/xc32/v2.15/bin/bin/../../lib/gcc/pic32c/6.2.1/../../../../pic32c/lib\libc.a(lib_a-reent.o)
 .text._reclaim_reent
                0x00000000       0x94 c:/program files (x86)/microchip/xc32/v2.15/bin/bin/../../lib/gcc/pic32c/6.2.1/../../../../pic32c/lib\libc.a(lib_a-reent.o)
 .text          0x00000000        0x0 c:/program files (x86)/microchip/xc32/v2.15/bin/bin/../../lib/gcc/pic32c/6.2.1/../../../../pic32c/lib\libc.a(lib_a-s_frexp.o)
 .data          0x00000000        0x0 c:/program files (x86)/microchip/xc32/v2.15/bin/bin/../../lib/gcc/pic32c/6.2.1/../../../../pic32c/lib\libc.a(lib_a-s_frexp.o)
 .bss           0x00000000        0x0 c:/program files (x86)/microchip/xc32/v2.15/bin/bin/../../lib/gcc/pic32c/6.2.1/../../../../pic32c/lib\libc.a(lib_a-s_frexp.o)
 .text          0x00000000        0x0 c:/program files (x86)/microchip/xc32/v2.15/bin/bin/../../lib/gcc/pic32c/6.2.1/../../../../pic32c/lib\libc.a(lib_a-siscanf.o)
 .data          0x00000000        0x0 c:/program files (x86)/microchip/xc32/v2.15/bin/bin/../../lib/gcc/pic32c/6.2.1/../../../../pic32c/lib\libc.a(lib_a-siscanf.o)
 .bss           0x00000000        0x0 c:/program files (x86)/microchip/xc32/v2.15/bin/bin/../../lib/gcc/pic32c/6.2.1/../../../../pic32c/lib\libc.a(lib_a-siscanf.o)
 .text.siscanf  0x00000000       0x50 c:/program files (x86)/microchip/xc32/v2.15/bin/bin/../../lib/gcc/pic32c/6.2.1/../../../../pic32c/lib\libc.a(lib_a-siscanf.o)
 .text._siscanf_r
                0x00000000       0x4c c:/program files (x86)/microchip/xc32/v2.15/bin/bin/../../lib/gcc/pic32c/6.2.1/../../../../pic32c/lib\libc.a(lib_a-siscanf.o)
 .debug_info    0x00000000     0x11cb c:/program files (x86)/microchip/xc32/v2.15/bin/bin/../../lib/gcc/pic32c/6.2.1/../../../../pic32c/lib\libc.a(lib_a-siscanf.o)
 .debug_abbrev  0x00000000      0x232 c:/program files (x86)/microchip/xc32/v2.15/bin/bin/../../lib/gcc/pic32c/6.2.1/../../../../pic32c/lib\libc.a(lib_a-siscanf.o)
 .debug_loc     0x00000000       0xe0 c:/program files (x86)/microchip/xc32/v2.15/bin/bin/../../lib/gcc/pic32c/6.2.1/../../../../pic32c/lib\libc.a(lib_a-siscanf.o)
 .debug_aranges
                0x00000000       0x28 c:/program files (x86)/microchip/xc32/v2.15/bin/bin/../../lib/gcc/pic32c/6.2.1/../../../../pic32c/lib\libc.a(lib_a-siscanf.o)
 .debug_ranges  0x00000000       0x18 c:/program files (x86)/microchip/xc32/v2.15/bin/bin/../../lib/gcc/pic32c/6.2.1/../../../../pic32c/lib\libc.a(lib_a-siscanf.o)
 .debug_line    0x00000000      0x2c4 c:/program files (x86)/microchip/xc32/v2.15/bin/bin/../../lib/gcc/pic32c/6.2.1/../../../../pic32c/lib\libc.a(lib_a-siscanf.o)
 .debug_str     0x00000000       0x1d c:/program files (x86)/microchip/xc32/v2.15/bin/bin/../../lib/gcc/pic32c/6.2.1/../../../../pic32c/lib\libc.a(lib_a-siscanf.o)
 .comment       0x00000000       0x3d c:/program files (x86)/microchip/xc32/v2.15/bin/bin/../../lib/gcc/pic32c/6.2.1/../../../../pic32c/lib\libc.a(lib_a-siscanf.o)
 .debug_frame   0x00000000       0x58 c:/program files (x86)/microchip/xc32/v2.15/bin/bin/../../lib/gcc/pic32c/6.2.1/../../../../pic32c/lib\libc.a(lib_a-siscanf.o)
 .ARM.attributes
                0x00000000       0x2c c:/program files (x86)/microchip/xc32/v2.15/bin/bin/../../lib/gcc/pic32c/6.2.1/../../../../pic32c/lib\libc.a(lib_a-siscanf.o)
 .text          0x00000000        0x0 c:/program files (x86)/microchip/xc32/v2.15/bin/bin/../../lib/gcc/pic32c/6.2.1/../../../../pic32c/lib\libc.a(lib_a-stdio.o)
 .data          0x00000000        0x0 c:/program files (x86)/microchip/xc32/v2.15/bin/bin/../../lib/gcc/pic32c/6.2.1/../../../../pic32c/lib\libc.a(lib_a-stdio.o)
 .bss           0x00000000        0x0 c:/program files (x86)/microchip/xc32/v2.15/bin/bin/../../lib/gcc/pic32c/6.2.1/../../../../pic32c/lib\libc.a(lib_a-stdio.o)
 .text.__sread  0x00000000       0x28 c:/program files (x86)/microchip/xc32/v2.15/bin/bin/../../lib/gcc/pic32c/6.2.1/../../../../pic32c/lib\libc.a(lib_a-stdio.o)
 .text.__seofread
                0x00000000        0x4 c:/program files (x86)/microchip/xc32/v2.15/bin/bin/../../lib/gcc/pic32c/6.2.1/../../../../pic32c/lib\libc.a(lib_a-stdio.o)
 .text.__swrite
                0x00000000       0x3c c:/program files (x86)/microchip/xc32/v2.15/bin/bin/../../lib/gcc/pic32c/6.2.1/../../../../pic32c/lib\libc.a(lib_a-stdio.o)
 .text.__sseek  0x00000000       0x2c c:/program files (x86)/microchip/xc32/v2.15/bin/bin/../../lib/gcc/pic32c/6.2.1/../../../../pic32c/lib\libc.a(lib_a-stdio.o)
 .text.__sclose
                0x00000000        0xc c:/program files (x86)/microchip/xc32/v2.15/bin/bin/../../lib/gcc/pic32c/6.2.1/../../../../pic32c/lib\libc.a(lib_a-stdio.o)
 .debug_info    0x00000000     0x1361 c:/program files (x86)/microchip/xc32/v2.15/bin/bin/../../lib/gcc/pic32c/6.2.1/../../../../pic32c/lib\libc.a(lib_a-stdio.o)
 .debug_abbrev  0x00000000      0x269 c:/program files (x86)/microchip/xc32/v2.15/bin/bin/../../lib/gcc/pic32c/6.2.1/../../../../pic32c/lib\libc.a(lib_a-stdio.o)
 .debug_loc     0x00000000      0x382 c:/program files (x86)/microchip/xc32/v2.15/bin/bin/../../lib/gcc/pic32c/6.2.1/../../../../pic32c/lib\libc.a(lib_a-stdio.o)
 .debug_aranges
                0x00000000       0x40 c:/program files (x86)/microchip/xc32/v2.15/bin/bin/../../lib/gcc/pic32c/6.2.1/../../../../pic32c/lib\libc.a(lib_a-stdio.o)
 .debug_ranges  0x00000000       0x30 c:/program files (x86)/microchip/xc32/v2.15/bin/bin/../../lib/gcc/pic32c/6.2.1/../../../../pic32c/lib\libc.a(lib_a-stdio.o)
 .debug_line    0x00000000      0x2df c:/program files (x86)/microchip/xc32/v2.15/bin/bin/../../lib/gcc/pic32c/6.2.1/../../../../pic32c/lib\libc.a(lib_a-stdio.o)
 .debug_str     0x00000000       0x30 c:/program files (x86)/microchip/xc32/v2.15/bin/bin/../../lib/gcc/pic32c/6.2.1/../../../../pic32c/lib\libc.a(lib_a-stdio.o)
 .comment       0x00000000       0x3d c:/program files (x86)/microchip/xc32/v2.15/bin/bin/../../lib/gcc/pic32c/6.2.1/../../../../pic32c/lib\libc.a(lib_a-stdio.o)
 .debug_frame   0x00000000       0x90 c:/program files (x86)/microchip/xc32/v2.15/bin/bin/../../lib/gcc/pic32c/6.2.1/../../../../pic32c/lib\libc.a(lib_a-stdio.o)
 .ARM.attributes
                0x00000000       0x2c c:/program files (x86)/microchip/xc32/v2.15/bin/bin/../../lib/gcc/pic32c/6.2.1/../../../../pic32c/lib\libc.a(lib_a-stdio.o)
 .text          0x00000000       0x88 c:/program files (x86)/microchip/xc32/v2.15/bin/bin/../../lib/gcc/pic32c/6.2.1/../../../../pic32c/lib\libc.a(lib_a-strcmp.o)
 .data          0x00000000        0x0 c:/program files (x86)/microchip/xc32/v2.15/bin/bin/../../lib/gcc/pic32c/6.2.1/../../../../pic32c/lib\libc.a(lib_a-strcmp.o)
 .bss           0x00000000        0x0 c:/program files (x86)/microchip/xc32/v2.15/bin/bin/../../lib/gcc/pic32c/6.2.1/../../../../pic32c/lib\libc.a(lib_a-strcmp.o)
 .debug_line    0x00000000       0xf4 c:/program files (x86)/microchip/xc32/v2.15/bin/bin/../../lib/gcc/pic32c/6.2.1/../../../../pic32c/lib\libc.a(lib_a-strcmp.o)
 .debug_info    0x00000000      0x127 c:/program files (x86)/microchip/xc32/v2.15/bin/bin/../../lib/gcc/pic32c/6.2.1/../../../../pic32c/lib\libc.a(lib_a-strcmp.o)
 .debug_abbrev  0x00000000       0x14 c:/program files (x86)/microchip/xc32/v2.15/bin/bin/../../lib/gcc/pic32c/6.2.1/../../../../pic32c/lib\libc.a(lib_a-strcmp.o)
 .debug_aranges
                0x00000000       0x20 c:/program files (x86)/microchip/xc32/v2.15/bin/bin/../../lib/gcc/pic32c/6.2.1/../../../../pic32c/lib\libc.a(lib_a-strcmp.o)
 .debug_frame   0x00000000       0x20 c:/program files (x86)/microchip/xc32/v2.15/bin/bin/../../lib/gcc/pic32c/6.2.1/../../../../pic32c/lib\libc.a(lib_a-strcmp.o)
 .ARM.attributes
                0x00000000       0x1b c:/program files (x86)/microchip/xc32/v2.15/bin/bin/../../lib/gcc/pic32c/6.2.1/../../../../pic32c/lib\libc.a(lib_a-strcmp.o)
 .text          0x00000000        0x0 c:/program files (x86)/microchip/xc32/v2.15/bin/bin/../../lib/gcc/pic32c/6.2.1/../../../../pic32c/lib\libc.a(lib_a-strncmp.o)
 .data          0x00000000        0x0 c:/program files (x86)/microchip/xc32/v2.15/bin/bin/../../lib/gcc/pic32c/6.2.1/../../../../pic32c/lib\libc.a(lib_a-strncmp.o)
 .bss           0x00000000        0x0 c:/program files (x86)/microchip/xc32/v2.15/bin/bin/../../lib/gcc/pic32c/6.2.1/../../../../pic32c/lib\libc.a(lib_a-strncmp.o)
 .text.strncmp  0x00000000       0x94 c:/program files (x86)/microchip/xc32/v2.15/bin/bin/../../lib/gcc/pic32c/6.2.1/../../../../pic32c/lib\libc.a(lib_a-strncmp.o)
 .debug_info    0x00000000      0xd99 c:/program files (x86)/microchip/xc32/v2.15/bin/bin/../../lib/gcc/pic32c/6.2.1/../../../../pic32c/lib\libc.a(lib_a-strncmp.o)
 .debug_abbrev  0x00000000      0x19e c:/program files (x86)/microchip/xc32/v2.15/bin/bin/../../lib/gcc/pic32c/6.2.1/../../../../pic32c/lib\libc.a(lib_a-strncmp.o)
 .debug_loc     0x00000000      0x198 c:/program files (x86)/microchip/xc32/v2.15/bin/bin/../../lib/gcc/pic32c/6.2.1/../../../../pic32c/lib\libc.a(lib_a-strncmp.o)
 .debug_aranges
                0x00000000       0x20 c:/program files (x86)/microchip/xc32/v2.15/bin/bin/../../lib/gcc/pic32c/6.2.1/../../../../pic32c/lib\libc.a(lib_a-strncmp.o)
 .debug_ranges  0x00000000       0x10 c:/program files (x86)/microchip/xc32/v2.15/bin/bin/../../lib/gcc/pic32c/6.2.1/../../../../pic32c/lib\libc.a(lib_a-strncmp.o)
 .debug_line    0x00000000      0x266 c:/program files (x86)/microchip/xc32/v2.15/bin/bin/../../lib/gcc/pic32c/6.2.1/../../../../pic32c/lib\libc.a(lib_a-strncmp.o)
 .debug_str     0x00000000        0xe c:/program files (x86)/microchip/xc32/v2.15/bin/bin/../../lib/gcc/pic32c/6.2.1/../../../../pic32c/lib\libc.a(lib_a-strncmp.o)
 .comment       0x00000000       0x3d c:/program files (x86)/microchip/xc32/v2.15/bin/bin/../../lib/gcc/pic32c/6.2.1/../../../../pic32c/lib\libc.a(lib_a-strncmp.o)
 .debug_frame   0x00000000       0x2c c:/program files (x86)/microchip/xc32/v2.15/bin/bin/../../lib/gcc/pic32c/6.2.1/../../../../pic32c/lib\libc.a(lib_a-strncmp.o)
 .ARM.attributes
                0x00000000       0x2c c:/program files (x86)/microchip/xc32/v2.15/bin/bin/../../lib/gcc/pic32c/6.2.1/../../../../pic32c/lib\libc.a(lib_a-strncmp.o)
 .text          0x00000000        0x0 c:/program files (x86)/microchip/xc32/v2.15/bin/bin/../../lib/gcc/pic32c/6.2.1/../../../../pic32c/lib\libc.a(lib_a-strncpy.o)
 .data          0x00000000        0x0 c:/program files (x86)/microchip/xc32/v2.15/bin/bin/../../lib/gcc/pic32c/6.2.1/../../../../pic32c/lib\libc.a(lib_a-strncpy.o)
 .bss           0x00000000        0x0 c:/program files (x86)/microchip/xc32/v2.15/bin/bin/../../lib/gcc/pic32c/6.2.1/../../../../pic32c/lib\libc.a(lib_a-strncpy.o)
 .text          0x00000000        0x0 c:/program files (x86)/microchip/xc32/v2.15/bin/bin/../../lib/gcc/pic32c/6.2.1/../../../../pic32c/lib\libc.a(lib_a-strtoul.o)
 .data          0x00000000        0x0 c:/program files (x86)/microchip/xc32/v2.15/bin/bin/../../lib/gcc/pic32c/6.2.1/../../../../pic32c/lib\libc.a(lib_a-strtoul.o)
 .bss           0x00000000        0x0 c:/program files (x86)/microchip/xc32/v2.15/bin/bin/../../lib/gcc/pic32c/6.2.1/../../../../pic32c/lib\libc.a(lib_a-strtoul.o)
 .text._strtoul_l.isra.0
                0x00000000      0x14c c:/program files (x86)/microchip/xc32/v2.15/bin/bin/../../lib/gcc/pic32c/6.2.1/../../../../pic32c/lib\libc.a(lib_a-strtoul.o)
 .text._strtoul_r
                0x00000000       0x24 c:/program files (x86)/microchip/xc32/v2.15/bin/bin/../../lib/gcc/pic32c/6.2.1/../../../../pic32c/lib\libc.a(lib_a-strtoul.o)
 .text.strtoul_l
                0x00000000       0x20 c:/program files (x86)/microchip/xc32/v2.15/bin/bin/../../lib/gcc/pic32c/6.2.1/../../../../pic32c/lib\libc.a(lib_a-strtoul.o)
 .text.strtoul  0x00000000       0x2c c:/program files (x86)/microchip/xc32/v2.15/bin/bin/../../lib/gcc/pic32c/6.2.1/../../../../pic32c/lib\libc.a(lib_a-strtoul.o)
 .debug_info    0x00000000     0x1856 c:/program files (x86)/microchip/xc32/v2.15/bin/bin/../../lib/gcc/pic32c/6.2.1/../../../../pic32c/lib\libc.a(lib_a-strtoul.o)
 .debug_abbrev  0x00000000      0x265 c:/program files (x86)/microchip/xc32/v2.15/bin/bin/../../lib/gcc/pic32c/6.2.1/../../../../pic32c/lib\libc.a(lib_a-strtoul.o)
 .debug_loc     0x00000000      0x5cd c:/program files (x86)/microchip/xc32/v2.15/bin/bin/../../lib/gcc/pic32c/6.2.1/../../../../pic32c/lib\libc.a(lib_a-strtoul.o)
 .debug_aranges
                0x00000000       0x38 c:/program files (x86)/microchip/xc32/v2.15/bin/bin/../../lib/gcc/pic32c/6.2.1/../../../../pic32c/lib\libc.a(lib_a-strtoul.o)
 .debug_ranges  0x00000000       0x60 c:/program files (x86)/microchip/xc32/v2.15/bin/bin/../../lib/gcc/pic32c/6.2.1/../../../../pic32c/lib\libc.a(lib_a-strtoul.o)
 .debug_line    0x00000000      0x3b1 c:/program files (x86)/microchip/xc32/v2.15/bin/bin/../../lib/gcc/pic32c/6.2.1/../../../../pic32c/lib\libc.a(lib_a-strtoul.o)
 .debug_str     0x00000000      0x12e c:/program files (x86)/microchip/xc32/v2.15/bin/bin/../../lib/gcc/pic32c/6.2.1/../../../../pic32c/lib\libc.a(lib_a-strtoul.o)
 .comment       0x00000000       0x3d c:/program files (x86)/microchip/xc32/v2.15/bin/bin/../../lib/gcc/pic32c/6.2.1/../../../../pic32c/lib\libc.a(lib_a-strtoul.o)
 .debug_frame   0x00000000       0x90 c:/program files (x86)/microchip/xc32/v2.15/bin/bin/../../lib/gcc/pic32c/6.2.1/../../../../pic32c/lib\libc.a(lib_a-strtoul.o)
 .ARM.attributes
                0x00000000       0x2c c:/program files (x86)/microchip/xc32/v2.15/bin/bin/../../lib/gcc/pic32c/6.2.1/../../../../pic32c/lib\libc.a(lib_a-strtoul.o)
 .text          0x00000000        0x0 c:/program files (x86)/microchip/xc32/v2.15/bin/bin/../../lib/gcc/pic32c/6.2.1/../../../../pic32c/lib\libc.a(lib_a-svfiprintf.o)
 .data          0x00000000        0x0 c:/program files (x86)/microchip/xc32/v2.15/bin/bin/../../lib/gcc/pic32c/6.2.1/../../../../pic32c/lib\libc.a(lib_a-svfiprintf.o)
 .bss           0x00000000        0x0 c:/program files (x86)/microchip/xc32/v2.15/bin/bin/../../lib/gcc/pic32c/6.2.1/../../../../pic32c/lib\libc.a(lib_a-svfiprintf.o)
 .text._svfiprintf_r
                0x00000000      0xbb4 c:/program files (x86)/microchip/xc32/v2.15/bin/bin/../../lib/gcc/pic32c/6.2.1/../../../../pic32c/lib\libc.a(lib_a-svfiprintf.o)
 .rodata._svfiprintf_r
                0x00000000      0x16c c:/program files (x86)/microchip/xc32/v2.15/bin/bin/../../lib/gcc/pic32c/6.2.1/../../../../pic32c/lib\libc.a(lib_a-svfiprintf.o)
 .rodata        0x00000000       0x30 c:/program files (x86)/microchip/xc32/v2.15/bin/bin/../../lib/gcc/pic32c/6.2.1/../../../../pic32c/lib\libc.a(lib_a-svfiprintf.o)
 .rodata.blanks.7208
                0x00000000       0x10 c:/program files (x86)/microchip/xc32/v2.15/bin/bin/../../lib/gcc/pic32c/6.2.1/../../../../pic32c/lib\libc.a(lib_a-svfiprintf.o)
 .rodata.zeroes.7209
                0x00000000       0x10 c:/program files (x86)/microchip/xc32/v2.15/bin/bin/../../lib/gcc/pic32c/6.2.1/../../../../pic32c/lib\libc.a(lib_a-svfiprintf.o)
 .text          0x00000000        0x0 c:/program files (x86)/microchip/xc32/v2.15/bin/bin/../../lib/gcc/pic32c/6.2.1/../../../../pic32c/lib\libc.a(lib_a-svfiscanf.o)
 .data          0x00000000        0x0 c:/program files (x86)/microchip/xc32/v2.15/bin/bin/../../lib/gcc/pic32c/6.2.1/../../../../pic32c/lib\libc.a(lib_a-svfiscanf.o)
 .bss           0x00000000        0x0 c:/program files (x86)/microchip/xc32/v2.15/bin/bin/../../lib/gcc/pic32c/6.2.1/../../../../pic32c/lib\libc.a(lib_a-svfiscanf.o)
 .text._sungetc_r
                0x00000000       0x84 c:/program files (x86)/microchip/xc32/v2.15/bin/bin/../../lib/gcc/pic32c/6.2.1/../../../../pic32c/lib\libc.a(lib_a-svfiscanf.o)
 .text.__ssrefill_r
                0x00000000       0x40 c:/program files (x86)/microchip/xc32/v2.15/bin/bin/../../lib/gcc/pic32c/6.2.1/../../../../pic32c/lib\libc.a(lib_a-svfiscanf.o)
 .text._sfread_r
                0x00000000       0x90 c:/program files (x86)/microchip/xc32/v2.15/bin/bin/../../lib/gcc/pic32c/6.2.1/../../../../pic32c/lib\libc.a(lib_a-svfiscanf.o)
 .text.__ssvfiscanf_r
                0x00000000      0x98c c:/program files (x86)/microchip/xc32/v2.15/bin/bin/../../lib/gcc/pic32c/6.2.1/../../../../pic32c/lib\libc.a(lib_a-svfiscanf.o)
 .rodata.__ssvfiscanf_r
                0x00000000      0x324 c:/program files (x86)/microchip/xc32/v2.15/bin/bin/../../lib/gcc/pic32c/6.2.1/../../../../pic32c/lib\libc.a(lib_a-svfiscanf.o)
 .rodata.basefix.6788
                0x00000000       0x24 c:/program files (x86)/microchip/xc32/v2.15/bin/bin/../../lib/gcc/pic32c/6.2.1/../../../../pic32c/lib\libc.a(lib_a-svfiscanf.o)
 .debug_info    0x00000000     0x21a2 c:/program files (x86)/microchip/xc32/v2.15/bin/bin/../../lib/gcc/pic32c/6.2.1/../../../../pic32c/lib\libc.a(lib_a-svfiscanf.o)
 .debug_abbrev  0x00000000      0x320 c:/program files (x86)/microchip/xc32/v2.15/bin/bin/../../lib/gcc/pic32c/6.2.1/../../../../pic32c/lib\libc.a(lib_a-svfiscanf.o)
 .debug_loc     0x00000000     0x165f c:/program files (x86)/microchip/xc32/v2.15/bin/bin/../../lib/gcc/pic32c/6.2.1/../../../../pic32c/lib\libc.a(lib_a-svfiscanf.o)
 .debug_aranges
                0x00000000       0x38 c:/program files (x86)/microchip/xc32/v2.15/bin/bin/../../lib/gcc/pic32c/6.2.1/../../../../pic32c/lib\libc.a(lib_a-svfiscanf.o)
 .debug_ranges  0x00000000      0x138 c:/program files (x86)/microchip/xc32/v2.15/bin/bin/../../lib/gcc/pic32c/6.2.1/../../../../pic32c/lib\libc.a(lib_a-svfiscanf.o)
 .debug_line    0x00000000      0x81d c:/program files (x86)/microchip/xc32/v2.15/bin/bin/../../lib/gcc/pic32c/6.2.1/../../../../pic32c/lib\libc.a(lib_a-svfiscanf.o)
 .debug_str     0x00000000      0x175 c:/program files (x86)/microchip/xc32/v2.15/bin/bin/../../lib/gcc/pic32c/6.2.1/../../../../pic32c/lib\libc.a(lib_a-svfiscanf.o)
 .comment       0x00000000       0x3d c:/program files (x86)/microchip/xc32/v2.15/bin/bin/../../lib/gcc/pic32c/6.2.1/../../../../pic32c/lib\libc.a(lib_a-svfiscanf.o)
 .debug_frame   0x00000000       0x9c c:/program files (x86)/microchip/xc32/v2.15/bin/bin/../../lib/gcc/pic32c/6.2.1/../../../../pic32c/lib\libc.a(lib_a-svfiscanf.o)
 .ARM.attributes
                0x00000000       0x2c c:/program files (x86)/microchip/xc32/v2.15/bin/bin/../../lib/gcc/pic32c/6.2.1/../../../../pic32c/lib\libc.a(lib_a-svfiscanf.o)
 .text          0x00000000        0x0 c:/program files (x86)/microchip/xc32/v2.15/bin/bin/../../lib/gcc/pic32c/6.2.1/../../../../pic32c/lib\libc.a(lib_a-ungetc.o)
 .data          0x00000000        0x0 c:/program files (x86)/microchip/xc32/v2.15/bin/bin/../../lib/gcc/pic32c/6.2.1/../../../../pic32c/lib\libc.a(lib_a-ungetc.o)
 .bss           0x00000000        0x0 c:/program files (x86)/microchip/xc32/v2.15/bin/bin/../../lib/gcc/pic32c/6.2.1/../../../../pic32c/lib\libc.a(lib_a-ungetc.o)
 .text.__submore
                0x00000000       0x84 c:/program files (x86)/microchip/xc32/v2.15/bin/bin/../../lib/gcc/pic32c/6.2.1/../../../../pic32c/lib\libc.a(lib_a-ungetc.o)
 .text._ungetc_r
                0x00000000       0xe0 c:/program files (x86)/microchip/xc32/v2.15/bin/bin/../../lib/gcc/pic32c/6.2.1/../../../../pic32c/lib\libc.a(lib_a-ungetc.o)
 .text.ungetc   0x00000000       0x18 c:/program files (x86)/microchip/xc32/v2.15/bin/bin/../../lib/gcc/pic32c/6.2.1/../../../../pic32c/lib\libc.a(lib_a-ungetc.o)
 .debug_info    0x00000000     0x127e c:/program files (x86)/microchip/xc32/v2.15/bin/bin/../../lib/gcc/pic32c/6.2.1/../../../../pic32c/lib\libc.a(lib_a-ungetc.o)
 .debug_abbrev  0x00000000      0x2af c:/program files (x86)/microchip/xc32/v2.15/bin/bin/../../lib/gcc/pic32c/6.2.1/../../../../pic32c/lib\libc.a(lib_a-ungetc.o)
 .debug_loc     0x00000000      0x2c8 c:/program files (x86)/microchip/xc32/v2.15/bin/bin/../../lib/gcc/pic32c/6.2.1/../../../../pic32c/lib\libc.a(lib_a-ungetc.o)
 .debug_aranges
                0x00000000       0x30 c:/program files (x86)/microchip/xc32/v2.15/bin/bin/../../lib/gcc/pic32c/6.2.1/../../../../pic32c/lib\libc.a(lib_a-ungetc.o)
 .debug_ranges  0x00000000       0x38 c:/program files (x86)/microchip/xc32/v2.15/bin/bin/../../lib/gcc/pic32c/6.2.1/../../../../pic32c/lib\libc.a(lib_a-ungetc.o)
 .debug_line    0x00000000      0x2ef c:/program files (x86)/microchip/xc32/v2.15/bin/bin/../../lib/gcc/pic32c/6.2.1/../../../../pic32c/lib\libc.a(lib_a-ungetc.o)
 .debug_str     0x00000000       0x2d c:/program files (x86)/microchip/xc32/v2.15/bin/bin/../../lib/gcc/pic32c/6.2.1/../../../../pic32c/lib\libc.a(lib_a-ungetc.o)
 .comment       0x00000000       0x3d c:/program files (x86)/microchip/xc32/v2.15/bin/bin/../../lib/gcc/pic32c/6.2.1/../../../../pic32c/lib\libc.a(lib_a-ungetc.o)
 .debug_frame   0x00000000       0x6c c:/program files (x86)/microchip/xc32/v2.15/bin/bin/../../lib/gcc/pic32c/6.2.1/../../../../pic32c/lib\libc.a(lib_a-ungetc.o)
 .ARM.attributes
                0x00000000       0x2c c:/program files (x86)/microchip/xc32/v2.15/bin/bin/../../lib/gcc/pic32c/6.2.1/../../../../pic32c/lib\libc.a(lib_a-ungetc.o)
 .text          0x00000000        0x0 c:/program files (x86)/microchip/xc32/v2.15/bin/bin/../../lib/gcc/pic32c/6.2.1/../../../../pic32c/lib\libc.a(lib_a-writer.o)
 .data          0x00000000        0x0 c:/program files (x86)/microchip/xc32/v2.15/bin/bin/../../lib/gcc/pic32c/6.2.1/../../../../pic32c/lib\libc.a(lib_a-writer.o)
 .bss           0x00000000        0x0 c:/program files (x86)/microchip/xc32/v2.15/bin/bin/../../lib/gcc/pic32c/6.2.1/../../../../pic32c/lib\libc.a(lib_a-writer.o)
 .text._write_r
                0x00000000       0x28 c:/program files (x86)/microchip/xc32/v2.15/bin/bin/../../lib/gcc/pic32c/6.2.1/../../../../pic32c/lib\libc.a(lib_a-writer.o)
 .debug_info    0x00000000      0xe66 c:/program files (x86)/microchip/xc32/v2.15/bin/bin/../../lib/gcc/pic32c/6.2.1/../../../../pic32c/lib\libc.a(lib_a-writer.o)
 .debug_abbrev  0x00000000      0x1fc c:/program files (x86)/microchip/xc32/v2.15/bin/bin/../../lib/gcc/pic32c/6.2.1/../../../../pic32c/lib\libc.a(lib_a-writer.o)
 .debug_loc     0x00000000       0xd0 c:/program files (x86)/microchip/xc32/v2.15/bin/bin/../../lib/gcc/pic32c/6.2.1/../../../../pic32c/lib\libc.a(lib_a-writer.o)
 .debug_aranges
                0x00000000       0x20 c:/program files (x86)/microchip/xc32/v2.15/bin/bin/../../lib/gcc/pic32c/6.2.1/../../../../pic32c/lib\libc.a(lib_a-writer.o)
 .debug_ranges  0x00000000       0x28 c:/program files (x86)/microchip/xc32/v2.15/bin/bin/../../lib/gcc/pic32c/6.2.1/../../../../pic32c/lib\libc.a(lib_a-writer.o)
 .debug_line    0x00000000      0x24b c:/program files (x86)/microchip/xc32/v2.15/bin/bin/../../lib/gcc/pic32c/6.2.1/../../../../pic32c/lib\libc.a(lib_a-writer.o)
 .debug_str     0x00000000       0x15 c:/program files (x86)/microchip/xc32/v2.15/bin/bin/../../lib/gcc/pic32c/6.2.1/../../../../pic32c/lib\libc.a(lib_a-writer.o)
 .comment       0x00000000       0x3d c:/program files (x86)/microchip/xc32/v2.15/bin/bin/../../lib/gcc/pic32c/6.2.1/../../../../pic32c/lib\libc.a(lib_a-writer.o)
 .debug_frame   0x00000000       0x2c c:/program files (x86)/microchip/xc32/v2.15/bin/bin/../../lib/gcc/pic32c/6.2.1/../../../../pic32c/lib\libc.a(lib_a-writer.o)
 .ARM.attributes
                0x00000000       0x2c c:/program files (x86)/microchip/xc32/v2.15/bin/bin/../../lib/gcc/pic32c/6.2.1/../../../../pic32c/lib\libc.a(lib_a-writer.o)
 .text          0x00000000        0x0 c:/program files (x86)/microchip/xc32/v2.15/bin/bin/../../lib/gcc/pic32c/6.2.1/../../../../pic32c/lib\libc.a(lib_a-__atexit.o)
 .data          0x00000000        0x0 c:/program files (x86)/microchip/xc32/v2.15/bin/bin/../../lib/gcc/pic32c/6.2.1/../../../../pic32c/lib\libc.a(lib_a-__atexit.o)
 .bss           0x00000000        0x0 c:/program files (x86)/microchip/xc32/v2.15/bin/bin/../../lib/gcc/pic32c/6.2.1/../../../../pic32c/lib\libc.a(lib_a-__atexit.o)
 .text          0x00000000        0x0 c:/program files (x86)/microchip/xc32/v2.15/bin/bin/../../lib/gcc/pic32c/6.2.1/../../../../pic32c/lib\libc.a(lib_a-callocr.o)
 .data          0x00000000        0x0 c:/program files (x86)/microchip/xc32/v2.15/bin/bin/../../lib/gcc/pic32c/6.2.1/../../../../pic32c/lib\libc.a(lib_a-callocr.o)
 .bss           0x00000000        0x0 c:/program files (x86)/microchip/xc32/v2.15/bin/bin/../../lib/gcc/pic32c/6.2.1/../../../../pic32c/lib\libc.a(lib_a-callocr.o)
 .text          0x00000000        0x0 c:/program files (x86)/microchip/xc32/v2.15/bin/bin/../../lib/gcc/pic32c/6.2.1/../../../../pic32c/lib\libc.a(lib_a-closer.o)
 .data          0x00000000        0x0 c:/program files (x86)/microchip/xc32/v2.15/bin/bin/../../lib/gcc/pic32c/6.2.1/../../../../pic32c/lib\libc.a(lib_a-closer.o)
 .bss           0x00000000        0x0 c:/program files (x86)/microchip/xc32/v2.15/bin/bin/../../lib/gcc/pic32c/6.2.1/../../../../pic32c/lib\libc.a(lib_a-closer.o)
 .text._close_r
                0x00000000       0x24 c:/program files (x86)/microchip/xc32/v2.15/bin/bin/../../lib/gcc/pic32c/6.2.1/../../../../pic32c/lib\libc.a(lib_a-closer.o)
 .debug_info    0x00000000      0xe15 c:/program files (x86)/microchip/xc32/v2.15/bin/bin/../../lib/gcc/pic32c/6.2.1/../../../../pic32c/lib\libc.a(lib_a-closer.o)
 .debug_abbrev  0x00000000      0x1f7 c:/program files (x86)/microchip/xc32/v2.15/bin/bin/../../lib/gcc/pic32c/6.2.1/../../../../pic32c/lib\libc.a(lib_a-closer.o)
 .debug_loc     0x00000000       0x78 c:/program files (x86)/microchip/xc32/v2.15/bin/bin/../../lib/gcc/pic32c/6.2.1/../../../../pic32c/lib\libc.a(lib_a-closer.o)
 .debug_aranges
                0x00000000       0x20 c:/program files (x86)/microchip/xc32/v2.15/bin/bin/../../lib/gcc/pic32c/6.2.1/../../../../pic32c/lib\libc.a(lib_a-closer.o)
 .debug_ranges  0x00000000       0x30 c:/program files (x86)/microchip/xc32/v2.15/bin/bin/../../lib/gcc/pic32c/6.2.1/../../../../pic32c/lib\libc.a(lib_a-closer.o)
 .debug_line    0x00000000      0x24f c:/program files (x86)/microchip/xc32/v2.15/bin/bin/../../lib/gcc/pic32c/6.2.1/../../../../pic32c/lib\libc.a(lib_a-closer.o)
 .debug_str     0x00000000       0x15 c:/program files (x86)/microchip/xc32/v2.15/bin/bin/../../lib/gcc/pic32c/6.2.1/../../../../pic32c/lib\libc.a(lib_a-closer.o)
 .comment       0x00000000       0x3d c:/program files (x86)/microchip/xc32/v2.15/bin/bin/../../lib/gcc/pic32c/6.2.1/../../../../pic32c/lib\libc.a(lib_a-closer.o)
 .debug_frame   0x00000000       0x2c c:/program files (x86)/microchip/xc32/v2.15/bin/bin/../../lib/gcc/pic32c/6.2.1/../../../../pic32c/lib\libc.a(lib_a-closer.o)
 .ARM.attributes
                0x00000000       0x2c c:/program files (x86)/microchip/xc32/v2.15/bin/bin/../../lib/gcc/pic32c/6.2.1/../../../../pic32c/lib\libc.a(lib_a-closer.o)
 .text          0x00000000        0x0 c:/program files (x86)/microchip/xc32/v2.15/bin/bin/../../lib/gcc/pic32c/6.2.1/../../../../pic32c/lib\libc.a(lib_a-environ.o)
 .data          0x00000000        0x0 c:/program files (x86)/microchip/xc32/v2.15/bin/bin/../../lib/gcc/pic32c/6.2.1/../../../../pic32c/lib\libc.a(lib_a-environ.o)
 .bss           0x00000000        0x0 c:/program files (x86)/microchip/xc32/v2.15/bin/bin/../../lib/gcc/pic32c/6.2.1/../../../../pic32c/lib\libc.a(lib_a-environ.o)
 .bss.initial_env
                0x00000000        0x4 c:/program files (x86)/microchip/xc32/v2.15/bin/bin/../../lib/gcc/pic32c/6.2.1/../../../../pic32c/lib\libc.a(lib_a-environ.o)
 .data.environ  0x00000000        0x4 c:/program files (x86)/microchip/xc32/v2.15/bin/bin/../../lib/gcc/pic32c/6.2.1/../../../../pic32c/lib\libc.a(lib_a-environ.o)
 .debug_info    0x00000000      0x18c c:/program files (x86)/microchip/xc32/v2.15/bin/bin/../../lib/gcc/pic32c/6.2.1/../../../../pic32c/lib\libc.a(lib_a-environ.o)
 .debug_abbrev  0x00000000       0x54 c:/program files (x86)/microchip/xc32/v2.15/bin/bin/../../lib/gcc/pic32c/6.2.1/../../../../pic32c/lib\libc.a(lib_a-environ.o)
 .debug_aranges
                0x00000000       0x18 c:/program files (x86)/microchip/xc32/v2.15/bin/bin/../../lib/gcc/pic32c/6.2.1/../../../../pic32c/lib\libc.a(lib_a-environ.o)
 .debug_line    0x00000000       0x9c c:/program files (x86)/microchip/xc32/v2.15/bin/bin/../../lib/gcc/pic32c/6.2.1/../../../../pic32c/lib\libc.a(lib_a-environ.o)
 .debug_str     0x00000000        0x0 c:/program files (x86)/microchip/xc32/v2.15/bin/bin/../../lib/gcc/pic32c/6.2.1/../../../../pic32c/lib\libc.a(lib_a-environ.o)
 .comment       0x00000000       0x3d c:/program files (x86)/microchip/xc32/v2.15/bin/bin/../../lib/gcc/pic32c/6.2.1/../../../../pic32c/lib\libc.a(lib_a-environ.o)
 .ARM.attributes
                0x00000000       0x2c c:/program files (x86)/microchip/xc32/v2.15/bin/bin/../../lib/gcc/pic32c/6.2.1/../../../../pic32c/lib\libc.a(lib_a-environ.o)
 .text          0x00000000        0x0 c:/program files (x86)/microchip/xc32/v2.15/bin/bin/../../lib/gcc/pic32c/6.2.1/../../../../pic32c/lib\libc.a(lib_a-envlock.o)
 .data          0x00000000        0x0 c:/program files (x86)/microchip/xc32/v2.15/bin/bin/../../lib/gcc/pic32c/6.2.1/../../../../pic32c/lib\libc.a(lib_a-envlock.o)
 .bss           0x00000000        0x0 c:/program files (x86)/microchip/xc32/v2.15/bin/bin/../../lib/gcc/pic32c/6.2.1/../../../../pic32c/lib\libc.a(lib_a-envlock.o)
 .text.__env_lock
                0x00000000        0x4 c:/program files (x86)/microchip/xc32/v2.15/bin/bin/../../lib/gcc/pic32c/6.2.1/../../../../pic32c/lib\libc.a(lib_a-envlock.o)
 .text.__env_unlock
                0x00000000        0x4 c:/program files (x86)/microchip/xc32/v2.15/bin/bin/../../lib/gcc/pic32c/6.2.1/../../../../pic32c/lib\libc.a(lib_a-envlock.o)
 .debug_info    0x00000000      0xd93 c:/program files (x86)/microchip/xc32/v2.15/bin/bin/../../lib/gcc/pic32c/6.2.1/../../../../pic32c/lib\libc.a(lib_a-envlock.o)
 .debug_abbrev  0x00000000      0x1bd c:/program files (x86)/microchip/xc32/v2.15/bin/bin/../../lib/gcc/pic32c/6.2.1/../../../../pic32c/lib\libc.a(lib_a-envlock.o)
 .debug_aranges
                0x00000000       0x20 c:/program files (x86)/microchip/xc32/v2.15/bin/bin/../../lib/gcc/pic32c/6.2.1/../../../../pic32c/lib\libc.a(lib_a-envlock.o)
 .debug_ranges  0x00000000       0x10 c:/program files (x86)/microchip/xc32/v2.15/bin/bin/../../lib/gcc/pic32c/6.2.1/../../../../pic32c/lib\libc.a(lib_a-envlock.o)
 .debug_line    0x00000000      0x23d c:/program files (x86)/microchip/xc32/v2.15/bin/bin/../../lib/gcc/pic32c/6.2.1/../../../../pic32c/lib\libc.a(lib_a-envlock.o)
 .debug_str     0x00000000        0xe c:/program files (x86)/microchip/xc32/v2.15/bin/bin/../../lib/gcc/pic32c/6.2.1/../../../../pic32c/lib\libc.a(lib_a-envlock.o)
 .comment       0x00000000       0x3d c:/program files (x86)/microchip/xc32/v2.15/bin/bin/../../lib/gcc/pic32c/6.2.1/../../../../pic32c/lib\libc.a(lib_a-envlock.o)
 .debug_frame   0x00000000       0x30 c:/program files (x86)/microchip/xc32/v2.15/bin/bin/../../lib/gcc/pic32c/6.2.1/../../../../pic32c/lib\libc.a(lib_a-envlock.o)
 .ARM.attributes
                0x00000000       0x2c c:/program files (x86)/microchip/xc32/v2.15/bin/bin/../../lib/gcc/pic32c/6.2.1/../../../../pic32c/lib\libc.a(lib_a-envlock.o)
 .text          0x00000000        0x0 c:/program files (x86)/microchip/xc32/v2.15/bin/bin/../../lib/gcc/pic32c/6.2.1/../../../../pic32c/lib\libc.a(lib_a-fflush.o)
 .data          0x00000000        0x0 c:/program files (x86)/microchip/xc32/v2.15/bin/bin/../../lib/gcc/pic32c/6.2.1/../../../../pic32c/lib\libc.a(lib_a-fflush.o)
 .bss           0x00000000        0x0 c:/program files (x86)/microchip/xc32/v2.15/bin/bin/../../lib/gcc/pic32c/6.2.1/../../../../pic32c/lib\libc.a(lib_a-fflush.o)
 .text.__sflush_r
                0x00000000      0x150 c:/program files (x86)/microchip/xc32/v2.15/bin/bin/../../lib/gcc/pic32c/6.2.1/../../../../pic32c/lib\libc.a(lib_a-fflush.o)
 .text._fflush_r
                0x00000000       0x2c c:/program files (x86)/microchip/xc32/v2.15/bin/bin/../../lib/gcc/pic32c/6.2.1/../../../../pic32c/lib\libc.a(lib_a-fflush.o)
 .text.fflush   0x00000000       0x28 c:/program files (x86)/microchip/xc32/v2.15/bin/bin/../../lib/gcc/pic32c/6.2.1/../../../../pic32c/lib\libc.a(lib_a-fflush.o)
 .debug_info    0x00000000     0x12a5 c:/program files (x86)/microchip/xc32/v2.15/bin/bin/../../lib/gcc/pic32c/6.2.1/../../../../pic32c/lib\libc.a(lib_a-fflush.o)
 .debug_abbrev  0x00000000      0x2ae c:/program files (x86)/microchip/xc32/v2.15/bin/bin/../../lib/gcc/pic32c/6.2.1/../../../../pic32c/lib\libc.a(lib_a-fflush.o)
 .debug_loc     0x00000000      0x358 c:/program files (x86)/microchip/xc32/v2.15/bin/bin/../../lib/gcc/pic32c/6.2.1/../../../../pic32c/lib\libc.a(lib_a-fflush.o)
 .debug_aranges
                0x00000000       0x30 c:/program files (x86)/microchip/xc32/v2.15/bin/bin/../../lib/gcc/pic32c/6.2.1/../../../../pic32c/lib\libc.a(lib_a-fflush.o)
 .debug_ranges  0x00000000       0x58 c:/program files (x86)/microchip/xc32/v2.15/bin/bin/../../lib/gcc/pic32c/6.2.1/../../../../pic32c/lib\libc.a(lib_a-fflush.o)
 .debug_line    0x00000000      0x312 c:/program files (x86)/microchip/xc32/v2.15/bin/bin/../../lib/gcc/pic32c/6.2.1/../../../../pic32c/lib\libc.a(lib_a-fflush.o)
 .debug_str     0x00000000       0x1b c:/program files (x86)/microchip/xc32/v2.15/bin/bin/../../lib/gcc/pic32c/6.2.1/../../../../pic32c/lib\libc.a(lib_a-fflush.o)
 .comment       0x00000000       0x3d c:/program files (x86)/microchip/xc32/v2.15/bin/bin/../../lib/gcc/pic32c/6.2.1/../../../../pic32c/lib\libc.a(lib_a-fflush.o)
 .debug_frame   0x00000000       0x68 c:/program files (x86)/microchip/xc32/v2.15/bin/bin/../../lib/gcc/pic32c/6.2.1/../../../../pic32c/lib\libc.a(lib_a-fflush.o)
 .ARM.attributes
                0x00000000       0x2c c:/program files (x86)/microchip/xc32/v2.15/bin/bin/../../lib/gcc/pic32c/6.2.1/../../../../pic32c/lib\libc.a(lib_a-fflush.o)
 .text          0x00000000        0x0 c:/program files (x86)/microchip/xc32/v2.15/bin/bin/../../lib/gcc/pic32c/6.2.1/../../../../pic32c/lib\libc.a(lib_a-findfp.o)
 .data          0x00000000        0x0 c:/program files (x86)/microchip/xc32/v2.15/bin/bin/../../lib/gcc/pic32c/6.2.1/../../../../pic32c/lib\libc.a(lib_a-findfp.o)
 .bss           0x00000000        0x0 c:/program files (x86)/microchip/xc32/v2.15/bin/bin/../../lib/gcc/pic32c/6.2.1/../../../../pic32c/lib\libc.a(lib_a-findfp.o)
 .text.__fp_unlock
                0x00000000        0x4 c:/program files (x86)/microchip/xc32/v2.15/bin/bin/../../lib/gcc/pic32c/6.2.1/../../../../pic32c/lib\libc.a(lib_a-findfp.o)
 .text._cleanup_r
                0x00000000       0x10 c:/program files (x86)/microchip/xc32/v2.15/bin/bin/../../lib/gcc/pic32c/6.2.1/../../../../pic32c/lib\libc.a(lib_a-findfp.o)
 .text.__sinit.part.1
                0x00000000       0xf0 c:/program files (x86)/microchip/xc32/v2.15/bin/bin/../../lib/gcc/pic32c/6.2.1/../../../../pic32c/lib\libc.a(lib_a-findfp.o)
 .text.__fp_lock
                0x00000000        0x4 c:/program files (x86)/microchip/xc32/v2.15/bin/bin/../../lib/gcc/pic32c/6.2.1/../../../../pic32c/lib\libc.a(lib_a-findfp.o)
 .text.__sfmoreglue
                0x00000000       0x30 c:/program files (x86)/microchip/xc32/v2.15/bin/bin/../../lib/gcc/pic32c/6.2.1/../../../../pic32c/lib\libc.a(lib_a-findfp.o)
 .text.__sfp    0x00000000       0x8c c:/program files (x86)/microchip/xc32/v2.15/bin/bin/../../lib/gcc/pic32c/6.2.1/../../../../pic32c/lib\libc.a(lib_a-findfp.o)
 .text._cleanup
                0x00000000       0x18 c:/program files (x86)/microchip/xc32/v2.15/bin/bin/../../lib/gcc/pic32c/6.2.1/../../../../pic32c/lib\libc.a(lib_a-findfp.o)
 .text.__sinit  0x00000000       0x10 c:/program files (x86)/microchip/xc32/v2.15/bin/bin/../../lib/gcc/pic32c/6.2.1/../../../../pic32c/lib\libc.a(lib_a-findfp.o)
 .text.__sfp_lock_acquire
                0x00000000        0x4 c:/program files (x86)/microchip/xc32/v2.15/bin/bin/../../lib/gcc/pic32c/6.2.1/../../../../pic32c/lib\libc.a(lib_a-findfp.o)
 .text.__sfp_lock_release
                0x00000000        0x4 c:/program files (x86)/microchip/xc32/v2.15/bin/bin/../../lib/gcc/pic32c/6.2.1/../../../../pic32c/lib\libc.a(lib_a-findfp.o)
 .text.__sinit_lock_acquire
                0x00000000        0x4 c:/program files (x86)/microchip/xc32/v2.15/bin/bin/../../lib/gcc/pic32c/6.2.1/../../../../pic32c/lib\libc.a(lib_a-findfp.o)
 .text.__sinit_lock_release
                0x00000000        0x4 c:/program files (x86)/microchip/xc32/v2.15/bin/bin/../../lib/gcc/pic32c/6.2.1/../../../../pic32c/lib\libc.a(lib_a-findfp.o)
 .text.__fp_lock_all
                0x00000000       0x18 c:/program files (x86)/microchip/xc32/v2.15/bin/bin/../../lib/gcc/pic32c/6.2.1/../../../../pic32c/lib\libc.a(lib_a-findfp.o)
 .text.__fp_unlock_all
                0x00000000       0x18 c:/program files (x86)/microchip/xc32/v2.15/bin/bin/../../lib/gcc/pic32c/6.2.1/../../../../pic32c/lib\libc.a(lib_a-findfp.o)
 .debug_info    0x00000000     0x1669 c:/program files (x86)/microchip/xc32/v2.15/bin/bin/../../lib/gcc/pic32c/6.2.1/../../../../pic32c/lib\libc.a(lib_a-findfp.o)
 .debug_abbrev  0x00000000      0x390 c:/program files (x86)/microchip/xc32/v2.15/bin/bin/../../lib/gcc/pic32c/6.2.1/../../../../pic32c/lib\libc.a(lib_a-findfp.o)
 .debug_loc     0x00000000      0x42f c:/program files (x86)/microchip/xc32/v2.15/bin/bin/../../lib/gcc/pic32c/6.2.1/../../../../pic32c/lib\libc.a(lib_a-findfp.o)
 .debug_aranges
                0x00000000       0x68 c:/program files (x86)/microchip/xc32/v2.15/bin/bin/../../lib/gcc/pic32c/6.2.1/../../../../pic32c/lib\libc.a(lib_a-findfp.o)
 .debug_ranges  0x00000000       0x88 c:/program files (x86)/microchip/xc32/v2.15/bin/bin/../../lib/gcc/pic32c/6.2.1/../../../../pic32c/lib\libc.a(lib_a-findfp.o)
 .debug_line    0x00000000      0x3e8 c:/program files (x86)/microchip/xc32/v2.15/bin/bin/../../lib/gcc/pic32c/6.2.1/../../../../pic32c/lib\libc.a(lib_a-findfp.o)
 .debug_str     0x00000000       0x25 c:/program files (x86)/microchip/xc32/v2.15/bin/bin/../../lib/gcc/pic32c/6.2.1/../../../../pic32c/lib\libc.a(lib_a-findfp.o)
 .comment       0x00000000       0x3d c:/program files (x86)/microchip/xc32/v2.15/bin/bin/../../lib/gcc/pic32c/6.2.1/../../../../pic32c/lib\libc.a(lib_a-findfp.o)
 .debug_frame   0x00000000      0x14c c:/program files (x86)/microchip/xc32/v2.15/bin/bin/../../lib/gcc/pic32c/6.2.1/../../../../pic32c/lib\libc.a(lib_a-findfp.o)
 .ARM.attributes
                0x00000000       0x2c c:/program files (x86)/microchip/xc32/v2.15/bin/bin/../../lib/gcc/pic32c/6.2.1/../../../../pic32c/lib\libc.a(lib_a-findfp.o)
 .text          0x00000000        0x0 c:/program files (x86)/microchip/xc32/v2.15/bin/bin/../../lib/gcc/pic32c/6.2.1/../../../../pic32c/lib\libc.a(lib_a-fwalk.o)
 .data          0x00000000        0x0 c:/program files (x86)/microchip/xc32/v2.15/bin/bin/../../lib/gcc/pic32c/6.2.1/../../../../pic32c/lib\libc.a(lib_a-fwalk.o)
 .bss           0x00000000        0x0 c:/program files (x86)/microchip/xc32/v2.15/bin/bin/../../lib/gcc/pic32c/6.2.1/../../../../pic32c/lib\libc.a(lib_a-fwalk.o)
 .text._fwalk   0x00000000       0x44 c:/program files (x86)/microchip/xc32/v2.15/bin/bin/../../lib/gcc/pic32c/6.2.1/../../../../pic32c/lib\libc.a(lib_a-fwalk.o)
 .text._fwalk_reent
                0x00000000       0x4c c:/program files (x86)/microchip/xc32/v2.15/bin/bin/../../lib/gcc/pic32c/6.2.1/../../../../pic32c/lib\libc.a(lib_a-fwalk.o)
 .debug_info    0x00000000     0x11ac c:/program files (x86)/microchip/xc32/v2.15/bin/bin/../../lib/gcc/pic32c/6.2.1/../../../../pic32c/lib\libc.a(lib_a-fwalk.o)
 .debug_abbrev  0x00000000      0x1e3 c:/program files (x86)/microchip/xc32/v2.15/bin/bin/../../lib/gcc/pic32c/6.2.1/../../../../pic32c/lib\libc.a(lib_a-fwalk.o)
 .debug_loc     0x00000000      0x1f7 c:/program files (x86)/microchip/xc32/v2.15/bin/bin/../../lib/gcc/pic32c/6.2.1/../../../../pic32c/lib\libc.a(lib_a-fwalk.o)
 .debug_aranges
                0x00000000       0x28 c:/program files (x86)/microchip/xc32/v2.15/bin/bin/../../lib/gcc/pic32c/6.2.1/../../../../pic32c/lib\libc.a(lib_a-fwalk.o)
 .debug_ranges  0x00000000       0x18 c:/program files (x86)/microchip/xc32/v2.15/bin/bin/../../lib/gcc/pic32c/6.2.1/../../../../pic32c/lib\libc.a(lib_a-fwalk.o)
 .debug_line    0x00000000      0x2a5 c:/program files (x86)/microchip/xc32/v2.15/bin/bin/../../lib/gcc/pic32c/6.2.1/../../../../pic32c/lib\libc.a(lib_a-fwalk.o)
 .debug_str     0x00000000        0xe c:/program files (x86)/microchip/xc32/v2.15/bin/bin/../../lib/gcc/pic32c/6.2.1/../../../../pic32c/lib\libc.a(lib_a-fwalk.o)
 .comment       0x00000000       0x3d c:/program files (x86)/microchip/xc32/v2.15/bin/bin/../../lib/gcc/pic32c/6.2.1/../../../../pic32c/lib\libc.a(lib_a-fwalk.o)
 .debug_frame   0x00000000       0x5c c:/program files (x86)/microchip/xc32/v2.15/bin/bin/../../lib/gcc/pic32c/6.2.1/../../../../pic32c/lib\libc.a(lib_a-fwalk.o)
 .ARM.attributes
                0x00000000       0x2c c:/program files (x86)/microchip/xc32/v2.15/bin/bin/../../lib/gcc/pic32c/6.2.1/../../../../pic32c/lib\libc.a(lib_a-fwalk.o)
 .text          0x00000000        0x0 c:/program files (x86)/microchip/xc32/v2.15/bin/bin/../../lib/gcc/pic32c/6.2.1/../../../../pic32c/lib\libc.a(lib_a-iswspace.o)
 .data          0x00000000        0x0 c:/program files (x86)/microchip/xc32/v2.15/bin/bin/../../lib/gcc/pic32c/6.2.1/../../../../pic32c/lib\libc.a(lib_a-iswspace.o)
 .bss           0x00000000        0x0 c:/program files (x86)/microchip/xc32/v2.15/bin/bin/../../lib/gcc/pic32c/6.2.1/../../../../pic32c/lib\libc.a(lib_a-iswspace.o)
 .text.iswspace
                0x00000000       0x18 c:/program files (x86)/microchip/xc32/v2.15/bin/bin/../../lib/gcc/pic32c/6.2.1/../../../../pic32c/lib\libc.a(lib_a-iswspace.o)
 .debug_info    0x00000000     0x150a c:/program files (x86)/microchip/xc32/v2.15/bin/bin/../../lib/gcc/pic32c/6.2.1/../../../../pic32c/lib\libc.a(lib_a-iswspace.o)
 .debug_abbrev  0x00000000      0x1bb c:/program files (x86)/microchip/xc32/v2.15/bin/bin/../../lib/gcc/pic32c/6.2.1/../../../../pic32c/lib\libc.a(lib_a-iswspace.o)
 .debug_loc     0x00000000       0x4c c:/program files (x86)/microchip/xc32/v2.15/bin/bin/../../lib/gcc/pic32c/6.2.1/../../../../pic32c/lib\libc.a(lib_a-iswspace.o)
 .debug_aranges
                0x00000000       0x20 c:/program files (x86)/microchip/xc32/v2.15/bin/bin/../../lib/gcc/pic32c/6.2.1/../../../../pic32c/lib\libc.a(lib_a-iswspace.o)
 .debug_ranges  0x00000000       0x10 c:/program files (x86)/microchip/xc32/v2.15/bin/bin/../../lib/gcc/pic32c/6.2.1/../../../../pic32c/lib\libc.a(lib_a-iswspace.o)
 .debug_line    0x00000000      0x2fc c:/program files (x86)/microchip/xc32/v2.15/bin/bin/../../lib/gcc/pic32c/6.2.1/../../../../pic32c/lib\libc.a(lib_a-iswspace.o)
 .debug_str     0x00000000      0x12c c:/program files (x86)/microchip/xc32/v2.15/bin/bin/../../lib/gcc/pic32c/6.2.1/../../../../pic32c/lib\libc.a(lib_a-iswspace.o)
 .comment       0x00000000       0x3d c:/program files (x86)/microchip/xc32/v2.15/bin/bin/../../lib/gcc/pic32c/6.2.1/../../../../pic32c/lib\libc.a(lib_a-iswspace.o)
 .debug_frame   0x00000000       0x28 c:/program files (x86)/microchip/xc32/v2.15/bin/bin/../../lib/gcc/pic32c/6.2.1/../../../../pic32c/lib\libc.a(lib_a-iswspace.o)
 .ARM.attributes
                0x00000000       0x2c c:/program files (x86)/microchip/xc32/v2.15/bin/bin/../../lib/gcc/pic32c/6.2.1/../../../../pic32c/lib\libc.a(lib_a-iswspace.o)
 .text          0x00000000        0x0 c:/program files (x86)/microchip/xc32/v2.15/bin/bin/../../lib/gcc/pic32c/6.2.1/../../../../pic32c/lib\libc.a(lib_a-locale.o)
 .data          0x00000000        0x0 c:/program files (x86)/microchip/xc32/v2.15/bin/bin/../../lib/gcc/pic32c/6.2.1/../../../../pic32c/lib\libc.a(lib_a-locale.o)
 .bss           0x00000000        0x0 c:/program files (x86)/microchip/xc32/v2.15/bin/bin/../../lib/gcc/pic32c/6.2.1/../../../../pic32c/lib\libc.a(lib_a-locale.o)
 .text._setlocale_r
                0x00000000       0x3c c:/program files (x86)/microchip/xc32/v2.15/bin/bin/../../lib/gcc/pic32c/6.2.1/../../../../pic32c/lib\libc.a(lib_a-locale.o)
 .text.__locale_mb_cur_max
                0x00000000       0x20 c:/program files (x86)/microchip/xc32/v2.15/bin/bin/../../lib/gcc/pic32c/6.2.1/../../../../pic32c/lib\libc.a(lib_a-locale.o)
 .text.__locale_ctype_ptr_l
                0x00000000        0x8 c:/program files (x86)/microchip/xc32/v2.15/bin/bin/../../lib/gcc/pic32c/6.2.1/../../../../pic32c/lib\libc.a(lib_a-locale.o)
 .text.__locale_ctype_ptr
                0x00000000       0x1c c:/program files (x86)/microchip/xc32/v2.15/bin/bin/../../lib/gcc/pic32c/6.2.1/../../../../pic32c/lib\libc.a(lib_a-locale.o)
 .text.setlocale
                0x00000000       0x18 c:/program files (x86)/microchip/xc32/v2.15/bin/bin/../../lib/gcc/pic32c/6.2.1/../../../../pic32c/lib\libc.a(lib_a-locale.o)
 .bss._PathLocale
                0x00000000        0x4 c:/program files (x86)/microchip/xc32/v2.15/bin/bin/../../lib/gcc/pic32c/6.2.1/../../../../pic32c/lib\libc.a(lib_a-locale.o)
 .text          0x00000000        0x0 c:/program files (x86)/microchip/xc32/v2.15/bin/bin/../../lib/gcc/pic32c/6.2.1/../../../../pic32c/lib\libc.a(lib_a-lseekr.o)
 .data          0x00000000        0x0 c:/program files (x86)/microchip/xc32/v2.15/bin/bin/../../lib/gcc/pic32c/6.2.1/../../../../pic32c/lib\libc.a(lib_a-lseekr.o)
 .bss           0x00000000        0x0 c:/program files (x86)/microchip/xc32/v2.15/bin/bin/../../lib/gcc/pic32c/6.2.1/../../../../pic32c/lib\libc.a(lib_a-lseekr.o)
 .text._lseek_r
                0x00000000       0x28 c:/program files (x86)/microchip/xc32/v2.15/bin/bin/../../lib/gcc/pic32c/6.2.1/../../../../pic32c/lib\libc.a(lib_a-lseekr.o)
 .debug_info    0x00000000      0xe47 c:/program files (x86)/microchip/xc32/v2.15/bin/bin/../../lib/gcc/pic32c/6.2.1/../../../../pic32c/lib\libc.a(lib_a-lseekr.o)
 .debug_abbrev  0x00000000      0x1f7 c:/program files (x86)/microchip/xc32/v2.15/bin/bin/../../lib/gcc/pic32c/6.2.1/../../../../pic32c/lib\libc.a(lib_a-lseekr.o)
 .debug_loc     0x00000000       0xd0 c:/program files (x86)/microchip/xc32/v2.15/bin/bin/../../lib/gcc/pic32c/6.2.1/../../../../pic32c/lib\libc.a(lib_a-lseekr.o)
 .debug_aranges
                0x00000000       0x20 c:/program files (x86)/microchip/xc32/v2.15/bin/bin/../../lib/gcc/pic32c/6.2.1/../../../../pic32c/lib\libc.a(lib_a-lseekr.o)
 .debug_ranges  0x00000000       0x28 c:/program files (x86)/microchip/xc32/v2.15/bin/bin/../../lib/gcc/pic32c/6.2.1/../../../../pic32c/lib\libc.a(lib_a-lseekr.o)
 .debug_line    0x00000000      0x24b c:/program files (x86)/microchip/xc32/v2.15/bin/bin/../../lib/gcc/pic32c/6.2.1/../../../../pic32c/lib\libc.a(lib_a-lseekr.o)
 .debug_str     0x00000000       0x15 c:/program files (x86)/microchip/xc32/v2.15/bin/bin/../../lib/gcc/pic32c/6.2.1/../../../../pic32c/lib\libc.a(lib_a-lseekr.o)
 .comment       0x00000000       0x3d c:/program files (x86)/microchip/xc32/v2.15/bin/bin/../../lib/gcc/pic32c/6.2.1/../../../../pic32c/lib\libc.a(lib_a-lseekr.o)
 .debug_frame   0x00000000       0x2c c:/program files (x86)/microchip/xc32/v2.15/bin/bin/../../lib/gcc/pic32c/6.2.1/../../../../pic32c/lib\libc.a(lib_a-lseekr.o)
 .ARM.attributes
                0x00000000       0x2c c:/program files (x86)/microchip/xc32/v2.15/bin/bin/../../lib/gcc/pic32c/6.2.1/../../../../pic32c/lib\libc.a(lib_a-lseekr.o)
 .text          0x00000000        0x0 c:/program files (x86)/microchip/xc32/v2.15/bin/bin/../../lib/gcc/pic32c/6.2.1/../../../../pic32c/lib\libc.a(lib_a-mbrtowc.o)
 .data          0x00000000        0x0 c:/program files (x86)/microchip/xc32/v2.15/bin/bin/../../lib/gcc/pic32c/6.2.1/../../../../pic32c/lib\libc.a(lib_a-mbrtowc.o)
 .bss           0x00000000        0x0 c:/program files (x86)/microchip/xc32/v2.15/bin/bin/../../lib/gcc/pic32c/6.2.1/../../../../pic32c/lib\libc.a(lib_a-mbrtowc.o)
 .text._mbrtowc_r
                0x00000000       0x64 c:/program files (x86)/microchip/xc32/v2.15/bin/bin/../../lib/gcc/pic32c/6.2.1/../../../../pic32c/lib\libc.a(lib_a-mbrtowc.o)
 .text.mbrtowc  0x00000000       0x60 c:/program files (x86)/microchip/xc32/v2.15/bin/bin/../../lib/gcc/pic32c/6.2.1/../../../../pic32c/lib\libc.a(lib_a-mbrtowc.o)
 .rodata        0x00000000        0x4 c:/program files (x86)/microchip/xc32/v2.15/bin/bin/../../lib/gcc/pic32c/6.2.1/../../../../pic32c/lib\libc.a(lib_a-mbrtowc.o)
 .debug_info    0x00000000     0x175b c:/program files (x86)/microchip/xc32/v2.15/bin/bin/../../lib/gcc/pic32c/6.2.1/../../../../pic32c/lib\libc.a(lib_a-mbrtowc.o)
 .debug_abbrev  0x00000000      0x211 c:/program files (x86)/microchip/xc32/v2.15/bin/bin/../../lib/gcc/pic32c/6.2.1/../../../../pic32c/lib\libc.a(lib_a-mbrtowc.o)
 .debug_loc     0x00000000      0x34b c:/program files (x86)/microchip/xc32/v2.15/bin/bin/../../lib/gcc/pic32c/6.2.1/../../../../pic32c/lib\libc.a(lib_a-mbrtowc.o)
 .debug_aranges
                0x00000000       0x28 c:/program files (x86)/microchip/xc32/v2.15/bin/bin/../../lib/gcc/pic32c/6.2.1/../../../../pic32c/lib\libc.a(lib_a-mbrtowc.o)
 .debug_ranges  0x00000000       0x80 c:/program files (x86)/microchip/xc32/v2.15/bin/bin/../../lib/gcc/pic32c/6.2.1/../../../../pic32c/lib\libc.a(lib_a-mbrtowc.o)
 .debug_line    0x00000000      0x358 c:/program files (x86)/microchip/xc32/v2.15/bin/bin/../../lib/gcc/pic32c/6.2.1/../../../../pic32c/lib\libc.a(lib_a-mbrtowc.o)
 .debug_str     0x00000000      0x119 c:/program files (x86)/microchip/xc32/v2.15/bin/bin/../../lib/gcc/pic32c/6.2.1/../../../../pic32c/lib\libc.a(lib_a-mbrtowc.o)
 .comment       0x00000000       0x3d c:/program files (x86)/microchip/xc32/v2.15/bin/bin/../../lib/gcc/pic32c/6.2.1/../../../../pic32c/lib\libc.a(lib_a-mbrtowc.o)
 .debug_frame   0x00000000       0x4c c:/program files (x86)/microchip/xc32/v2.15/bin/bin/../../lib/gcc/pic32c/6.2.1/../../../../pic32c/lib\libc.a(lib_a-mbrtowc.o)
 .ARM.attributes
                0x00000000       0x2c c:/program files (x86)/microchip/xc32/v2.15/bin/bin/../../lib/gcc/pic32c/6.2.1/../../../../pic32c/lib\libc.a(lib_a-mbrtowc.o)
 .text          0x00000000        0x0 c:/program files (x86)/microchip/xc32/v2.15/bin/bin/../../lib/gcc/pic32c/6.2.1/../../../../pic32c/lib\libc.a(lib_a-mbtowc_r.o)
 .data          0x00000000        0x0 c:/program files (x86)/microchip/xc32/v2.15/bin/bin/../../lib/gcc/pic32c/6.2.1/../../../../pic32c/lib\libc.a(lib_a-mbtowc_r.o)
 .bss           0x00000000        0x0 c:/program files (x86)/microchip/xc32/v2.15/bin/bin/../../lib/gcc/pic32c/6.2.1/../../../../pic32c/lib\libc.a(lib_a-mbtowc_r.o)
 .text._mbtowc_r
                0x00000000       0x28 c:/program files (x86)/microchip/xc32/v2.15/bin/bin/../../lib/gcc/pic32c/6.2.1/../../../../pic32c/lib\libc.a(lib_a-mbtowc_r.o)
 .text          0x00000000        0x0 c:/program files (x86)/microchip/xc32/v2.15/bin/bin/../../lib/gcc/pic32c/6.2.1/../../../../pic32c/lib\libc.a(lib_a-memmove.o)
 .data          0x00000000        0x0 c:/program files (x86)/microchip/xc32/v2.15/bin/bin/../../lib/gcc/pic32c/6.2.1/../../../../pic32c/lib\libc.a(lib_a-memmove.o)
 .bss           0x00000000        0x0 c:/program files (x86)/microchip/xc32/v2.15/bin/bin/../../lib/gcc/pic32c/6.2.1/../../../../pic32c/lib\libc.a(lib_a-memmove.o)
 .text          0x00000000        0x0 c:/program files (x86)/microchip/xc32/v2.15/bin/bin/../../lib/gcc/pic32c/6.2.1/../../../../pic32c/lib\libc.a(lib_a-readr.o)
 .data          0x00000000        0x0 c:/program files (x86)/microchip/xc32/v2.15/bin/bin/../../lib/gcc/pic32c/6.2.1/../../../../pic32c/lib\libc.a(lib_a-readr.o)
 .bss           0x00000000        0x0 c:/program files (x86)/microchip/xc32/v2.15/bin/bin/../../lib/gcc/pic32c/6.2.1/../../../../pic32c/lib\libc.a(lib_a-readr.o)
 .text._read_r  0x00000000       0x28 c:/program files (x86)/microchip/xc32/v2.15/bin/bin/../../lib/gcc/pic32c/6.2.1/../../../../pic32c/lib\libc.a(lib_a-readr.o)
 .debug_info    0x00000000      0xe5e c:/program files (x86)/microchip/xc32/v2.15/bin/bin/../../lib/gcc/pic32c/6.2.1/../../../../pic32c/lib\libc.a(lib_a-readr.o)
 .debug_abbrev  0x00000000      0x1f7 c:/program files (x86)/microchip/xc32/v2.15/bin/bin/../../lib/gcc/pic32c/6.2.1/../../../../pic32c/lib\libc.a(lib_a-readr.o)
 .debug_loc     0x00000000       0xd0 c:/program files (x86)/microchip/xc32/v2.15/bin/bin/../../lib/gcc/pic32c/6.2.1/../../../../pic32c/lib\libc.a(lib_a-readr.o)
 .debug_aranges
                0x00000000       0x20 c:/program files (x86)/microchip/xc32/v2.15/bin/bin/../../lib/gcc/pic32c/6.2.1/../../../../pic32c/lib\libc.a(lib_a-readr.o)
 .debug_ranges  0x00000000       0x28 c:/program files (x86)/microchip/xc32/v2.15/bin/bin/../../lib/gcc/pic32c/6.2.1/../../../../pic32c/lib\libc.a(lib_a-readr.o)
 .debug_line    0x00000000      0x24a c:/program files (x86)/microchip/xc32/v2.15/bin/bin/../../lib/gcc/pic32c/6.2.1/../../../../pic32c/lib\libc.a(lib_a-readr.o)
 .debug_str     0x00000000       0x14 c:/program files (x86)/microchip/xc32/v2.15/bin/bin/../../lib/gcc/pic32c/6.2.1/../../../../pic32c/lib\libc.a(lib_a-readr.o)
 .comment       0x00000000       0x3d c:/program files (x86)/microchip/xc32/v2.15/bin/bin/../../lib/gcc/pic32c/6.2.1/../../../../pic32c/lib\libc.a(lib_a-readr.o)
 .debug_frame   0x00000000       0x2c c:/program files (x86)/microchip/xc32/v2.15/bin/bin/../../lib/gcc/pic32c/6.2.1/../../../../pic32c/lib\libc.a(lib_a-readr.o)
 .ARM.attributes
                0x00000000       0x2c c:/program files (x86)/microchip/xc32/v2.15/bin/bin/../../lib/gcc/pic32c/6.2.1/../../../../pic32c/lib\libc.a(lib_a-readr.o)
 .text          0x00000000        0x0 c:/program files (x86)/microchip/xc32/v2.15/bin/bin/../../lib/gcc/pic32c/6.2.1/../../../../pic32c/lib\libc.a(lib_a-reallocr.o)
 .data          0x00000000        0x0 c:/program files (x86)/microchip/xc32/v2.15/bin/bin/../../lib/gcc/pic32c/6.2.1/../../../../pic32c/lib\libc.a(lib_a-reallocr.o)
 .bss           0x00000000        0x0 c:/program files (x86)/microchip/xc32/v2.15/bin/bin/../../lib/gcc/pic32c/6.2.1/../../../../pic32c/lib\libc.a(lib_a-reallocr.o)
 .text          0x00000000        0x0 c:/program files (x86)/microchip/xc32/v2.15/bin/bin/../../lib/gcc/pic32c/6.2.1/../../../../pic32c/lib\libc.a(lib_a-sccl.o)
 .data          0x00000000        0x0 c:/program files (x86)/microchip/xc32/v2.15/bin/bin/../../lib/gcc/pic32c/6.2.1/../../../../pic32c/lib\libc.a(lib_a-sccl.o)
 .bss           0x00000000        0x0 c:/program files (x86)/microchip/xc32/v2.15/bin/bin/../../lib/gcc/pic32c/6.2.1/../../../../pic32c/lib\libc.a(lib_a-sccl.o)
 .text.__sccl   0x00000000       0x6c c:/program files (x86)/microchip/xc32/v2.15/bin/bin/../../lib/gcc/pic32c/6.2.1/../../../../pic32c/lib\libc.a(lib_a-sccl.o)
 .debug_info    0x00000000     0x1093 c:/program files (x86)/microchip/xc32/v2.15/bin/bin/../../lib/gcc/pic32c/6.2.1/../../../../pic32c/lib\libc.a(lib_a-sccl.o)
 .debug_abbrev  0x00000000      0x1d6 c:/program files (x86)/microchip/xc32/v2.15/bin/bin/../../lib/gcc/pic32c/6.2.1/../../../../pic32c/lib\libc.a(lib_a-sccl.o)
 .debug_loc     0x00000000      0x1ac c:/program files (x86)/microchip/xc32/v2.15/bin/bin/../../lib/gcc/pic32c/6.2.1/../../../../pic32c/lib\libc.a(lib_a-sccl.o)
 .debug_aranges
                0x00000000       0x20 c:/program files (x86)/microchip/xc32/v2.15/bin/bin/../../lib/gcc/pic32c/6.2.1/../../../../pic32c/lib\libc.a(lib_a-sccl.o)
 .debug_ranges  0x00000000       0x10 c:/program files (x86)/microchip/xc32/v2.15/bin/bin/../../lib/gcc/pic32c/6.2.1/../../../../pic32c/lib\libc.a(lib_a-sccl.o)
 .debug_line    0x00000000      0x287 c:/program files (x86)/microchip/xc32/v2.15/bin/bin/../../lib/gcc/pic32c/6.2.1/../../../../pic32c/lib\libc.a(lib_a-sccl.o)
 .debug_str     0x00000000        0xe c:/program files (x86)/microchip/xc32/v2.15/bin/bin/../../lib/gcc/pic32c/6.2.1/../../../../pic32c/lib\libc.a(lib_a-sccl.o)
 .comment       0x00000000       0x3d c:/program files (x86)/microchip/xc32/v2.15/bin/bin/../../lib/gcc/pic32c/6.2.1/../../../../pic32c/lib\libc.a(lib_a-sccl.o)
 .debug_frame   0x00000000       0x2c c:/program files (x86)/microchip/xc32/v2.15/bin/bin/../../lib/gcc/pic32c/6.2.1/../../../../pic32c/lib\libc.a(lib_a-sccl.o)
 .ARM.attributes
                0x00000000       0x2c c:/program files (x86)/microchip/xc32/v2.15/bin/bin/../../lib/gcc/pic32c/6.2.1/../../../../pic32c/lib\libc.a(lib_a-sccl.o)
 .text          0x00000000        0x0 c:/program files (x86)/microchip/xc32/v2.15/bin/bin/../../lib/gcc/pic32c/6.2.1/../../../../pic32c/lib\libc.a(lib_a-strtol.o)
 .data          0x00000000        0x0 c:/program files (x86)/microchip/xc32/v2.15/bin/bin/../../lib/gcc/pic32c/6.2.1/../../../../pic32c/lib\libc.a(lib_a-strtol.o)
 .bss           0x00000000        0x0 c:/program files (x86)/microchip/xc32/v2.15/bin/bin/../../lib/gcc/pic32c/6.2.1/../../../../pic32c/lib\libc.a(lib_a-strtol.o)
 .text._strtol_l.isra.0
                0x00000000      0x130 c:/program files (x86)/microchip/xc32/v2.15/bin/bin/../../lib/gcc/pic32c/6.2.1/../../../../pic32c/lib\libc.a(lib_a-strtol.o)
 .text._strtol_r
                0x00000000       0x24 c:/program files (x86)/microchip/xc32/v2.15/bin/bin/../../lib/gcc/pic32c/6.2.1/../../../../pic32c/lib\libc.a(lib_a-strtol.o)
 .text.strtol_l
                0x00000000       0x20 c:/program files (x86)/microchip/xc32/v2.15/bin/bin/../../lib/gcc/pic32c/6.2.1/../../../../pic32c/lib\libc.a(lib_a-strtol.o)
 .text.strtol   0x00000000       0x2c c:/program files (x86)/microchip/xc32/v2.15/bin/bin/../../lib/gcc/pic32c/6.2.1/../../../../pic32c/lib\libc.a(lib_a-strtol.o)
 .debug_info    0x00000000     0x1851 c:/program files (x86)/microchip/xc32/v2.15/bin/bin/../../lib/gcc/pic32c/6.2.1/../../../../pic32c/lib\libc.a(lib_a-strtol.o)
 .debug_abbrev  0x00000000      0x265 c:/program files (x86)/microchip/xc32/v2.15/bin/bin/../../lib/gcc/pic32c/6.2.1/../../../../pic32c/lib\libc.a(lib_a-strtol.o)
 .debug_loc     0x00000000      0x610 c:/program files (x86)/microchip/xc32/v2.15/bin/bin/../../lib/gcc/pic32c/6.2.1/../../../../pic32c/lib\libc.a(lib_a-strtol.o)
 .debug_aranges
                0x00000000       0x38 c:/program files (x86)/microchip/xc32/v2.15/bin/bin/../../lib/gcc/pic32c/6.2.1/../../../../pic32c/lib\libc.a(lib_a-strtol.o)
 .debug_ranges  0x00000000       0x60 c:/program files (x86)/microchip/xc32/v2.15/bin/bin/../../lib/gcc/pic32c/6.2.1/../../../../pic32c/lib\libc.a(lib_a-strtol.o)
 .debug_line    0x00000000      0x3b2 c:/program files (x86)/microchip/xc32/v2.15/bin/bin/../../lib/gcc/pic32c/6.2.1/../../../../pic32c/lib\libc.a(lib_a-strtol.o)
 .debug_str     0x00000000      0x12e c:/program files (x86)/microchip/xc32/v2.15/bin/bin/../../lib/gcc/pic32c/6.2.1/../../../../pic32c/lib\libc.a(lib_a-strtol.o)
 .comment       0x00000000       0x3d c:/program files (x86)/microchip/xc32/v2.15/bin/bin/../../lib/gcc/pic32c/6.2.1/../../../../pic32c/lib\libc.a(lib_a-strtol.o)
 .debug_frame   0x00000000       0x90 c:/program files (x86)/microchip/xc32/v2.15/bin/bin/../../lib/gcc/pic32c/6.2.1/../../../../pic32c/lib\libc.a(lib_a-strtol.o)
 .ARM.attributes
                0x00000000       0x2c c:/program files (x86)/microchip/xc32/v2.15/bin/bin/../../lib/gcc/pic32c/6.2.1/../../../../pic32c/lib\libc.a(lib_a-strtol.o)
 .text          0x00000000        0x0 c:/program files (x86)/microchip/xc32/v2.15/bin/bin/../../lib/gcc/pic32c/6.2.1/../../../../pic32c/lib\libc.a(lib_a-strtoll.o)
 .data          0x00000000        0x0 c:/program files (x86)/microchip/xc32/v2.15/bin/bin/../../lib/gcc/pic32c/6.2.1/../../../../pic32c/lib\libc.a(lib_a-strtoll.o)
 .bss           0x00000000        0x0 c:/program files (x86)/microchip/xc32/v2.15/bin/bin/../../lib/gcc/pic32c/6.2.1/../../../../pic32c/lib\libc.a(lib_a-strtoll.o)
 .text._strtoll_l.isra.0
                0x00000000      0x1bc c:/program files (x86)/microchip/xc32/v2.15/bin/bin/../../lib/gcc/pic32c/6.2.1/../../../../pic32c/lib\libc.a(lib_a-strtoll.o)
 .text._strtoll_r
                0x00000000       0x24 c:/program files (x86)/microchip/xc32/v2.15/bin/bin/../../lib/gcc/pic32c/6.2.1/../../../../pic32c/lib\libc.a(lib_a-strtoll.o)
 .text.strtoll_l
                0x00000000       0x20 c:/program files (x86)/microchip/xc32/v2.15/bin/bin/../../lib/gcc/pic32c/6.2.1/../../../../pic32c/lib\libc.a(lib_a-strtoll.o)
 .text.strtoll  0x00000000       0x2c c:/program files (x86)/microchip/xc32/v2.15/bin/bin/../../lib/gcc/pic32c/6.2.1/../../../../pic32c/lib\libc.a(lib_a-strtoll.o)
 .debug_info    0x00000000     0x1858 c:/program files (x86)/microchip/xc32/v2.15/bin/bin/../../lib/gcc/pic32c/6.2.1/../../../../pic32c/lib\libc.a(lib_a-strtoll.o)
 .debug_abbrev  0x00000000      0x281 c:/program files (x86)/microchip/xc32/v2.15/bin/bin/../../lib/gcc/pic32c/6.2.1/../../../../pic32c/lib\libc.a(lib_a-strtoll.o)
 .debug_loc     0x00000000      0x667 c:/program files (x86)/microchip/xc32/v2.15/bin/bin/../../lib/gcc/pic32c/6.2.1/../../../../pic32c/lib\libc.a(lib_a-strtoll.o)
 .debug_aranges
                0x00000000       0x38 c:/program files (x86)/microchip/xc32/v2.15/bin/bin/../../lib/gcc/pic32c/6.2.1/../../../../pic32c/lib\libc.a(lib_a-strtoll.o)
 .debug_ranges  0x00000000       0x60 c:/program files (x86)/microchip/xc32/v2.15/bin/bin/../../lib/gcc/pic32c/6.2.1/../../../../pic32c/lib\libc.a(lib_a-strtoll.o)
 .debug_line    0x00000000      0x3c3 c:/program files (x86)/microchip/xc32/v2.15/bin/bin/../../lib/gcc/pic32c/6.2.1/../../../../pic32c/lib\libc.a(lib_a-strtoll.o)
 .debug_str     0x00000000      0x12e c:/program files (x86)/microchip/xc32/v2.15/bin/bin/../../lib/gcc/pic32c/6.2.1/../../../../pic32c/lib\libc.a(lib_a-strtoll.o)
 .comment       0x00000000       0x3d c:/program files (x86)/microchip/xc32/v2.15/bin/bin/../../lib/gcc/pic32c/6.2.1/../../../../pic32c/lib\libc.a(lib_a-strtoll.o)
 .debug_frame   0x00000000       0x90 c:/program files (x86)/microchip/xc32/v2.15/bin/bin/../../lib/gcc/pic32c/6.2.1/../../../../pic32c/lib\libc.a(lib_a-strtoll.o)
 .ARM.attributes
                0x00000000       0x2c c:/program files (x86)/microchip/xc32/v2.15/bin/bin/../../lib/gcc/pic32c/6.2.1/../../../../pic32c/lib\libc.a(lib_a-strtoll.o)
 .text          0x00000000        0x0 c:/program files (x86)/microchip/xc32/v2.15/bin/bin/../../lib/gcc/pic32c/6.2.1/../../../../pic32c/lib\libc.a(lib_a-strtoull.o)
 .data          0x00000000        0x0 c:/program files (x86)/microchip/xc32/v2.15/bin/bin/../../lib/gcc/pic32c/6.2.1/../../../../pic32c/lib\libc.a(lib_a-strtoull.o)
 .bss           0x00000000        0x0 c:/program files (x86)/microchip/xc32/v2.15/bin/bin/../../lib/gcc/pic32c/6.2.1/../../../../pic32c/lib\libc.a(lib_a-strtoull.o)
 .text._strtoull_l.isra.0
                0x00000000      0x1c4 c:/program files (x86)/microchip/xc32/v2.15/bin/bin/../../lib/gcc/pic32c/6.2.1/../../../../pic32c/lib\libc.a(lib_a-strtoull.o)
 .text._strtoull_r
                0x00000000       0x24 c:/program files (x86)/microchip/xc32/v2.15/bin/bin/../../lib/gcc/pic32c/6.2.1/../../../../pic32c/lib\libc.a(lib_a-strtoull.o)
 .text.strtoull_l
                0x00000000       0x20 c:/program files (x86)/microchip/xc32/v2.15/bin/bin/../../lib/gcc/pic32c/6.2.1/../../../../pic32c/lib\libc.a(lib_a-strtoull.o)
 .text.strtoull
                0x00000000       0x2c c:/program files (x86)/microchip/xc32/v2.15/bin/bin/../../lib/gcc/pic32c/6.2.1/../../../../pic32c/lib\libc.a(lib_a-strtoull.o)
 .debug_info    0x00000000     0x185d c:/program files (x86)/microchip/xc32/v2.15/bin/bin/../../lib/gcc/pic32c/6.2.1/../../../../pic32c/lib\libc.a(lib_a-strtoull.o)
 .debug_abbrev  0x00000000      0x281 c:/program files (x86)/microchip/xc32/v2.15/bin/bin/../../lib/gcc/pic32c/6.2.1/../../../../pic32c/lib\libc.a(lib_a-strtoull.o)
 .debug_loc     0x00000000      0x609 c:/program files (x86)/microchip/xc32/v2.15/bin/bin/../../lib/gcc/pic32c/6.2.1/../../../../pic32c/lib\libc.a(lib_a-strtoull.o)
 .debug_aranges
                0x00000000       0x38 c:/program files (x86)/microchip/xc32/v2.15/bin/bin/../../lib/gcc/pic32c/6.2.1/../../../../pic32c/lib\libc.a(lib_a-strtoull.o)
 .debug_ranges  0x00000000       0x60 c:/program files (x86)/microchip/xc32/v2.15/bin/bin/../../lib/gcc/pic32c/6.2.1/../../../../pic32c/lib\libc.a(lib_a-strtoull.o)
 .debug_line    0x00000000      0x3b6 c:/program files (x86)/microchip/xc32/v2.15/bin/bin/../../lib/gcc/pic32c/6.2.1/../../../../pic32c/lib\libc.a(lib_a-strtoull.o)
 .debug_str     0x00000000      0x12e c:/program files (x86)/microchip/xc32/v2.15/bin/bin/../../lib/gcc/pic32c/6.2.1/../../../../pic32c/lib\libc.a(lib_a-strtoull.o)
 .comment       0x00000000       0x3d c:/program files (x86)/microchip/xc32/v2.15/bin/bin/../../lib/gcc/pic32c/6.2.1/../../../../pic32c/lib\libc.a(lib_a-strtoull.o)
 .debug_frame   0x00000000       0x90 c:/program files (x86)/microchip/xc32/v2.15/bin/bin/../../lib/gcc/pic32c/6.2.1/../../../../pic32c/lib\libc.a(lib_a-strtoull.o)
 .ARM.attributes
                0x00000000       0x2c c:/program files (x86)/microchip/xc32/v2.15/bin/bin/../../lib/gcc/pic32c/6.2.1/../../../../pic32c/lib\libc.a(lib_a-strtoull.o)
 .text          0x00000000        0x0 c:/program files (x86)/microchip/xc32/v2.15/bin/bin/../../lib/gcc/pic32c/6.2.1/../../../../pic32c/lib\libc.a(lib_a-wctomb_r.o)
 .data          0x00000000        0x0 c:/program files (x86)/microchip/xc32/v2.15/bin/bin/../../lib/gcc/pic32c/6.2.1/../../../../pic32c/lib\libc.a(lib_a-wctomb_r.o)
 .bss           0x00000000        0x0 c:/program files (x86)/microchip/xc32/v2.15/bin/bin/../../lib/gcc/pic32c/6.2.1/../../../../pic32c/lib\libc.a(lib_a-wctomb_r.o)
 .text._wctomb_r
                0x00000000       0x20 c:/program files (x86)/microchip/xc32/v2.15/bin/bin/../../lib/gcc/pic32c/6.2.1/../../../../pic32c/lib\libc.a(lib_a-wctomb_r.o)
 .text          0x00000000        0x0 c:/program files (x86)/microchip/xc32/v2.15/bin/bin/../../lib/gcc/pic32c/6.2.1/../../../../pic32c/lib\libc.a(lib_a-ctype_.o)
 .data          0x00000000        0x0 c:/program files (x86)/microchip/xc32/v2.15/bin/bin/../../lib/gcc/pic32c/6.2.1/../../../../pic32c/lib\libc.a(lib_a-ctype_.o)
 .bss           0x00000000        0x0 c:/program files (x86)/microchip/xc32/v2.15/bin/bin/../../lib/gcc/pic32c/6.2.1/../../../../pic32c/lib\libc.a(lib_a-ctype_.o)
 .text          0x00000000        0x0 c:/program files (x86)/microchip/xc32/v2.15/bin/bin/../../lib/gcc/pic32c/6.2.1/../../../../pic32c/lib\libc.a(lib_a-fclose.o)
 .data          0x00000000        0x0 c:/program files (x86)/microchip/xc32/v2.15/bin/bin/../../lib/gcc/pic32c/6.2.1/../../../../pic32c/lib\libc.a(lib_a-fclose.o)
 .bss           0x00000000        0x0 c:/program files (x86)/microchip/xc32/v2.15/bin/bin/../../lib/gcc/pic32c/6.2.1/../../../../pic32c/lib\libc.a(lib_a-fclose.o)
 .text._fclose_r
                0x00000000       0x8c c:/program files (x86)/microchip/xc32/v2.15/bin/bin/../../lib/gcc/pic32c/6.2.1/../../../../pic32c/lib\libc.a(lib_a-fclose.o)
 .text.fclose   0x00000000       0x14 c:/program files (x86)/microchip/xc32/v2.15/bin/bin/../../lib/gcc/pic32c/6.2.1/../../../../pic32c/lib\libc.a(lib_a-fclose.o)
 .debug_info    0x00000000     0x11e8 c:/program files (x86)/microchip/xc32/v2.15/bin/bin/../../lib/gcc/pic32c/6.2.1/../../../../pic32c/lib\libc.a(lib_a-fclose.o)
 .debug_abbrev  0x00000000      0x2ab c:/program files (x86)/microchip/xc32/v2.15/bin/bin/../../lib/gcc/pic32c/6.2.1/../../../../pic32c/lib\libc.a(lib_a-fclose.o)
 .debug_loc     0x00000000      0x1b5 c:/program files (x86)/microchip/xc32/v2.15/bin/bin/../../lib/gcc/pic32c/6.2.1/../../../../pic32c/lib\libc.a(lib_a-fclose.o)
 .debug_aranges
                0x00000000       0x28 c:/program files (x86)/microchip/xc32/v2.15/bin/bin/../../lib/gcc/pic32c/6.2.1/../../../../pic32c/lib\libc.a(lib_a-fclose.o)
 .debug_ranges  0x00000000       0x48 c:/program files (x86)/microchip/xc32/v2.15/bin/bin/../../lib/gcc/pic32c/6.2.1/../../../../pic32c/lib\libc.a(lib_a-fclose.o)
 .debug_line    0x00000000      0x294 c:/program files (x86)/microchip/xc32/v2.15/bin/bin/../../lib/gcc/pic32c/6.2.1/../../../../pic32c/lib\libc.a(lib_a-fclose.o)
 .debug_str     0x00000000       0x3f c:/program files (x86)/microchip/xc32/v2.15/bin/bin/../../lib/gcc/pic32c/6.2.1/../../../../pic32c/lib\libc.a(lib_a-fclose.o)
 .comment       0x00000000       0x3d c:/program files (x86)/microchip/xc32/v2.15/bin/bin/../../lib/gcc/pic32c/6.2.1/../../../../pic32c/lib\libc.a(lib_a-fclose.o)
 .debug_frame   0x00000000       0x44 c:/program files (x86)/microchip/xc32/v2.15/bin/bin/../../lib/gcc/pic32c/6.2.1/../../../../pic32c/lib\libc.a(lib_a-fclose.o)
 .ARM.attributes
                0x00000000       0x2c c:/program files (x86)/microchip/xc32/v2.15/bin/bin/../../lib/gcc/pic32c/6.2.1/../../../../pic32c/lib\libc.a(lib_a-fclose.o)
 .text          0x00000000        0x0 c:/program files (x86)/microchip/xc32/v2.15/bin/bin/../../lib/gcc/pic32c/6.2.1/../../../../pic32c/lib\libpic32c.a(close.o)
 .data          0x00000000        0x0 c:/program files (x86)/microchip/xc32/v2.15/bin/bin/../../lib/gcc/pic32c/6.2.1/../../../../pic32c/lib\libpic32c.a(close.o)
 .bss           0x00000000        0x0 c:/program files (x86)/microchip/xc32/v2.15/bin/bin/../../lib/gcc/pic32c/6.2.1/../../../../pic32c/lib\libpic32c.a(close.o)
 .text.close    0x00000000        0x8 c:/program files (x86)/microchip/xc32/v2.15/bin/bin/../../lib/gcc/pic32c/6.2.1/../../../../pic32c/lib\libpic32c.a(close.o)
 .text._close   0x00000000        0x8 c:/program files (x86)/microchip/xc32/v2.15/bin/bin/../../lib/gcc/pic32c/6.2.1/../../../../pic32c/lib\libpic32c.a(close.o)
 .gnu.warning.closestub
                0x00000000        0x0 c:/program files (x86)/microchip/xc32/v2.15/bin/bin/../../lib/gcc/pic32c/6.2.1/../../../../pic32c/lib\libpic32c.a(close.o)
 .debug_info    0x00000000      0x1f4 c:/program files (x86)/microchip/xc32/v2.15/bin/bin/../../lib/gcc/pic32c/6.2.1/../../../../pic32c/lib\libpic32c.a(close.o)
 .debug_abbrev  0x00000000       0x40 c:/program files (x86)/microchip/xc32/v2.15/bin/bin/../../lib/gcc/pic32c/6.2.1/../../../../pic32c/lib\libpic32c.a(close.o)
 .debug_aranges
                0x00000000       0x20 c:/program files (x86)/microchip/xc32/v2.15/bin/bin/../../lib/gcc/pic32c/6.2.1/../../../../pic32c/lib\libpic32c.a(close.o)
 .debug_ranges  0x00000000       0x10 c:/program files (x86)/microchip/xc32/v2.15/bin/bin/../../lib/gcc/pic32c/6.2.1/../../../../pic32c/lib\libpic32c.a(close.o)
 .debug_line    0x00000000       0xaa c:/program files (x86)/microchip/xc32/v2.15/bin/bin/../../lib/gcc/pic32c/6.2.1/../../../../pic32c/lib\libpic32c.a(close.o)
 .debug_str     0x00000000        0x0 c:/program files (x86)/microchip/xc32/v2.15/bin/bin/../../lib/gcc/pic32c/6.2.1/../../../../pic32c/lib\libpic32c.a(close.o)
 .comment       0x00000000       0x3d c:/program files (x86)/microchip/xc32/v2.15/bin/bin/../../lib/gcc/pic32c/6.2.1/../../../../pic32c/lib\libpic32c.a(close.o)
 .debug_frame   0x00000000       0x30 c:/program files (x86)/microchip/xc32/v2.15/bin/bin/../../lib/gcc/pic32c/6.2.1/../../../../pic32c/lib\libpic32c.a(close.o)
 .ARM.attributes
                0x00000000       0x2c c:/program files (x86)/microchip/xc32/v2.15/bin/bin/../../lib/gcc/pic32c/6.2.1/../../../../pic32c/lib\libpic32c.a(close.o)
 .text          0x00000000        0x0 c:/program files (x86)/microchip/xc32/v2.15/bin/bin/../../lib/gcc/pic32c/6.2.1/../../../../pic32c/lib\libpic32c.a(lseek.o)
 .data          0x00000000        0x0 c:/program files (x86)/microchip/xc32/v2.15/bin/bin/../../lib/gcc/pic32c/6.2.1/../../../../pic32c/lib\libpic32c.a(lseek.o)
 .bss           0x00000000        0x0 c:/program files (x86)/microchip/xc32/v2.15/bin/bin/../../lib/gcc/pic32c/6.2.1/../../../../pic32c/lib\libpic32c.a(lseek.o)
 .text._lseek   0x00000000        0x4 c:/program files (x86)/microchip/xc32/v2.15/bin/bin/../../lib/gcc/pic32c/6.2.1/../../../../pic32c/lib\libpic32c.a(lseek.o)
 .debug_info    0x00000000      0x1e4 c:/program files (x86)/microchip/xc32/v2.15/bin/bin/../../lib/gcc/pic32c/6.2.1/../../../../pic32c/lib\libpic32c.a(lseek.o)
 .debug_abbrev  0x00000000       0x2a c:/program files (x86)/microchip/xc32/v2.15/bin/bin/../../lib/gcc/pic32c/6.2.1/../../../../pic32c/lib\libpic32c.a(lseek.o)
 .debug_aranges
                0x00000000       0x20 c:/program files (x86)/microchip/xc32/v2.15/bin/bin/../../lib/gcc/pic32c/6.2.1/../../../../pic32c/lib\libpic32c.a(lseek.o)
 .debug_ranges  0x00000000       0x10 c:/program files (x86)/microchip/xc32/v2.15/bin/bin/../../lib/gcc/pic32c/6.2.1/../../../../pic32c/lib\libpic32c.a(lseek.o)
 .debug_line    0x00000000       0xaa c:/program files (x86)/microchip/xc32/v2.15/bin/bin/../../lib/gcc/pic32c/6.2.1/../../../../pic32c/lib\libpic32c.a(lseek.o)
 .debug_str     0x00000000        0x0 c:/program files (x86)/microchip/xc32/v2.15/bin/bin/../../lib/gcc/pic32c/6.2.1/../../../../pic32c/lib\libpic32c.a(lseek.o)
 .comment       0x00000000       0x3d c:/program files (x86)/microchip/xc32/v2.15/bin/bin/../../lib/gcc/pic32c/6.2.1/../../../../pic32c/lib\libpic32c.a(lseek.o)
 .debug_frame   0x00000000       0x20 c:/program files (x86)/microchip/xc32/v2.15/bin/bin/../../lib/gcc/pic32c/6.2.1/../../../../pic32c/lib\libpic32c.a(lseek.o)
 .ARM.attributes
                0x00000000       0x2c c:/program files (x86)/microchip/xc32/v2.15/bin/bin/../../lib/gcc/pic32c/6.2.1/../../../../pic32c/lib\libpic32c.a(lseek.o)
 .text          0x00000000        0x0 c:/program files (x86)/microchip/xc32/v2.15/bin/bin/../../lib/gcc/pic32c/6.2.1/../../../../pic32c/lib\libpic32c.a(read.o)
 .data          0x00000000        0x0 c:/program files (x86)/microchip/xc32/v2.15/bin/bin/../../lib/gcc/pic32c/6.2.1/../../../../pic32c/lib\libpic32c.a(read.o)
 .bss           0x00000000        0x0 c:/program files (x86)/microchip/xc32/v2.15/bin/bin/../../lib/gcc/pic32c/6.2.1/../../../../pic32c/lib\libpic32c.a(read.o)
 .text._read    0x00000000       0x2c c:/program files (x86)/microchip/xc32/v2.15/bin/bin/../../lib/gcc/pic32c/6.2.1/../../../../pic32c/lib\libpic32c.a(read.o)
 .debug_info    0x00000000      0x1e3 c:/program files (x86)/microchip/xc32/v2.15/bin/bin/../../lib/gcc/pic32c/6.2.1/../../../../pic32c/lib\libpic32c.a(read.o)
 .debug_abbrev  0x00000000       0x2a c:/program files (x86)/microchip/xc32/v2.15/bin/bin/../../lib/gcc/pic32c/6.2.1/../../../../pic32c/lib\libpic32c.a(read.o)
 .debug_loc     0x00000000       0x14 c:/program files (x86)/microchip/xc32/v2.15/bin/bin/../../lib/gcc/pic32c/6.2.1/../../../../pic32c/lib\libpic32c.a(read.o)
 .debug_aranges
                0x00000000       0x20 c:/program files (x86)/microchip/xc32/v2.15/bin/bin/../../lib/gcc/pic32c/6.2.1/../../../../pic32c/lib\libpic32c.a(read.o)
 .debug_ranges  0x00000000       0x10 c:/program files (x86)/microchip/xc32/v2.15/bin/bin/../../lib/gcc/pic32c/6.2.1/../../../../pic32c/lib\libpic32c.a(read.o)
 .debug_line    0x00000000       0xbd c:/program files (x86)/microchip/xc32/v2.15/bin/bin/../../lib/gcc/pic32c/6.2.1/../../../../pic32c/lib\libpic32c.a(read.o)
 .debug_str     0x00000000        0x0 c:/program files (x86)/microchip/xc32/v2.15/bin/bin/../../lib/gcc/pic32c/6.2.1/../../../../pic32c/lib\libpic32c.a(read.o)
 .comment       0x00000000       0x3d c:/program files (x86)/microchip/xc32/v2.15/bin/bin/../../lib/gcc/pic32c/6.2.1/../../../../pic32c/lib\libpic32c.a(read.o)
 .debug_frame   0x00000000       0x2c c:/program files (x86)/microchip/xc32/v2.15/bin/bin/../../lib/gcc/pic32c/6.2.1/../../../../pic32c/lib\libpic32c.a(read.o)
 .ARM.attributes
                0x00000000       0x2c c:/program files (x86)/microchip/xc32/v2.15/bin/bin/../../lib/gcc/pic32c/6.2.1/../../../../pic32c/lib\libpic32c.a(read.o)
 .text          0x00000000        0x0 c:/program files (x86)/microchip/xc32/v2.15/bin/bin/../../lib/gcc/pic32c/6.2.1/../../../../pic32c/lib\libpic32c.a(sbrk.o)
 .data          0x00000000        0x0 c:/program files (x86)/microchip/xc32/v2.15/bin/bin/../../lib/gcc/pic32c/6.2.1/../../../../pic32c/lib\libpic32c.a(sbrk.o)
 .text          0x00000000        0x0 c:/program files (x86)/microchip/xc32/v2.15/bin/bin/../../lib/gcc/pic32c/6.2.1/../../../../pic32c/lib\libpic32c.a(write.o)
 .data          0x00000000        0x0 c:/program files (x86)/microchip/xc32/v2.15/bin/bin/../../lib/gcc/pic32c/6.2.1/../../../../pic32c/lib\libpic32c.a(write.o)
 .bss           0x00000000        0x0 c:/program files (x86)/microchip/xc32/v2.15/bin/bin/../../lib/gcc/pic32c/6.2.1/../../../../pic32c/lib\libpic32c.a(write.o)
 .text._write   0x00000000       0x40 c:/program files (x86)/microchip/xc32/v2.15/bin/bin/../../lib/gcc/pic32c/6.2.1/../../../../pic32c/lib\libpic32c.a(write.o)
 .debug_info    0x00000000      0x1e5 c:/program files (x86)/microchip/xc32/v2.15/bin/bin/../../lib/gcc/pic32c/6.2.1/../../../../pic32c/lib\libpic32c.a(write.o)
 .debug_abbrev  0x00000000       0x2a c:/program files (x86)/microchip/xc32/v2.15/bin/bin/../../lib/gcc/pic32c/6.2.1/../../../../pic32c/lib\libpic32c.a(write.o)
 .debug_loc     0x00000000       0x14 c:/program files (x86)/microchip/xc32/v2.15/bin/bin/../../lib/gcc/pic32c/6.2.1/../../../../pic32c/lib\libpic32c.a(write.o)
 .debug_aranges
                0x00000000       0x20 c:/program files (x86)/microchip/xc32/v2.15/bin/bin/../../lib/gcc/pic32c/6.2.1/../../../../pic32c/lib\libpic32c.a(write.o)
 .debug_ranges  0x00000000       0x10 c:/program files (x86)/microchip/xc32/v2.15/bin/bin/../../lib/gcc/pic32c/6.2.1/../../../../pic32c/lib\libpic32c.a(write.o)
 .debug_line    0x00000000       0xbd c:/program files (x86)/microchip/xc32/v2.15/bin/bin/../../lib/gcc/pic32c/6.2.1/../../../../pic32c/lib\libpic32c.a(write.o)
 .debug_str     0x00000000        0x0 c:/program files (x86)/microchip/xc32/v2.15/bin/bin/../../lib/gcc/pic32c/6.2.1/../../../../pic32c/lib\libpic32c.a(write.o)
 .comment       0x00000000       0x3d c:/program files (x86)/microchip/xc32/v2.15/bin/bin/../../lib/gcc/pic32c/6.2.1/../../../../pic32c/lib\libpic32c.a(write.o)
 .debug_frame   0x00000000       0x2c c:/program files (x86)/microchip/xc32/v2.15/bin/bin/../../lib/gcc/pic32c/6.2.1/../../../../pic32c/lib\libpic32c.a(write.o)
 .ARM.attributes
                0x00000000       0x2c c:/program files (x86)/microchip/xc32/v2.15/bin/bin/../../lib/gcc/pic32c/6.2.1/../../../../pic32c/lib\libpic32c.a(write.o)
 .data          0x00000000        0x0 c:/program files (x86)/microchip/xc32/v2.15/bin/bin/../../lib/gcc/pic32c/6.2.1\libgcc.a(adddf3.o)
 .bss           0x00000000        0x0 c:/program files (x86)/microchip/xc32/v2.15/bin/bin/../../lib/gcc/pic32c/6.2.1\libgcc.a(adddf3.o)
 .data          0x00000000        0x0 c:/program files (x86)/microchip/xc32/v2.15/bin/bin/../../lib/gcc/pic32c/6.2.1\libgcc.a(unorddf2.o)
 .bss           0x00000000        0x0 c:/program files (x86)/microchip/xc32/v2.15/bin/bin/../../lib/gcc/pic32c/6.2.1\libgcc.a(unorddf2.o)
 .data          0x00000000        0x0 c:/program files (x86)/microchip/xc32/v2.15/bin/bin/../../lib/gcc/pic32c/6.2.1\libgcc.a(floatsidf.o)
 .bss           0x00000000        0x0 c:/program files (x86)/microchip/xc32/v2.15/bin/bin/../../lib/gcc/pic32c/6.2.1\libgcc.a(floatsidf.o)
 .text          0x00000000        0x0 c:/program files (x86)/microchip/xc32/v2.15/bin/bin/../../lib/gcc/pic32c/6.2.1/crtend.o
 .data          0x00000000        0x0 c:/program files (x86)/microchip/xc32/v2.15/bin/bin/../../lib/gcc/pic32c/6.2.1/crtend.o
 .bss           0x00000000        0x0 c:/program files (x86)/microchip/xc32/v2.15/bin/bin/../../lib/gcc/pic32c/6.2.1/crtend.o
 .eh_frame      0x00000000        0x4 c:/program files (x86)/microchip/xc32/v2.15/bin/bin/../../lib/gcc/pic32c/6.2.1/crtend.o
 .jcr           0x00000000        0x4 c:/program files (x86)/microchip/xc32/v2.15/bin/bin/../../lib/gcc/pic32c/6.2.1/crtend.o
 .comment       0x00000000       0x3d c:/program files (x86)/microchip/xc32/v2.15/bin/bin/../../lib/gcc/pic32c/6.2.1/crtend.o
 .ARM.attributes
                0x00000000       0x2c c:/program files (x86)/microchip/xc32/v2.15/bin/bin/../../lib/gcc/pic32c/6.2.1/crtend.o
 .text          0x00000000        0x0 c:/program files (x86)/microchip/xc32/v2.15/bin/bin/../../lib/gcc/pic32c/6.2.1/crtn.o
 .data          0x00000000        0x0 c:/program files (x86)/microchip/xc32/v2.15/bin/bin/../../lib/gcc/pic32c/6.2.1/crtn.o
 .bss           0x00000000        0x0 c:/program files (x86)/microchip/xc32/v2.15/bin/bin/../../lib/gcc/pic32c/6.2.1/crtn.o

Memory Configuration

Name             Origin             Length             Attributes
rom              0x00000000         0x00040000         xr
ram              0x20000000         0x00008000         xrw
*default*        0x00000000         0xffffffff
dtcm             0x00000000         0xffffffff
itcm             0x00000000         0xffffffff
tcm              0x00000000         0xffffffff

Linker script and memory map

LOAD c:/program files (x86)/microchip/xc32/v2.15/bin/bin/../../lib/gcc/pic32c/6.2.1/crti.o
LOAD c:/program files (x86)/microchip/xc32/v2.15/bin/bin/../../lib/gcc/pic32c/6.2.1/crtbegin.o
LOAD c:/program files (x86)/microchip/xc32/v2.15/bin/bin/../../lib/gcc/pic32c/6.2.1/../../../../pic32c/lib/crt0.o
LOAD build/sam_d21_xpro_winc1500/production/_ext/1242531425/plib_sercom3_usart.o
LOAD build/sam_d21_xpro_winc1500/production/_ext/1910849038/plib_evsys.o
LOAD build/sam_d21_xpro_winc1500/production/_ext/98527899/plib_sercom0_spi.o
LOAD build/sam_d21_xpro_winc1500/production/_ext/2003669979/wdrv_winc.o
LOAD build/sam_d21_xpro_winc1500/production/_ext/2003669979/wdrv_winc_assoc.o
LOAD build/sam_d21_xpro_winc1500/production/_ext/2003669979/wdrv_winc_authctx.o
LOAD build/sam_d21_xpro_winc1500/production/_ext/2003669979/wdrv_winc_bssctx.o
LOAD build/sam_d21_xpro_winc1500/production/_ext/2003669979/wdrv_winc_bssfind.o
LOAD build/sam_d21_xpro_winc1500/production/_ext/2003669979/wdrv_winc_custie.o
LOAD build/sam_d21_xpro_winc1500/production/_ext/2003669979/wdrv_winc_host_file.o
LOAD build/sam_d21_xpro_winc1500/production/_ext/2003669979/wdrv_winc_httpprovctx.o
LOAD build/sam_d21_xpro_winc1500/production/_ext/2003669979/wdrv_winc_nvm.o
LOAD build/sam_d21_xpro_winc1500/production/_ext/2003669979/wdrv_winc_powersave.o
LOAD build/sam_d21_xpro_winc1500/production/_ext/2003669979/wdrv_winc_socket.o
LOAD build/sam_d21_xpro_winc1500/production/_ext/2003669979/wdrv_winc_softap.o
LOAD build/sam_d21_xpro_winc1500/production/_ext/2003669979/wdrv_winc_ssl.o
LOAD build/sam_d21_xpro_winc1500/production/_ext/2003669979/wdrv_winc_sta.o
LOAD build/sam_d21_xpro_winc1500/production/_ext/2003669979/wdrv_winc_systime.o
LOAD build/sam_d21_xpro_winc1500/production/_ext/2003669979/wdrv_winc_wps.o
LOAD build/sam_d21_xpro_winc1500/production/_ext/1115528141/wdrv_winc_eint.o
LOAD build/sam_d21_xpro_winc1500/production/_ext/1115528141/wdrv_winc_gpio.o
LOAD build/sam_d21_xpro_winc1500/production/_ext/1837088568/wdrv_winc_spi.o
LOAD build/sam_d21_xpro_winc1500/production/_ext/1879120711/wdrv_winc_osal.o
LOAD build/sam_d21_xpro_winc1500/production/_ext/418110372/nm_common.o
LOAD build/sam_d21_xpro_winc1500/production/_ext/386821479/m2m_hif.o
LOAD build/sam_d21_xpro_winc1500/production/_ext/386821479/m2m_periph.o
LOAD build/sam_d21_xpro_winc1500/production/_ext/386821479/m2m_wifi.o
LOAD build/sam_d21_xpro_winc1500/production/_ext/386821479/nmasic.o
LOAD build/sam_d21_xpro_winc1500/production/_ext/386821479/nmbus.o
LOAD build/sam_d21_xpro_winc1500/production/_ext/386821479/nmdrv.o
LOAD build/sam_d21_xpro_winc1500/production/_ext/386821479/nmspi.o
LOAD build/sam_d21_xpro_winc1500/production/_ext/1591721076/spi_flash.o
LOAD build/sam_d21_xpro_winc1500/production/_ext/1591721076/flexible_flash.o
LOAD build/sam_d21_xpro_winc1500/production/_ext/386821479/m2m_ota.o
LOAD build/sam_d21_xpro_winc1500/production/_ext/386821479/m2m_ssl.o
LOAD build/sam_d21_xpro_winc1500/production/_ext/39655908/socket.o
LOAD build/sam_d21_xpro_winc1500/production/_ext/39655908/inet_ntop.o
LOAD build/sam_d21_xpro_winc1500/production/_ext/39655908/inet_addr.o
LOAD build/sam_d21_xpro_winc1500/production/_ext/1360937237/main.o
LOAD build/sam_d21_xpro_winc1500/production/_ext/281389274/initialization.o
LOAD build/sam_d21_xpro_winc1500/production/_ext/281389274/interrupts.o
LOAD build/sam_d21_xpro_winc1500/production/_ext/281389274/exceptions.o
LOAD build/sam_d21_xpro_winc1500/production/_ext/1966573984/xc32_monitor.o
LOAD build/sam_d21_xpro_winc1500/production/_ext/215775307/plib_port.o
LOAD build/sam_d21_xpro_winc1500/production/_ext/1912998524/plib_clock.o
LOAD build/sam_d21_xpro_winc1500/production/_ext/215722156/plib_nvic.o
LOAD build/sam_d21_xpro_winc1500/production/_ext/215415349/plib_dmac.o
LOAD build/sam_d21_xpro_winc1500/production/_ext/281389274/startup_xc32.o
LOAD build/sam_d21_xpro_winc1500/production/_ext/281389274/libc_syscalls.o
LOAD build/sam_d21_xpro_winc1500/production/_ext/1101428939/plib_eic.o
LOAD build/sam_d21_xpro_winc1500/production/_ext/1143908167/plib_tc3.o
LOAD build/sam_d21_xpro_winc1500/production/_ext/1751631207/sys_time.o
LOAD build/sam_d21_xpro_winc1500/production/_ext/2114417963/sys_console.o
LOAD build/sam_d21_xpro_winc1500/production/_ext/2114417963/sys_console_uart.o
LOAD build/sam_d21_xpro_winc1500/production/_ext/2114417963/sys_debug.o
LOAD build/sam_d21_xpro_winc1500/production/_ext/1062439459/drv_spi.o
LOAD build/sam_d21_xpro_winc1500/production/_ext/720072173/sys_int.o
LOAD build/sam_d21_xpro_winc1500/production/_ext/676678561/sys_dma.o
LOAD build/sam_d21_xpro_winc1500/production/_ext/1360937237/app.o
LOAD build/sam_d21_xpro_winc1500/production/_ext/281389274/tasks.o
                0x00000001                __MPLAB_BUILD = 0x1
                0x00002710                _min_heap_size = 0x2710
START GROUP
LOAD c:/program files (x86)/microchip/xc32/v2.15/bin/bin/../../lib/gcc/pic32c/6.2.1/../../../../pic32c/lib\libpic32c.a
LOAD c:/program files (x86)/microchip/xc32/v2.15/bin/bin/../../lib/gcc/pic32c/6.2.1\libgcc.a
LOAD c:/program files (x86)/microchip/xc32/v2.15/bin/bin/../../lib/gcc/pic32c/6.2.1/../../../../pic32c/lib\libc.a
LOAD c:/program files (x86)/microchip/xc32/v2.15/bin/bin/../../lib/gcc/pic32c/6.2.1/../../../../pic32c/lib\libm.a
END GROUP
LOAD c:/program files (x86)/microchip/xc32/v2.15/bin/bin/../../lib/gcc/pic32c/6.2.1/crtend.o
LOAD c:/program files (x86)/microchip/xc32/v2.15/bin/bin/../../lib/gcc/pic32c/6.2.1/crtn.o
                0x00040000                __rom_end = (ORIGIN (rom) + LENGTH (rom))
                0x20008000                __ram_end = (ORIGIN (ram) + LENGTH (ram))

.vectors        0x00000000       0xb0
                0x00000000                . = ALIGN (0x4)
                0x00000000                _sfixed = .
 *(.vectors .vectors.* .vectors_default .vectors_default.*)
 .vectors       0x00000000       0xb0 build/sam_d21_xpro_winc1500/production/_ext/281389274/interrupts.o
                0x00000000                exception_table
 *(.isr_vector)
 *(.reset*)
 *(.after_vectors)

.text           0x000000b0       0x24
                0x000000b0                . = ALIGN (0x4)
 *(.glue_7t)
 .glue_7t       0x000000b0        0x0 linker stubs
 *(.glue_7)
 .glue_7        0x000000b0        0x0 linker stubs
 *(.gnu.linkonce.r.*)
 *(.ARM.extab* .gnu.linkonce.armextab.*)
                0x000000b0                . = ALIGN (0x4)
 *(.init)
 .init          0x000000b0        0x4 c:/program files (x86)/microchip/xc32/v2.15/bin/bin/../../lib/gcc/pic32c/6.2.1/crti.o
                0x000000b0                _init
 .init          0x000000b4        0x8 c:/program files (x86)/microchip/xc32/v2.15/bin/bin/../../lib/gcc/pic32c/6.2.1/crtn.o
                0x000000bc                . = ALIGN (0x4)
                0x000000bc                __preinit_array_start = .
 *(.preinit_array)
                0x000000bc                __preinit_array_end = .
                0x000000bc                . = ALIGN (0x4)
                0x000000bc                __init_array_start = .
 *(SORT(.init_array.*))
 .init_array.00000
                0x000000bc        0x4 c:/program files (x86)/microchip/xc32/v2.15/bin/bin/../../lib/gcc/pic32c/6.2.1/../../../../pic32c/lib\libc.a(lib_a-__call_atexit.o)
 *(.init_array)
 .init_array    0x000000c0        0x4 c:/program files (x86)/microchip/xc32/v2.15/bin/bin/../../lib/gcc/pic32c/6.2.1/crtbegin.o
                0x000000c4                __init_array_end = .
                0x000000c4                . = ALIGN (0x4)
 *crtbegin.o(.ctors)
 *(EXCLUDE_FILE(*crtend.o) .ctors)
 *(SORT(.ctors.*))
 *crtend.o(.ctors)
                0x000000c4                . = ALIGN (0x4)
 *(.fini)
 .fini          0x000000c4        0x4 c:/program files (x86)/microchip/xc32/v2.15/bin/bin/../../lib/gcc/pic32c/6.2.1/crti.o
                0x000000c4                _fini
 .fini          0x000000c8        0x8 c:/program files (x86)/microchip/xc32/v2.15/bin/bin/../../lib/gcc/pic32c/6.2.1/crtn.o
                0x000000d0                . = ALIGN (0x4)
                0x000000d0                __fini_array_start = .
 *(.fini_array)
 .fini_array    0x000000d0        0x4 c:/program files (x86)/microchip/xc32/v2.15/bin/bin/../../lib/gcc/pic32c/6.2.1/crtbegin.o
 *(SORT(.fini_array.*))
                0x000000d4                __fini_array_end = .
 *crtbegin.o(.dtors)
 *(EXCLUDE_FILE(*crtend.o) .dtors)
 *(SORT(.dtors.*))
 *crtend.o(.dtors)
                0x000000d4                . = ALIGN (0x4)
                0x000000d4                _efixed = .
                [!provide]                PROVIDE (__exidx_start, .)

.ARM.exidx      0x000000d4        0x8
 *(.ARM.exidx* .gnu.linkonce.armexidx.*)
 .ARM.exidx     0x000000d4        0x8 c:/program files (x86)/microchip/xc32/v2.15/bin/bin/../../lib/gcc/pic32c/6.2.1\libgcc.a(_udivmoddi4.o)
                [!provide]                PROVIDE (__exidx_end, .)
                0x000000dc                . = ALIGN (0x4)
                0x000000dc                _etext = .

.bss            0x20000000      0x254
                0x20000000                . = ALIGN (0x4)
                0x20000000                __bss_start__ = .
                0x20000000                _sbss = .
                0x20000000                _szero = .
 *(COMMON)
 COMMON         0x20000000       0x30 build/sam_d21_xpro_winc1500/production/_ext/1242531425/plib_sercom3_usart.o
                0x20000000                sercom3USARTObj
 COMMON         0x20000030       0x2c build/sam_d21_xpro_winc1500/production/_ext/98527899/plib_sercom0_spi.o
                0x20000030                sercom0SPIObj
 COMMON         0x2000005c        0x4 build/sam_d21_xpro_winc1500/production/_ext/2003669979/wdrv_winc.o
                0x2000005c                pfWINCDebugPrintCb
 COMMON         0x20000060       0x28 build/sam_d21_xpro_winc1500/production/_ext/386821479/m2m_hif.o
                0x20000060                gstrHifCxt
 COMMON         0x20000088       0xbc build/sam_d21_xpro_winc1500/production/_ext/39655908/socket.o
                0x20000088                gu16BufferSize
                0x2000008a                gsockerrno
                0x2000008b                gu8OpCode
                0x2000008c                gastrSockets
                0x2000013c                gpfAppSocketCb
                0x20000140                gpfAppResolveCb
 COMMON         0x20000144       0x14 build/sam_d21_xpro_winc1500/production/_ext/281389274/initialization.o
                0x20000144                sysObj
 COMMON         0x20000158       0x20 build/sam_d21_xpro_winc1500/production/_ext/215415349/plib_dmac.o
                0x20000158                dmacChannelObj
 COMMON         0x20000178       0xc0 build/sam_d21_xpro_winc1500/production/_ext/1101428939/plib_eic.o
                0x20000178                eicCallbackObject
 COMMON         0x20000238        0x8 build/sam_d21_xpro_winc1500/production/_ext/1143908167/plib_tc3.o
                0x20000238                TC3_CallbackObject
 COMMON         0x20000240        0x9 build/sam_d21_xpro_winc1500/production/_ext/2114417963/sys_debug.o
                0x20000240                sysDebugInstance
                0x20000248                gblErrLvl
 *fill*         0x20000249        0x3 
 COMMON         0x2000024c        0x1 build/sam_d21_xpro_winc1500/production/_ext/1360937237/app.o
                0x2000024c                appData
 *fill*         0x2000024d        0x3 
 COMMON         0x20000250        0x4 c:/program files (x86)/microchip/xc32/v2.15/bin/bin/../../lib/gcc/pic32c/6.2.1/../../../../pic32c/lib\libc.a(lib_a-reent.o)
                0x20000250                errno
                0x20000254                . = ALIGN (0x4)
                0x20000254                __bss_end__ = .
                0x20000254                _ebss = .
                0x20000254                _ezero = .
                0x20000254                . = ALIGN (0x4)
                0x20000254                _end = .
                0x20007fff                _ram_end_ = ((ORIGIN (ram) + LENGTH (ram)) - 0x1)
OUTPUT(dist/sam_d21_xpro_winc1500/production/weather_client_samd21_xpro_winc1500.X.production.elf elf32-littlearm)
LOAD stack
LOAD data_init

.ARM.attributes
                0x00000000       0x28
 .ARM.attributes
                0x00000000       0x1e c:/program files (x86)/microchip/xc32/v2.15/bin/bin/../../lib/gcc/pic32c/6.2.1/crti.o
 .ARM.attributes
                0x0000001e       0x2c c:/program files (x86)/microchip/xc32/v2.15/bin/bin/../../lib/gcc/pic32c/6.2.1/crtbegin.o
 .ARM.attributes
                0x0000004a       0x32 build/sam_d21_xpro_winc1500/production/_ext/1242531425/plib_sercom3_usart.o
 .ARM.attributes
                0x0000007c       0x32 build/sam_d21_xpro_winc1500/production/_ext/1910849038/plib_evsys.o
 .ARM.attributes
                0x000000ae       0x32 build/sam_d21_xpro_winc1500/production/_ext/98527899/plib_sercom0_spi.o
 .ARM.attributes
                0x000000e0       0x32 build/sam_d21_xpro_winc1500/production/_ext/2003669979/wdrv_winc.o
 .ARM.attributes
                0x00000112       0x32 build/sam_d21_xpro_winc1500/production/_ext/1115528141/wdrv_winc_gpio.o
 .ARM.attributes
                0x00000144       0x32 build/sam_d21_xpro_winc1500/production/_ext/1837088568/wdrv_winc_spi.o
 .ARM.attributes
                0x00000176       0x32 build/sam_d21_xpro_winc1500/production/_ext/1879120711/wdrv_winc_osal.o
 .ARM.attributes
                0x000001a8       0x32 build/sam_d21_xpro_winc1500/production/_ext/418110372/nm_common.o
 .ARM.attributes
                0x000001da       0x32 build/sam_d21_xpro_winc1500/production/_ext/386821479/m2m_hif.o
 .ARM.attributes
                0x0000020c       0x32 build/sam_d21_xpro_winc1500/production/_ext/386821479/m2m_wifi.o
 .ARM.attributes
                0x0000023e       0x32 build/sam_d21_xpro_winc1500/production/_ext/386821479/nmasic.o
 .ARM.attributes
                0x00000270       0x32 build/sam_d21_xpro_winc1500/production/_ext/386821479/nmbus.o
 .ARM.attributes
                0x000002a2       0x32 build/sam_d21_xpro_winc1500/production/_ext/386821479/nmdrv.o
 .ARM.attributes
                0x000002d4       0x32 build/sam_d21_xpro_winc1500/production/_ext/386821479/nmspi.o
 .ARM.attributes
                0x00000306       0x32 build/sam_d21_xpro_winc1500/production/_ext/1591721076/spi_flash.o
 .ARM.attributes
                0x00000338       0x32 build/sam_d21_xpro_winc1500/production/_ext/39655908/socket.o
 .ARM.attributes
                0x0000036a       0x32 build/sam_d21_xpro_winc1500/production/_ext/1360937237/main.o
 .ARM.attributes
                0x0000039c       0x32 build/sam_d21_xpro_winc1500/production/_ext/281389274/initialization.o
 .ARM.attributes
                0x000003ce       0x32 build/sam_d21_xpro_winc1500/production/_ext/281389274/interrupts.o
 .ARM.attributes
                0x00000400       0x32 build/sam_d21_xpro_winc1500/production/_ext/281389274/exceptions.o
 .ARM.attributes
                0x00000432       0x32 build/sam_d21_xpro_winc1500/production/_ext/215775307/plib_port.o
 .ARM.attributes
                0x00000464       0x32 build/sam_d21_xpro_winc1500/production/_ext/1912998524/plib_clock.o
 .ARM.attributes
                0x00000496       0x32 build/sam_d21_xpro_winc1500/production/_ext/215722156/plib_nvic.o
 .ARM.attributes
                0x000004c8       0x32 build/sam_d21_xpro_winc1500/production/_ext/215415349/plib_dmac.o
 .ARM.attributes
                0x000004fa       0x32 build/sam_d21_xpro_winc1500/production/_ext/281389274/startup_xc32.o
 .ARM.attributes
                0x0000052c       0x32 build/sam_d21_xpro_winc1500/production/_ext/1101428939/plib_eic.o
 .ARM.attributes
                0x0000055e       0x32 build/sam_d21_xpro_winc1500/production/_ext/1143908167/plib_tc3.o
 .ARM.attributes
                0x00000590       0x32 build/sam_d21_xpro_winc1500/production/_ext/1751631207/sys_time.o
 .ARM.attributes
                0x000005c2       0x32 build/sam_d21_xpro_winc1500/production/_ext/2114417963/sys_console.o
 .ARM.attributes
                0x000005f4       0x32 build/sam_d21_xpro_winc1500/production/_ext/2114417963/sys_console_uart.o
 .ARM.attributes
                0x00000626       0x32 build/sam_d21_xpro_winc1500/production/_ext/2114417963/sys_debug.o
 .ARM.attributes
                0x00000658       0x32 build/sam_d21_xpro_winc1500/production/_ext/1062439459/drv_spi.o
 .ARM.attributes
                0x0000068a       0x32 build/sam_d21_xpro_winc1500/production/_ext/720072173/sys_int.o
 .ARM.attributes
                0x000006bc       0x32 build/sam_d21_xpro_winc1500/production/_ext/676678561/sys_dma.o
 .ARM.attributes
                0x000006ee       0x32 build/sam_d21_xpro_winc1500/production/_ext/1360937237/app.o
 .ARM.attributes
                0x00000720       0x32 build/sam_d21_xpro_winc1500/production/_ext/281389274/tasks.o
 .ARM.attributes
                0x00000752       0x2c c:/program files (x86)/microchip/xc32/v2.15/bin/bin/../../lib/gcc/pic32c/6.2.1/../../../../pic32c/lib\libpic32c.a(data_init.o)
 .ARM.attributes
                0x0000077e       0x1e c:/program files (x86)/microchip/xc32/v2.15/bin/bin/../../lib/gcc/pic32c/6.2.1\libgcc.a(_udivsi3.o)
 .ARM.attributes
                0x0000079c       0x1e c:/program files (x86)/microchip/xc32/v2.15/bin/bin/../../lib/gcc/pic32c/6.2.1\libgcc.a(_divsi3.o)
 .ARM.attributes
                0x000007ba       0x1e c:/program files (x86)/microchip/xc32/v2.15/bin/bin/../../lib/gcc/pic32c/6.2.1\libgcc.a(_dvmd_tls.o)
 .ARM.attributes
                0x000007d8       0x1e c:/program files (x86)/microchip/xc32/v2.15/bin/bin/../../lib/gcc/pic32c/6.2.1\libgcc.a(_aeabi_uldivmod.o)
 .ARM.attributes
                0x000007f6       0x2c c:/program files (x86)/microchip/xc32/v2.15/bin/bin/../../lib/gcc/pic32c/6.2.1\libgcc.a(_fixunsdfsi.o)
 .ARM.attributes
                0x00000822       0x2c c:/program files (x86)/microchip/xc32/v2.15/bin/bin/../../lib/gcc/pic32c/6.2.1\libgcc.a(_udivmoddi4.o)
 .ARM.attributes
                0x0000084e       0x2c c:/program files (x86)/microchip/xc32/v2.15/bin/bin/../../lib/gcc/pic32c/6.2.1\libgcc.a(mulsf3.o)
 .ARM.attributes
                0x0000087a       0x2c c:/program files (x86)/microchip/xc32/v2.15/bin/bin/../../lib/gcc/pic32c/6.2.1\libgcc.a(floatunsisf.o)
 .ARM.attributes
                0x000008a6       0x2c c:/program files (x86)/microchip/xc32/v2.15/bin/bin/../../lib/gcc/pic32c/6.2.1\libgcc.a(divdf3.o)
 .ARM.attributes
                0x000008d2       0x2c c:/program files (x86)/microchip/xc32/v2.15/bin/bin/../../lib/gcc/pic32c/6.2.1\libgcc.a(muldf3.o)
 .ARM.attributes
                0x000008fe       0x2c c:/program files (x86)/microchip/xc32/v2.15/bin/bin/../../lib/gcc/pic32c/6.2.1\libgcc.a(subdf3.o)
 .ARM.attributes
                0x0000092a       0x2c c:/program files (x86)/microchip/xc32/v2.15/bin/bin/../../lib/gcc/pic32c/6.2.1\libgcc.a(fixdfsi.o)
 .ARM.attributes
                0x00000956       0x2c c:/program files (x86)/microchip/xc32/v2.15/bin/bin/../../lib/gcc/pic32c/6.2.1\libgcc.a(floatunsidf.o)
 .ARM.attributes
                0x00000982       0x2c c:/program files (x86)/microchip/xc32/v2.15/bin/bin/../../lib/gcc/pic32c/6.2.1\libgcc.a(extendsfdf2.o)
 .ARM.attributes
                0x000009ae       0x1e c:/program files (x86)/microchip/xc32/v2.15/bin/bin/../../lib/gcc/pic32c/6.2.1\libgcc.a(_arm_cmpdf2.o)
 .ARM.attributes
                0x000009cc       0x1e c:/program files (x86)/microchip/xc32/v2.15/bin/bin/../../lib/gcc/pic32c/6.2.1\libgcc.a(_clzsi2.o)
 .ARM.attributes
                0x000009ea       0x1e c:/program files (x86)/microchip/xc32/v2.15/bin/bin/../../lib/gcc/pic32c/6.2.1\libgcc.a(_clzdi2.o)
 .ARM.attributes
                0x00000a08       0x2c c:/program files (x86)/microchip/xc32/v2.15/bin/bin/../../lib/gcc/pic32c/6.2.1\libgcc.a(eqdf2.o)
 .ARM.attributes
                0x00000a34       0x2c c:/program files (x86)/microchip/xc32/v2.15/bin/bin/../../lib/gcc/pic32c/6.2.1\libgcc.a(gedf2.o)
 .ARM.attributes
                0x00000a60       0x2c c:/program files (x86)/microchip/xc32/v2.15/bin/bin/../../lib/gcc/pic32c/6.2.1\libgcc.a(ledf2.o)
 .ARM.attributes
                0x00000a8c       0x2c c:/program files (x86)/microchip/xc32/v2.15/bin/bin/../../lib/gcc/pic32c/6.2.1/../../../../pic32c/lib\libc.a(lib_a-impure.o)
 .ARM.attributes
                0x00000ab8       0x2c c:/program files (x86)/microchip/xc32/v2.15/bin/bin/../../lib/gcc/pic32c/6.2.1/../../../../pic32c/lib\libc.a(lib_a-init.o)
 .ARM.attributes
                0x00000ae4       0x2c c:/program files (x86)/microchip/xc32/v2.15/bin/bin/../../lib/gcc/pic32c/6.2.1/../../../../pic32c/lib\libc.a(lib_a-malloc.o)
 .ARM.attributes
                0x00000b10       0x2c c:/program files (x86)/microchip/xc32/v2.15/bin/bin/../../lib/gcc/pic32c/6.2.1/../../../../pic32c/lib\libc.a(lib_a-mallocr.o)
 .ARM.attributes
                0x00000b3c       0x2c c:/program files (x86)/microchip/xc32/v2.15/bin/bin/../../lib/gcc/pic32c/6.2.1/../../../../pic32c/lib\libc.a(lib_a-memcpy-stub.o)
 .ARM.attributes
                0x00000b68       0x2c c:/program files (x86)/microchip/xc32/v2.15/bin/bin/../../lib/gcc/pic32c/6.2.1/../../../../pic32c/lib\libc.a(lib_a-memset.o)
 .ARM.attributes
                0x00000b94       0x2c c:/program files (x86)/microchip/xc32/v2.15/bin/bin/../../lib/gcc/pic32c/6.2.1/../../../../pic32c/lib\libc.a(lib_a-mlock.o)
 .ARM.attributes
                0x00000bc0       0x2c c:/program files (x86)/microchip/xc32/v2.15/bin/bin/../../lib/gcc/pic32c/6.2.1/../../../../pic32c/lib\libc.a(lib_a-sbrkr.o)
 .ARM.attributes
                0x00000bec       0x2c c:/program files (x86)/microchip/xc32/v2.15/bin/bin/../../lib/gcc/pic32c/6.2.1/../../../../pic32c/lib\libc.a(lib_a-sprintf.o)
 .ARM.attributes
                0x00000c18       0x2c c:/program files (x86)/microchip/xc32/v2.15/bin/bin/../../lib/gcc/pic32c/6.2.1/../../../../pic32c/lib\libc.a(lib_a-strchr.o)
 .ARM.attributes
                0x00000c44       0x2c c:/program files (x86)/microchip/xc32/v2.15/bin/bin/../../lib/gcc/pic32c/6.2.1/../../../../pic32c/lib\libc.a(lib_a-strcpy.o)
 .ARM.attributes
                0x00000c70       0x2c c:/program files (x86)/microchip/xc32/v2.15/bin/bin/../../lib/gcc/pic32c/6.2.1/../../../../pic32c/lib\libc.a(lib_a-strlen-stub.o)
 .ARM.attributes
                0x00000c9c       0x2c c:/program files (x86)/microchip/xc32/v2.15/bin/bin/../../lib/gcc/pic32c/6.2.1/../../../../pic32c/lib\libc.a(lib_a-strstr.o)
 .ARM.attributes
                0x00000cc8       0x2c c:/program files (x86)/microchip/xc32/v2.15/bin/bin/../../lib/gcc/pic32c/6.2.1/../../../../pic32c/lib\libc.a(lib_a-svfprintf.o)
 .ARM.attributes
                0x00000cf4       0x2c c:/program files (x86)/microchip/xc32/v2.15/bin/bin/../../lib/gcc/pic32c/6.2.1/../../../../pic32c/lib\libc.a(lib_a-vsnprintf.o)
 .ARM.attributes
                0x00000d20       0x2c c:/program files (x86)/microchip/xc32/v2.15/bin/bin/../../lib/gcc/pic32c/6.2.1/../../../../pic32c/lib\libc.a(lib_a-__call_atexit.o)
 .ARM.attributes
                0x00000d4c       0x2c c:/program files (x86)/microchip/xc32/v2.15/bin/bin/../../lib/gcc/pic32c/6.2.1/../../../../pic32c/lib\libc.a(lib_a-atexit.o)
 .ARM.attributes
                0x00000d78       0x2c c:/program files (x86)/microchip/xc32/v2.15/bin/bin/../../lib/gcc/pic32c/6.2.1/../../../../pic32c/lib\libc.a(lib_a-dtoa.o)
 .ARM.attributes
                0x00000da4       0x2c c:/program files (x86)/microchip/xc32/v2.15/bin/bin/../../lib/gcc/pic32c/6.2.1/../../../../pic32c/lib\libc.a(lib_a-fini.o)
 .ARM.attributes
                0x00000dd0       0x2c c:/program files (x86)/microchip/xc32/v2.15/bin/bin/../../lib/gcc/pic32c/6.2.1/../../../../pic32c/lib\libc.a(lib_a-freer.o)
 .ARM.attributes
                0x00000dfc       0x2c c:/program files (x86)/microchip/xc32/v2.15/bin/bin/../../lib/gcc/pic32c/6.2.1/../../../../pic32c/lib\libc.a(lib_a-localeconv.o)
 .ARM.attributes
                0x00000e28       0x2c c:/program files (x86)/microchip/xc32/v2.15/bin/bin/../../lib/gcc/pic32c/6.2.1/../../../../pic32c/lib\libc.a(lib_a-memchr-stub.o)
 .ARM.attributes
                0x00000e54       0x2c c:/program files (x86)/microchip/xc32/v2.15/bin/bin/../../lib/gcc/pic32c/6.2.1/../../../../pic32c/lib\libc.a(lib_a-memcmp.o)
 .ARM.attributes
                0x00000e80       0x2c c:/program files (x86)/microchip/xc32/v2.15/bin/bin/../../lib/gcc/pic32c/6.2.1/../../../../pic32c/lib\libc.a(lib_a-mprec.o)
 .ARM.attributes
                0x00000eac       0x2c c:/program files (x86)/microchip/xc32/v2.15/bin/bin/../../lib/gcc/pic32c/6.2.1/../../../../pic32c/lib\libc.a(lib_a-reent.o)
 .ARM.attributes
                0x00000ed8       0x2c c:/program files (x86)/microchip/xc32/v2.15/bin/bin/../../lib/gcc/pic32c/6.2.1/../../../../pic32c/lib\libc.a(lib_a-s_frexp.o)
 .ARM.attributes
                0x00000f04       0x2c c:/program files (x86)/microchip/xc32/v2.15/bin/bin/../../lib/gcc/pic32c/6.2.1/../../../../pic32c/lib\libc.a(lib_a-strncpy.o)
 .ARM.attributes
                0x00000f30       0x2c c:/program files (x86)/microchip/xc32/v2.15/bin/bin/../../lib/gcc/pic32c/6.2.1/../../../../pic32c/lib\libc.a(lib_a-svfiprintf.o)
 .ARM.attributes
                0x00000f5c       0x2c c:/program files (x86)/microchip/xc32/v2.15/bin/bin/../../lib/gcc/pic32c/6.2.1/../../../../pic32c/lib\libc.a(lib_a-__atexit.o)
 .ARM.attributes
                0x00000f88       0x2c c:/program files (x86)/microchip/xc32/v2.15/bin/bin/../../lib/gcc/pic32c/6.2.1/../../../../pic32c/lib\libc.a(lib_a-callocr.o)
 .ARM.attributes
                0x00000fb4       0x2c c:/program files (x86)/microchip/xc32/v2.15/bin/bin/../../lib/gcc/pic32c/6.2.1/../../../../pic32c/lib\libc.a(lib_a-locale.o)
 .ARM.attributes
                0x00000fe0       0x2c c:/program files (x86)/microchip/xc32/v2.15/bin/bin/../../lib/gcc/pic32c/6.2.1/../../../../pic32c/lib\libc.a(lib_a-mbtowc_r.o)
 .ARM.attributes
                0x0000100c       0x2c c:/program files (x86)/microchip/xc32/v2.15/bin/bin/../../lib/gcc/pic32c/6.2.1/../../../../pic32c/lib\libc.a(lib_a-memmove.o)
 .ARM.attributes
                0x00001038       0x2c c:/program files (x86)/microchip/xc32/v2.15/bin/bin/../../lib/gcc/pic32c/6.2.1/../../../../pic32c/lib\libc.a(lib_a-reallocr.o)
 .ARM.attributes
                0x00001064       0x2c c:/program files (x86)/microchip/xc32/v2.15/bin/bin/../../lib/gcc/pic32c/6.2.1/../../../../pic32c/lib\libc.a(lib_a-wctomb_r.o)
 .ARM.attributes
                0x00001090       0x2c c:/program files (x86)/microchip/xc32/v2.15/bin/bin/../../lib/gcc/pic32c/6.2.1/../../../../pic32c/lib\libc.a(lib_a-ctype_.o)
 .ARM.attributes
                0x000010bc       0x2c c:/program files (x86)/microchip/xc32/v2.15/bin/bin/../../lib/gcc/pic32c/6.2.1/../../../../pic32c/lib\libpic32c.a(sbrk.o)
 .ARM.attributes
                0x000010e8       0x2c c:/program files (x86)/microchip/xc32/v2.15/bin/bin/../../lib/gcc/pic32c/6.2.1\libgcc.a(adddf3.o)
 .ARM.attributes
                0x00001114       0x2c c:/program files (x86)/microchip/xc32/v2.15/bin/bin/../../lib/gcc/pic32c/6.2.1\libgcc.a(unorddf2.o)
 .ARM.attributes
                0x00001140       0x2c c:/program files (x86)/microchip/xc32/v2.15/bin/bin/../../lib/gcc/pic32c/6.2.1\libgcc.a(floatsidf.o)
 .ARM.attributes
                0x0000116c       0x1e c:/program files (x86)/microchip/xc32/v2.15/bin/bin/../../lib/gcc/pic32c/6.2.1/crtn.o

.comment        0x00000000       0x3c
 .comment       0x00000000       0x3c c:/program files (x86)/microchip/xc32/v2.15/bin/bin/../../lib/gcc/pic32c/6.2.1/crtbegin.o
                                 0x3d (size before relaxing)
 .comment       0x0000003c       0x3d build/sam_d21_xpro_winc1500/production/_ext/1242531425/plib_sercom3_usart.o
 .comment       0x0000003c       0x3d build/sam_d21_xpro_winc1500/production/_ext/1910849038/plib_evsys.o
 .comment       0x0000003c       0x3d build/sam_d21_xpro_winc1500/production/_ext/98527899/plib_sercom0_spi.o
 .comment       0x0000003c       0x3d build/sam_d21_xpro_winc1500/production/_ext/2003669979/wdrv_winc.o
 .comment       0x0000003c       0x3d build/sam_d21_xpro_winc1500/production/_ext/1115528141/wdrv_winc_gpio.o
 .comment       0x0000003c       0x3d build/sam_d21_xpro_winc1500/production/_ext/1837088568/wdrv_winc_spi.o
 .comment       0x0000003c       0x3d build/sam_d21_xpro_winc1500/production/_ext/1879120711/wdrv_winc_osal.o
 .comment       0x0000003c       0x3d build/sam_d21_xpro_winc1500/production/_ext/418110372/nm_common.o
 .comment       0x0000003c       0x3d build/sam_d21_xpro_winc1500/production/_ext/386821479/m2m_hif.o
 .comment       0x0000003c       0x3d build/sam_d21_xpro_winc1500/production/_ext/386821479/m2m_wifi.o
 .comment       0x0000003c       0x3d build/sam_d21_xpro_winc1500/production/_ext/386821479/nmasic.o
 .comment       0x0000003c       0x3d build/sam_d21_xpro_winc1500/production/_ext/386821479/nmbus.o
 .comment       0x0000003c       0x3d build/sam_d21_xpro_winc1500/production/_ext/386821479/nmdrv.o
 .comment       0x0000003c       0x3d build/sam_d21_xpro_winc1500/production/_ext/386821479/nmspi.o
 .comment       0x0000003c       0x3d build/sam_d21_xpro_winc1500/production/_ext/1591721076/spi_flash.o
 .comment       0x0000003c       0x3d build/sam_d21_xpro_winc1500/production/_ext/39655908/socket.o
 .comment       0x0000003c       0x3d build/sam_d21_xpro_winc1500/production/_ext/1360937237/main.o
 .comment       0x0000003c       0x3d build/sam_d21_xpro_winc1500/production/_ext/281389274/initialization.o
 .comment       0x0000003c       0x3d build/sam_d21_xpro_winc1500/production/_ext/281389274/interrupts.o
 .comment       0x0000003c       0x3d build/sam_d21_xpro_winc1500/production/_ext/281389274/exceptions.o
 .comment       0x0000003c       0x3d build/sam_d21_xpro_winc1500/production/_ext/215775307/plib_port.o
 .comment       0x0000003c       0x3d build/sam_d21_xpro_winc1500/production/_ext/1912998524/plib_clock.o
 .comment       0x0000003c       0x3d build/sam_d21_xpro_winc1500/production/_ext/215722156/plib_nvic.o
 .comment       0x0000003c       0x3d build/sam_d21_xpro_winc1500/production/_ext/215415349/plib_dmac.o
 .comment       0x0000003c       0x3d build/sam_d21_xpro_winc1500/production/_ext/281389274/startup_xc32.o
 .comment       0x0000003c       0x3d build/sam_d21_xpro_winc1500/production/_ext/1101428939/plib_eic.o
 .comment       0x0000003c       0x3d build/sam_d21_xpro_winc1500/production/_ext/1143908167/plib_tc3.o
 .comment       0x0000003c       0x3d build/sam_d21_xpro_winc1500/production/_ext/1751631207/sys_time.o
 .comment       0x0000003c       0x3d build/sam_d21_xpro_winc1500/production/_ext/2114417963/sys_console.o
 .comment       0x0000003c       0x3d build/sam_d21_xpro_winc1500/production/_ext/2114417963/sys_console_uart.o
 .comment       0x0000003c       0x3d build/sam_d21_xpro_winc1500/production/_ext/2114417963/sys_debug.o
 .comment       0x0000003c       0x3d build/sam_d21_xpro_winc1500/production/_ext/1062439459/drv_spi.o
 .comment       0x0000003c       0x3d build/sam_d21_xpro_winc1500/production/_ext/720072173/sys_int.o
 .comment       0x0000003c       0x3d build/sam_d21_xpro_winc1500/production/_ext/676678561/sys_dma.o
 .comment       0x0000003c       0x3d build/sam_d21_xpro_winc1500/production/_ext/1360937237/app.o
 .comment       0x0000003c       0x3d build/sam_d21_xpro_winc1500/production/_ext/281389274/tasks.o
 .comment       0x0000003c       0x3d c:/program files (x86)/microchip/xc32/v2.15/bin/bin/../../lib/gcc/pic32c/6.2.1/../../../../pic32c/lib\libpic32c.a(data_init.o)
 .comment       0x0000003c       0x3d c:/program files (x86)/microchip/xc32/v2.15/bin/bin/../../lib/gcc/pic32c/6.2.1\libgcc.a(_fixunsdfsi.o)
 .comment       0x0000003c       0x3d c:/program files (x86)/microchip/xc32/v2.15/bin/bin/../../lib/gcc/pic32c/6.2.1\libgcc.a(_udivmoddi4.o)
 .comment       0x0000003c       0x3d c:/program files (x86)/microchip/xc32/v2.15/bin/bin/../../lib/gcc/pic32c/6.2.1\libgcc.a(mulsf3.o)
 .comment       0x0000003c       0x3d c:/program files (x86)/microchip/xc32/v2.15/bin/bin/../../lib/gcc/pic32c/6.2.1\libgcc.a(floatunsisf.o)
 .comment       0x0000003c       0x3d c:/program files (x86)/microchip/xc32/v2.15/bin/bin/../../lib/gcc/pic32c/6.2.1\libgcc.a(divdf3.o)
 .comment       0x0000003c       0x3d c:/program files (x86)/microchip/xc32/v2.15/bin/bin/../../lib/gcc/pic32c/6.2.1\libgcc.a(muldf3.o)
 .comment       0x0000003c       0x3d c:/program files (x86)/microchip/xc32/v2.15/bin/bin/../../lib/gcc/pic32c/6.2.1\libgcc.a(subdf3.o)
 .comment       0x0000003c       0x3d c:/program files (x86)/microchip/xc32/v2.15/bin/bin/../../lib/gcc/pic32c/6.2.1\libgcc.a(fixdfsi.o)
 .comment       0x0000003c       0x3d c:/program files (x86)/microchip/xc32/v2.15/bin/bin/../../lib/gcc/pic32c/6.2.1\libgcc.a(floatunsidf.o)
 .comment       0x0000003c       0x3d c:/program files (x86)/microchip/xc32/v2.15/bin/bin/../../lib/gcc/pic32c/6.2.1\libgcc.a(extendsfdf2.o)
 .comment       0x0000003c       0x3d c:/program files (x86)/microchip/xc32/v2.15/bin/bin/../../lib/gcc/pic32c/6.2.1\libgcc.a(eqdf2.o)
 .comment       0x0000003c       0x3d c:/program files (x86)/microchip/xc32/v2.15/bin/bin/../../lib/gcc/pic32c/6.2.1\libgcc.a(gedf2.o)
 .comment       0x0000003c       0x3d c:/program files (x86)/microchip/xc32/v2.15/bin/bin/../../lib/gcc/pic32c/6.2.1\libgcc.a(ledf2.o)
 .comment       0x0000003c       0x3d c:/program files (x86)/microchip/xc32/v2.15/bin/bin/../../lib/gcc/pic32c/6.2.1/../../../../pic32c/lib\libc.a(lib_a-impure.o)
 .comment       0x0000003c       0x3d c:/program files (x86)/microchip/xc32/v2.15/bin/bin/../../lib/gcc/pic32c/6.2.1/../../../../pic32c/lib\libc.a(lib_a-init.o)
 .comment       0x0000003c       0x3d c:/program files (x86)/microchip/xc32/v2.15/bin/bin/../../lib/gcc/pic32c/6.2.1/../../../../pic32c/lib\libc.a(lib_a-malloc.o)
 .comment       0x0000003c       0x3d c:/program files (x86)/microchip/xc32/v2.15/bin/bin/../../lib/gcc/pic32c/6.2.1/../../../../pic32c/lib\libc.a(lib_a-mallocr.o)
 .comment       0x0000003c       0x3d c:/program files (x86)/microchip/xc32/v2.15/bin/bin/../../lib/gcc/pic32c/6.2.1/../../../../pic32c/lib\libc.a(lib_a-memcpy-stub.o)
 .comment       0x0000003c       0x3d c:/program files (x86)/microchip/xc32/v2.15/bin/bin/../../lib/gcc/pic32c/6.2.1/../../../../pic32c/lib\libc.a(lib_a-memset.o)
 .comment       0x0000003c       0x3d c:/program files (x86)/microchip/xc32/v2.15/bin/bin/../../lib/gcc/pic32c/6.2.1/../../../../pic32c/lib\libc.a(lib_a-mlock.o)
 .comment       0x0000003c       0x3d c:/program files (x86)/microchip/xc32/v2.15/bin/bin/../../lib/gcc/pic32c/6.2.1/../../../../pic32c/lib\libc.a(lib_a-sbrkr.o)
 .comment       0x0000003c       0x3d c:/program files (x86)/microchip/xc32/v2.15/bin/bin/../../lib/gcc/pic32c/6.2.1/../../../../pic32c/lib\libc.a(lib_a-sprintf.o)
 .comment       0x0000003c       0x3d c:/program files (x86)/microchip/xc32/v2.15/bin/bin/../../lib/gcc/pic32c/6.2.1/../../../../pic32c/lib\libc.a(lib_a-strchr.o)
 .comment       0x0000003c       0x3d c:/program files (x86)/microchip/xc32/v2.15/bin/bin/../../lib/gcc/pic32c/6.2.1/../../../../pic32c/lib\libc.a(lib_a-strcpy.o)
 .comment       0x0000003c       0x3d c:/program files (x86)/microchip/xc32/v2.15/bin/bin/../../lib/gcc/pic32c/6.2.1/../../../../pic32c/lib\libc.a(lib_a-strlen-stub.o)
 .comment       0x0000003c       0x3d c:/program files (x86)/microchip/xc32/v2.15/bin/bin/../../lib/gcc/pic32c/6.2.1/../../../../pic32c/lib\libc.a(lib_a-strstr.o)
 .comment       0x0000003c       0x3d c:/program files (x86)/microchip/xc32/v2.15/bin/bin/../../lib/gcc/pic32c/6.2.1/../../../../pic32c/lib\libc.a(lib_a-svfprintf.o)
 .comment       0x0000003c       0x3d c:/program files (x86)/microchip/xc32/v2.15/bin/bin/../../lib/gcc/pic32c/6.2.1/../../../../pic32c/lib\libc.a(lib_a-vsnprintf.o)
 .comment       0x0000003c       0x3d c:/program files (x86)/microchip/xc32/v2.15/bin/bin/../../lib/gcc/pic32c/6.2.1/../../../../pic32c/lib\libc.a(lib_a-__call_atexit.o)
 .comment       0x0000003c       0x3d c:/program files (x86)/microchip/xc32/v2.15/bin/bin/../../lib/gcc/pic32c/6.2.1/../../../../pic32c/lib\libc.a(lib_a-atexit.o)
 .comment       0x0000003c       0x3d c:/program files (x86)/microchip/xc32/v2.15/bin/bin/../../lib/gcc/pic32c/6.2.1/../../../../pic32c/lib\libc.a(lib_a-dtoa.o)
 .comment       0x0000003c       0x3d c:/program files (x86)/microchip/xc32/v2.15/bin/bin/../../lib/gcc/pic32c/6.2.1/../../../../pic32c/lib\libc.a(lib_a-fini.o)
 .comment       0x0000003c       0x3d c:/program files (x86)/microchip/xc32/v2.15/bin/bin/../../lib/gcc/pic32c/6.2.1/../../../../pic32c/lib\libc.a(lib_a-freer.o)
 .comment       0x0000003c       0x3d c:/program files (x86)/microchip/xc32/v2.15/bin/bin/../../lib/gcc/pic32c/6.2.1/../../../../pic32c/lib\libc.a(lib_a-localeconv.o)
 .comment       0x0000003c       0x3d c:/program files (x86)/microchip/xc32/v2.15/bin/bin/../../lib/gcc/pic32c/6.2.1/../../../../pic32c/lib\libc.a(lib_a-memchr-stub.o)
 .comment       0x0000003c       0x3d c:/program files (x86)/microchip/xc32/v2.15/bin/bin/../../lib/gcc/pic32c/6.2.1/../../../../pic32c/lib\libc.a(lib_a-memcmp.o)
 .comment       0x0000003c       0x3d c:/program files (x86)/microchip/xc32/v2.15/bin/bin/../../lib/gcc/pic32c/6.2.1/../../../../pic32c/lib\libc.a(lib_a-mprec.o)
 .comment       0x0000003c       0x3d c:/program files (x86)/microchip/xc32/v2.15/bin/bin/../../lib/gcc/pic32c/6.2.1/../../../../pic32c/lib\libc.a(lib_a-reent.o)
 .comment       0x0000003c       0x3d c:/program files (x86)/microchip/xc32/v2.15/bin/bin/../../lib/gcc/pic32c/6.2.1/../../../../pic32c/lib\libc.a(lib_a-s_frexp.o)
 .comment       0x0000003c       0x3d c:/program files (x86)/microchip/xc32/v2.15/bin/bin/../../lib/gcc/pic32c/6.2.1/../../../../pic32c/lib\libc.a(lib_a-strncpy.o)
 .comment       0x0000003c       0x3d c:/program files (x86)/microchip/xc32/v2.15/bin/bin/../../lib/gcc/pic32c/6.2.1/../../../../pic32c/lib\libc.a(lib_a-svfiprintf.o)
 .comment       0x0000003c       0x3d c:/program files (x86)/microchip/xc32/v2.15/bin/bin/../../lib/gcc/pic32c/6.2.1/../../../../pic32c/lib\libc.a(lib_a-__atexit.o)
 .comment       0x0000003c       0x3d c:/program files (x86)/microchip/xc32/v2.15/bin/bin/../../lib/gcc/pic32c/6.2.1/../../../../pic32c/lib\libc.a(lib_a-callocr.o)
 .comment       0x0000003c       0x3d c:/program files (x86)/microchip/xc32/v2.15/bin/bin/../../lib/gcc/pic32c/6.2.1/../../../../pic32c/lib\libc.a(lib_a-locale.o)
 .comment       0x0000003c       0x3d c:/program files (x86)/microchip/xc32/v2.15/bin/bin/../../lib/gcc/pic32c/6.2.1/../../../../pic32c/lib\libc.a(lib_a-mbtowc_r.o)
 .comment       0x0000003c       0x3d c:/program files (x86)/microchip/xc32/v2.15/bin/bin/../../lib/gcc/pic32c/6.2.1/../../../../pic32c/lib\libc.a(lib_a-memmove.o)
 .comment       0x0000003c       0x3d c:/program files (x86)/microchip/xc32/v2.15/bin/bin/../../lib/gcc/pic32c/6.2.1/../../../../pic32c/lib\libc.a(lib_a-reallocr.o)
 .comment       0x0000003c       0x3d c:/program files (x86)/microchip/xc32/v2.15/bin/bin/../../lib/gcc/pic32c/6.2.1/../../../../pic32c/lib\libc.a(lib_a-wctomb_r.o)
 .comment       0x0000003c       0x3d c:/program files (x86)/microchip/xc32/v2.15/bin/bin/../../lib/gcc/pic32c/6.2.1/../../../../pic32c/lib\libc.a(lib_a-ctype_.o)
 .comment       0x0000003c       0x3d c:/program files (x86)/microchip/xc32/v2.15/bin/bin/../../lib/gcc/pic32c/6.2.1/../../../../pic32c/lib\libpic32c.a(sbrk.o)
 .comment       0x0000003c       0x3d c:/program files (x86)/microchip/xc32/v2.15/bin/bin/../../lib/gcc/pic32c/6.2.1\libgcc.a(adddf3.o)
 .comment       0x0000003c       0x3d c:/program files (x86)/microchip/xc32/v2.15/bin/bin/../../lib/gcc/pic32c/6.2.1\libgcc.a(unorddf2.o)
 .comment       0x0000003c       0x3d c:/program files (x86)/microchip/xc32/v2.15/bin/bin/../../lib/gcc/pic32c/6.2.1\libgcc.a(floatsidf.o)

.debug_info     0x00000000    0x76135
 .debug_info    0x00000000     0x154f build/sam_d21_xpro_winc1500/production/_ext/1242531425/plib_sercom3_usart.o
 .debug_info    0x0000154f      0x2da build/sam_d21_xpro_winc1500/production/_ext/1910849038/plib_evsys.o
 .debug_info    0x00001829     0x12d6 build/sam_d21_xpro_winc1500/production/_ext/98527899/plib_sercom0_spi.o
 .debug_info    0x00002aff     0x5826 build/sam_d21_xpro_winc1500/production/_ext/2003669979/wdrv_winc.o
 .debug_info    0x00008325     0x12de build/sam_d21_xpro_winc1500/production/_ext/1115528141/wdrv_winc_gpio.o
 .debug_info    0x00009603     0x1e2e build/sam_d21_xpro_winc1500/production/_ext/1837088568/wdrv_winc_spi.o
 .debug_info    0x0000b431     0x10b7 build/sam_d21_xpro_winc1500/production/_ext/1879120711/wdrv_winc_osal.o
 .debug_info    0x0000c4e8     0x114d build/sam_d21_xpro_winc1500/production/_ext/418110372/nm_common.o
 .debug_info    0x0000d635     0x22d5 build/sam_d21_xpro_winc1500/production/_ext/386821479/m2m_hif.o
 .debug_info    0x0000f90a     0x799b build/sam_d21_xpro_winc1500/production/_ext/386821479/m2m_wifi.o
 .debug_info    0x000172a5     0x221a build/sam_d21_xpro_winc1500/production/_ext/386821479/nmasic.o
 .debug_info    0x000194bf     0x170c build/sam_d21_xpro_winc1500/production/_ext/386821479/nmbus.o
 .debug_info    0x0001abcb     0x194e build/sam_d21_xpro_winc1500/production/_ext/386821479/nmdrv.o
 .debug_info    0x0001c519     0x2423 build/sam_d21_xpro_winc1500/production/_ext/386821479/nmspi.o
 .debug_info    0x0001e93c     0x215f build/sam_d21_xpro_winc1500/production/_ext/1591721076/spi_flash.o
 .debug_info    0x00020a9b     0x368f build/sam_d21_xpro_winc1500/production/_ext/39655908/socket.o
 .debug_info    0x0002412a      0xfe5 build/sam_d21_xpro_winc1500/production/_ext/1360937237/main.o
 .debug_info    0x0002510f     0x3ecd build/sam_d21_xpro_winc1500/production/_ext/281389274/initialization.o
 .debug_info    0x00028fdc     0x15f1 build/sam_d21_xpro_winc1500/production/_ext/281389274/interrupts.o
 .debug_info    0x0002a5cd      0xffd build/sam_d21_xpro_winc1500/production/_ext/281389274/exceptions.o
 .debug_info    0x0002b5ca      0x78d build/sam_d21_xpro_winc1500/production/_ext/215775307/plib_port.o
 .debug_info    0x0002bd57      0xac3 build/sam_d21_xpro_winc1500/production/_ext/1912998524/plib_clock.o
 .debug_info    0x0002c81a      0x8eb build/sam_d21_xpro_winc1500/production/_ext/215722156/plib_nvic.o
 .debug_info    0x0002d105     0x1797 build/sam_d21_xpro_winc1500/production/_ext/215415349/plib_dmac.o
 .debug_info    0x0002e89c     0x118c build/sam_d21_xpro_winc1500/production/_ext/281389274/startup_xc32.o
 .debug_info    0x0002fa28      0x66c build/sam_d21_xpro_winc1500/production/_ext/1101428939/plib_eic.o
 .debug_info    0x00030094      0xb4b build/sam_d21_xpro_winc1500/production/_ext/1143908167/plib_tc3.o
 .debug_info    0x00030bdf     0x31ce build/sam_d21_xpro_winc1500/production/_ext/1751631207/sys_time.o
 .debug_info    0x00033dad     0x192c build/sam_d21_xpro_winc1500/production/_ext/2114417963/sys_console.o
 .debug_info    0x000356d9     0x2b35 build/sam_d21_xpro_winc1500/production/_ext/2114417963/sys_console_uart.o
 .debug_info    0x0003820e     0x1485 build/sam_d21_xpro_winc1500/production/_ext/2114417963/sys_debug.o
 .debug_info    0x00039693     0x44ab build/sam_d21_xpro_winc1500/production/_ext/1062439459/drv_spi.o
 .debug_info    0x0003db3e      0x989 build/sam_d21_xpro_winc1500/production/_ext/720072173/sys_int.o
 .debug_info    0x0003e4c7     0x12ba build/sam_d21_xpro_winc1500/production/_ext/676678561/sys_dma.o
 .debug_info    0x0003f781     0x2dc4 build/sam_d21_xpro_winc1500/production/_ext/1360937237/app.o
 .debug_info    0x00042545      0xffb build/sam_d21_xpro_winc1500/production/_ext/281389274/tasks.o
 .debug_info    0x00043540      0x1ff c:/program files (x86)/microchip/xc32/v2.15/bin/bin/../../lib/gcc/pic32c/6.2.1/../../../../pic32c/lib\libpic32c.a(data_init.o)
 .debug_info    0x0004373f      0x111 c:/program files (x86)/microchip/xc32/v2.15/bin/bin/../../lib/gcc/pic32c/6.2.1\libgcc.a(_udivsi3.o)
 .debug_info    0x00043850      0x111 c:/program files (x86)/microchip/xc32/v2.15/bin/bin/../../lib/gcc/pic32c/6.2.1\libgcc.a(_divsi3.o)
 .debug_info    0x00043961      0x111 c:/program files (x86)/microchip/xc32/v2.15/bin/bin/../../lib/gcc/pic32c/6.2.1\libgcc.a(_dvmd_tls.o)
 .debug_info    0x00043a72      0x111 c:/program files (x86)/microchip/xc32/v2.15/bin/bin/../../lib/gcc/pic32c/6.2.1\libgcc.a(_aeabi_uldivmod.o)
 .debug_info    0x00043b83     0x1ea9 c:/program files (x86)/microchip/xc32/v2.15/bin/bin/../../lib/gcc/pic32c/6.2.1\libgcc.a(_fixunsdfsi.o)
 .debug_info    0x00045a2c     0x1f35 c:/program files (x86)/microchip/xc32/v2.15/bin/bin/../../lib/gcc/pic32c/6.2.1\libgcc.a(_udivmoddi4.o)
 .debug_info    0x00047961      0x5dc c:/program files (x86)/microchip/xc32/v2.15/bin/bin/../../lib/gcc/pic32c/6.2.1\libgcc.a(mulsf3.o)
 .debug_info    0x00047f3d      0x46e c:/program files (x86)/microchip/xc32/v2.15/bin/bin/../../lib/gcc/pic32c/6.2.1\libgcc.a(floatunsisf.o)
 .debug_info    0x000483ab      0x9d5 c:/program files (x86)/microchip/xc32/v2.15/bin/bin/../../lib/gcc/pic32c/6.2.1\libgcc.a(divdf3.o)
 .debug_info    0x00048d80      0xa48 c:/program files (x86)/microchip/xc32/v2.15/bin/bin/../../lib/gcc/pic32c/6.2.1\libgcc.a(muldf3.o)
 .debug_info    0x000497c8      0x7b7 c:/program files (x86)/microchip/xc32/v2.15/bin/bin/../../lib/gcc/pic32c/6.2.1\libgcc.a(subdf3.o)
 .debug_info    0x00049f7f      0x3c3 c:/program files (x86)/microchip/xc32/v2.15/bin/bin/../../lib/gcc/pic32c/6.2.1\libgcc.a(fixdfsi.o)
 .debug_info    0x0004a342      0x4fb c:/program files (x86)/microchip/xc32/v2.15/bin/bin/../../lib/gcc/pic32c/6.2.1\libgcc.a(floatunsidf.o)
 .debug_info    0x0004a83d      0x484 c:/program files (x86)/microchip/xc32/v2.15/bin/bin/../../lib/gcc/pic32c/6.2.1\libgcc.a(extendsfdf2.o)
 .debug_info    0x0004acc1      0x111 c:/program files (x86)/microchip/xc32/v2.15/bin/bin/../../lib/gcc/pic32c/6.2.1\libgcc.a(_arm_cmpdf2.o)
 .debug_info    0x0004add2      0x111 c:/program files (x86)/microchip/xc32/v2.15/bin/bin/../../lib/gcc/pic32c/6.2.1\libgcc.a(_clzsi2.o)
 .debug_info    0x0004aee3      0x111 c:/program files (x86)/microchip/xc32/v2.15/bin/bin/../../lib/gcc/pic32c/6.2.1\libgcc.a(_clzdi2.o)
 .debug_info    0x0004aff4      0x41c c:/program files (x86)/microchip/xc32/v2.15/bin/bin/../../lib/gcc/pic32c/6.2.1\libgcc.a(eqdf2.o)
 .debug_info    0x0004b410      0x442 c:/program files (x86)/microchip/xc32/v2.15/bin/bin/../../lib/gcc/pic32c/6.2.1\libgcc.a(gedf2.o)
 .debug_info    0x0004b852      0x442 c:/program files (x86)/microchip/xc32/v2.15/bin/bin/../../lib/gcc/pic32c/6.2.1\libgcc.a(ledf2.o)
 .debug_info    0x0004bc94      0xd3e c:/program files (x86)/microchip/xc32/v2.15/bin/bin/../../lib/gcc/pic32c/6.2.1/../../../../pic32c/lib\libc.a(lib_a-impure.o)
 .debug_info    0x0004c9d2      0x361 c:/program files (x86)/microchip/xc32/v2.15/bin/bin/../../lib/gcc/pic32c/6.2.1/../../../../pic32c/lib\libc.a(lib_a-init.o)
 .debug_info    0x0004cd33      0xde1 c:/program files (x86)/microchip/xc32/v2.15/bin/bin/../../lib/gcc/pic32c/6.2.1/../../../../pic32c/lib\libc.a(lib_a-malloc.o)
 .debug_info    0x0004db14     0x1497 c:/program files (x86)/microchip/xc32/v2.15/bin/bin/../../lib/gcc/pic32c/6.2.1/../../../../pic32c/lib\libc.a(lib_a-mallocr.o)
 .debug_info    0x0004efab      0xde8 c:/program files (x86)/microchip/xc32/v2.15/bin/bin/../../lib/gcc/pic32c/6.2.1/../../../../pic32c/lib\libc.a(lib_a-memcpy-stub.o)
 .debug_info    0x0004fd93     0x1540 c:/program files (x86)/microchip/xc32/v2.15/bin/bin/../../lib/gcc/pic32c/6.2.1/../../../../pic32c/lib\libc.a(lib_a-memset.o)
 .debug_info    0x000512d3      0xd98 c:/program files (x86)/microchip/xc32/v2.15/bin/bin/../../lib/gcc/pic32c/6.2.1/../../../../pic32c/lib\libc.a(lib_a-mlock.o)
 .debug_info    0x0005206b      0xe2e c:/program files (x86)/microchip/xc32/v2.15/bin/bin/../../lib/gcc/pic32c/6.2.1/../../../../pic32c/lib\libc.a(lib_a-sbrkr.o)
 .debug_info    0x00052e99     0x119c c:/program files (x86)/microchip/xc32/v2.15/bin/bin/../../lib/gcc/pic32c/6.2.1/../../../../pic32c/lib\libc.a(lib_a-sprintf.o)
 .debug_info    0x00054035      0xdb9 c:/program files (x86)/microchip/xc32/v2.15/bin/bin/../../lib/gcc/pic32c/6.2.1/../../../../pic32c/lib\libc.a(lib_a-strchr.o)
 .debug_info    0x00054dee      0xd5a c:/program files (x86)/microchip/xc32/v2.15/bin/bin/../../lib/gcc/pic32c/6.2.1/../../../../pic32c/lib\libc.a(lib_a-strcpy.o)
 .debug_info    0x00055b48      0xd94 c:/program files (x86)/microchip/xc32/v2.15/bin/bin/../../lib/gcc/pic32c/6.2.1/../../../../pic32c/lib\libc.a(lib_a-strlen-stub.o)
 .debug_info    0x000568dc     0x11d9 c:/program files (x86)/microchip/xc32/v2.15/bin/bin/../../lib/gcc/pic32c/6.2.1/../../../../pic32c/lib\libc.a(lib_a-strstr.o)
 .debug_info    0x00057ab5     0x27b2 c:/program files (x86)/microchip/xc32/v2.15/bin/bin/../../lib/gcc/pic32c/6.2.1/../../../../pic32c/lib\libc.a(lib_a-svfprintf.o)
 .debug_info    0x0005a267     0x1213 c:/program files (x86)/microchip/xc32/v2.15/bin/bin/../../lib/gcc/pic32c/6.2.1/../../../../pic32c/lib\libc.a(lib_a-vsnprintf.o)
 .debug_info    0x0005b47a      0xeba c:/program files (x86)/microchip/xc32/v2.15/bin/bin/../../lib/gcc/pic32c/6.2.1/../../../../pic32c/lib\libc.a(lib_a-__call_atexit.o)
 .debug_info    0x0005c334      0xdcf c:/program files (x86)/microchip/xc32/v2.15/bin/bin/../../lib/gcc/pic32c/6.2.1/../../../../pic32c/lib\libc.a(lib_a-atexit.o)
 .debug_info    0x0005d103     0x2086 c:/program files (x86)/microchip/xc32/v2.15/bin/bin/../../lib/gcc/pic32c/6.2.1/../../../../pic32c/lib\libc.a(lib_a-dtoa.o)
 .debug_info    0x0005f189      0x325 c:/program files (x86)/microchip/xc32/v2.15/bin/bin/../../lib/gcc/pic32c/6.2.1/../../../../pic32c/lib\libc.a(lib_a-fini.o)
 .debug_info    0x0005f4ae     0x12fb c:/program files (x86)/microchip/xc32/v2.15/bin/bin/../../lib/gcc/pic32c/6.2.1/../../../../pic32c/lib\libc.a(lib_a-freer.o)
 .debug_info    0x000607a9     0x163c c:/program files (x86)/microchip/xc32/v2.15/bin/bin/../../lib/gcc/pic32c/6.2.1/../../../../pic32c/lib\libc.a(lib_a-localeconv.o)
 .debug_info    0x00061de5      0xdea c:/program files (x86)/microchip/xc32/v2.15/bin/bin/../../lib/gcc/pic32c/6.2.1/../../../../pic32c/lib\libc.a(lib_a-memchr-stub.o)
 .debug_info    0x00062bcf      0xdba c:/program files (x86)/microchip/xc32/v2.15/bin/bin/../../lib/gcc/pic32c/6.2.1/../../../../pic32c/lib\libc.a(lib_a-memcmp.o)
 .debug_info    0x00063989     0x24d1 c:/program files (x86)/microchip/xc32/v2.15/bin/bin/../../lib/gcc/pic32c/6.2.1/../../../../pic32c/lib\libc.a(lib_a-mprec.o)
 .debug_info    0x00065e5a      0xee5 c:/program files (x86)/microchip/xc32/v2.15/bin/bin/../../lib/gcc/pic32c/6.2.1/../../../../pic32c/lib\libc.a(lib_a-reent.o)
 .debug_info    0x00066d3f      0xf10 c:/program files (x86)/microchip/xc32/v2.15/bin/bin/../../lib/gcc/pic32c/6.2.1/../../../../pic32c/lib\libc.a(lib_a-s_frexp.o)
 .debug_info    0x00067c4f      0xdda c:/program files (x86)/microchip/xc32/v2.15/bin/bin/../../lib/gcc/pic32c/6.2.1/../../../../pic32c/lib\libc.a(lib_a-strncpy.o)
 .debug_info    0x00068a29     0x2119 c:/program files (x86)/microchip/xc32/v2.15/bin/bin/../../lib/gcc/pic32c/6.2.1/../../../../pic32c/lib\libc.a(lib_a-svfiprintf.o)
 .debug_info    0x0006ab42      0xe3b c:/program files (x86)/microchip/xc32/v2.15/bin/bin/../../lib/gcc/pic32c/6.2.1/../../../../pic32c/lib\libc.a(lib_a-__atexit.o)
 .debug_info    0x0006b97d     0x119f c:/program files (x86)/microchip/xc32/v2.15/bin/bin/../../lib/gcc/pic32c/6.2.1/../../../../pic32c/lib\libc.a(lib_a-callocr.o)
 .debug_info    0x0006cb1c     0x17d2 c:/program files (x86)/microchip/xc32/v2.15/bin/bin/../../lib/gcc/pic32c/6.2.1/../../../../pic32c/lib\libc.a(lib_a-locale.o)
 .debug_info    0x0006e2ee     0x16ac c:/program files (x86)/microchip/xc32/v2.15/bin/bin/../../lib/gcc/pic32c/6.2.1/../../../../pic32c/lib\libc.a(lib_a-mbtowc_r.o)
 .debug_info    0x0006f99a     0x1562 c:/program files (x86)/microchip/xc32/v2.15/bin/bin/../../lib/gcc/pic32c/6.2.1/../../../../pic32c/lib\libc.a(lib_a-memmove.o)
 .debug_info    0x00070efc     0x1455 c:/program files (x86)/microchip/xc32/v2.15/bin/bin/../../lib/gcc/pic32c/6.2.1/../../../../pic32c/lib\libc.a(lib_a-reallocr.o)
 .debug_info    0x00072351     0x1673 c:/program files (x86)/microchip/xc32/v2.15/bin/bin/../../lib/gcc/pic32c/6.2.1/../../../../pic32c/lib\libc.a(lib_a-wctomb_r.o)
 .debug_info    0x000739c4     0x14c0 c:/program files (x86)/microchip/xc32/v2.15/bin/bin/../../lib/gcc/pic32c/6.2.1/../../../../pic32c/lib\libc.a(lib_a-ctype_.o)
 .debug_info    0x00074e84      0x1e2 c:/program files (x86)/microchip/xc32/v2.15/bin/bin/../../lib/gcc/pic32c/6.2.1/../../../../pic32c/lib\libpic32c.a(sbrk.o)
 .debug_info    0x00075066      0x7ab c:/program files (x86)/microchip/xc32/v2.15/bin/bin/../../lib/gcc/pic32c/6.2.1\libgcc.a(adddf3.o)
 .debug_info    0x00075811      0x41d c:/program files (x86)/microchip/xc32/v2.15/bin/bin/../../lib/gcc/pic32c/6.2.1\libgcc.a(unorddf2.o)
 .debug_info    0x00075c2e      0x507 c:/program files (x86)/microchip/xc32/v2.15/bin/bin/../../lib/gcc/pic32c/6.2.1\libgcc.a(floatsidf.o)

.debug_abbrev   0x00000000     0xc395
 .debug_abbrev  0x00000000      0x324 build/sam_d21_xpro_winc1500/production/_ext/1242531425/plib_sercom3_usart.o
 .debug_abbrev  0x00000324       0x39 build/sam_d21_xpro_winc1500/production/_ext/1910849038/plib_evsys.o
 .debug_abbrev  0x0000035d      0x23b build/sam_d21_xpro_winc1500/production/_ext/98527899/plib_sercom0_spi.o
 .debug_abbrev  0x00000598      0x510 build/sam_d21_xpro_winc1500/production/_ext/2003669979/wdrv_winc.o
 .debug_abbrev  0x00000aa8      0x1c5 build/sam_d21_xpro_winc1500/production/_ext/1115528141/wdrv_winc_gpio.o
 .debug_abbrev  0x00000c6d      0x35a build/sam_d21_xpro_winc1500/production/_ext/1837088568/wdrv_winc_spi.o
 .debug_abbrev  0x00000fc7      0x207 build/sam_d21_xpro_winc1500/production/_ext/1879120711/wdrv_winc_osal.o
 .debug_abbrev  0x000011ce      0x245 build/sam_d21_xpro_winc1500/production/_ext/418110372/nm_common.o
 .debug_abbrev  0x00001413      0x514 build/sam_d21_xpro_winc1500/production/_ext/386821479/m2m_hif.o
 .debug_abbrev  0x00001927      0x496 build/sam_d21_xpro_winc1500/production/_ext/386821479/m2m_wifi.o
 .debug_abbrev  0x00001dbd      0x362 build/sam_d21_xpro_winc1500/production/_ext/386821479/nmasic.o
 .debug_abbrev  0x0000211f      0x2fe build/sam_d21_xpro_winc1500/production/_ext/386821479/nmbus.o
 .debug_abbrev  0x0000241d      0x2ae build/sam_d21_xpro_winc1500/production/_ext/386821479/nmdrv.o
 .debug_abbrev  0x000026cb      0x42c build/sam_d21_xpro_winc1500/production/_ext/386821479/nmspi.o
 .debug_abbrev  0x00002af7      0x3e5 build/sam_d21_xpro_winc1500/production/_ext/1591721076/spi_flash.o
 .debug_abbrev  0x00002edc      0x4ac build/sam_d21_xpro_winc1500/production/_ext/39655908/socket.o
 .debug_abbrev  0x00003388      0x1eb build/sam_d21_xpro_winc1500/production/_ext/1360937237/main.o
 .debug_abbrev  0x00003573      0x293 build/sam_d21_xpro_winc1500/production/_ext/281389274/initialization.o
 .debug_abbrev  0x00003806      0x1cb build/sam_d21_xpro_winc1500/production/_ext/281389274/interrupts.o
 .debug_abbrev  0x000039d1      0x1b1 build/sam_d21_xpro_winc1500/production/_ext/281389274/exceptions.o
 .debug_abbrev  0x00003b82      0x14f build/sam_d21_xpro_winc1500/production/_ext/215775307/plib_port.o
 .debug_abbrev  0x00003cd1       0xe9 build/sam_d21_xpro_winc1500/production/_ext/1912998524/plib_clock.o
 .debug_abbrev  0x00003dba      0x135 build/sam_d21_xpro_winc1500/production/_ext/215722156/plib_nvic.o
 .debug_abbrev  0x00003eef      0x300 build/sam_d21_xpro_winc1500/production/_ext/215415349/plib_dmac.o
 .debug_abbrev  0x000041ef      0x1f6 build/sam_d21_xpro_winc1500/production/_ext/281389274/startup_xc32.o
 .debug_abbrev  0x000043e5      0x186 build/sam_d21_xpro_winc1500/production/_ext/1101428939/plib_eic.o
 .debug_abbrev  0x0000456b      0x1a9 build/sam_d21_xpro_winc1500/production/_ext/1143908167/plib_tc3.o
 .debug_abbrev  0x00004714      0x58d build/sam_d21_xpro_winc1500/production/_ext/1751631207/sys_time.o
 .debug_abbrev  0x00004ca1      0x299 build/sam_d21_xpro_winc1500/production/_ext/2114417963/sys_console.o
 .debug_abbrev  0x00004f3a      0x4f5 build/sam_d21_xpro_winc1500/production/_ext/2114417963/sys_console_uart.o
 .debug_abbrev  0x0000542f      0x2cb build/sam_d21_xpro_winc1500/production/_ext/2114417963/sys_debug.o
 .debug_abbrev  0x000056fa      0x526 build/sam_d21_xpro_winc1500/production/_ext/1062439459/drv_spi.o
 .debug_abbrev  0x00005c20      0x1df build/sam_d21_xpro_winc1500/production/_ext/720072173/sys_int.o
 .debug_abbrev  0x00005dff      0x1fe build/sam_d21_xpro_winc1500/production/_ext/676678561/sys_dma.o
 .debug_abbrev  0x00005ffd      0x34c build/sam_d21_xpro_winc1500/production/_ext/1360937237/app.o
 .debug_abbrev  0x00006349      0x1e2 build/sam_d21_xpro_winc1500/production/_ext/281389274/tasks.o
 .debug_abbrev  0x0000652b       0x2a c:/program files (x86)/microchip/xc32/v2.15/bin/bin/../../lib/gcc/pic32c/6.2.1/../../../../pic32c/lib\libpic32c.a(data_init.o)
 .debug_abbrev  0x00006555       0x14 c:/program files (x86)/microchip/xc32/v2.15/bin/bin/../../lib/gcc/pic32c/6.2.1\libgcc.a(_udivsi3.o)
 .debug_abbrev  0x00006569       0x14 c:/program files (x86)/microchip/xc32/v2.15/bin/bin/../../lib/gcc/pic32c/6.2.1\libgcc.a(_divsi3.o)
 .debug_abbrev  0x0000657d       0x14 c:/program files (x86)/microchip/xc32/v2.15/bin/bin/../../lib/gcc/pic32c/6.2.1\libgcc.a(_dvmd_tls.o)
 .debug_abbrev  0x00006591       0x14 c:/program files (x86)/microchip/xc32/v2.15/bin/bin/../../lib/gcc/pic32c/6.2.1\libgcc.a(_aeabi_uldivmod.o)
 .debug_abbrev  0x000065a5      0x1d3 c:/program files (x86)/microchip/xc32/v2.15/bin/bin/../../lib/gcc/pic32c/6.2.1\libgcc.a(_fixunsdfsi.o)
 .debug_abbrev  0x00006778      0x1f3 c:/program files (x86)/microchip/xc32/v2.15/bin/bin/../../lib/gcc/pic32c/6.2.1\libgcc.a(_udivmoddi4.o)
 .debug_abbrev  0x0000696b      0x13c c:/program files (x86)/microchip/xc32/v2.15/bin/bin/../../lib/gcc/pic32c/6.2.1\libgcc.a(mulsf3.o)
 .debug_abbrev  0x00006aa7      0x12d c:/program files (x86)/microchip/xc32/v2.15/bin/bin/../../lib/gcc/pic32c/6.2.1\libgcc.a(floatunsisf.o)
 .debug_abbrev  0x00006bd4      0x13c c:/program files (x86)/microchip/xc32/v2.15/bin/bin/../../lib/gcc/pic32c/6.2.1\libgcc.a(divdf3.o)
 .debug_abbrev  0x00006d10      0x14a c:/program files (x86)/microchip/xc32/v2.15/bin/bin/../../lib/gcc/pic32c/6.2.1\libgcc.a(muldf3.o)
 .debug_abbrev  0x00006e5a      0x150 c:/program files (x86)/microchip/xc32/v2.15/bin/bin/../../lib/gcc/pic32c/6.2.1\libgcc.a(subdf3.o)
 .debug_abbrev  0x00006faa      0x12c c:/program files (x86)/microchip/xc32/v2.15/bin/bin/../../lib/gcc/pic32c/6.2.1\libgcc.a(fixdfsi.o)
 .debug_abbrev  0x000070d6      0x118 c:/program files (x86)/microchip/xc32/v2.15/bin/bin/../../lib/gcc/pic32c/6.2.1\libgcc.a(floatunsidf.o)
 .debug_abbrev  0x000071ee      0x109 c:/program files (x86)/microchip/xc32/v2.15/bin/bin/../../lib/gcc/pic32c/6.2.1\libgcc.a(extendsfdf2.o)
 .debug_abbrev  0x000072f7       0x14 c:/program files (x86)/microchip/xc32/v2.15/bin/bin/../../lib/gcc/pic32c/6.2.1\libgcc.a(_arm_cmpdf2.o)
 .debug_abbrev  0x0000730b       0x14 c:/program files (x86)/microchip/xc32/v2.15/bin/bin/../../lib/gcc/pic32c/6.2.1\libgcc.a(_clzsi2.o)
 .debug_abbrev  0x0000731f       0x14 c:/program files (x86)/microchip/xc32/v2.15/bin/bin/../../lib/gcc/pic32c/6.2.1\libgcc.a(_clzdi2.o)
 .debug_abbrev  0x00007333      0x128 c:/program files (x86)/microchip/xc32/v2.15/bin/bin/../../lib/gcc/pic32c/6.2.1\libgcc.a(eqdf2.o)
 .debug_abbrev  0x0000745b      0x12a c:/program files (x86)/microchip/xc32/v2.15/bin/bin/../../lib/gcc/pic32c/6.2.1\libgcc.a(gedf2.o)
 .debug_abbrev  0x00007585      0x135 c:/program files (x86)/microchip/xc32/v2.15/bin/bin/../../lib/gcc/pic32c/6.2.1\libgcc.a(ledf2.o)
 .debug_abbrev  0x000076ba      0x176 c:/program files (x86)/microchip/xc32/v2.15/bin/bin/../../lib/gcc/pic32c/6.2.1/../../../../pic32c/lib\libc.a(lib_a-impure.o)
 .debug_abbrev  0x00007830       0xa3 c:/program files (x86)/microchip/xc32/v2.15/bin/bin/../../lib/gcc/pic32c/6.2.1/../../../../pic32c/lib\libc.a(lib_a-init.o)
 .debug_abbrev  0x000078d3      0x1f5 c:/program files (x86)/microchip/xc32/v2.15/bin/bin/../../lib/gcc/pic32c/6.2.1/../../../../pic32c/lib\libc.a(lib_a-malloc.o)
 .debug_abbrev  0x00007ac8      0x2a2 c:/program files (x86)/microchip/xc32/v2.15/bin/bin/../../lib/gcc/pic32c/6.2.1/../../../../pic32c/lib\libc.a(lib_a-mallocr.o)
 .debug_abbrev  0x00007d6a      0x1b2 c:/program files (x86)/microchip/xc32/v2.15/bin/bin/../../lib/gcc/pic32c/6.2.1/../../../../pic32c/lib\libc.a(lib_a-memcpy-stub.o)
 .debug_abbrev  0x00007f1c      0x1b7 c:/program files (x86)/microchip/xc32/v2.15/bin/bin/../../lib/gcc/pic32c/6.2.1/../../../../pic32c/lib\libc.a(lib_a-memset.o)
 .debug_abbrev  0x000080d3      0x1b9 c:/program files (x86)/microchip/xc32/v2.15/bin/bin/../../lib/gcc/pic32c/6.2.1/../../../../pic32c/lib\libc.a(lib_a-mlock.o)
 .debug_abbrev  0x0000828c      0x1ed c:/program files (x86)/microchip/xc32/v2.15/bin/bin/../../lib/gcc/pic32c/6.2.1/../../../../pic32c/lib\libc.a(lib_a-sbrkr.o)
 .debug_abbrev  0x00008479      0x22f c:/program files (x86)/microchip/xc32/v2.15/bin/bin/../../lib/gcc/pic32c/6.2.1/../../../../pic32c/lib\libc.a(lib_a-sprintf.o)
 .debug_abbrev  0x000086a8      0x19e c:/program files (x86)/microchip/xc32/v2.15/bin/bin/../../lib/gcc/pic32c/6.2.1/../../../../pic32c/lib\libc.a(lib_a-strchr.o)
 .debug_abbrev  0x00008846      0x19c c:/program files (x86)/microchip/xc32/v2.15/bin/bin/../../lib/gcc/pic32c/6.2.1/../../../../pic32c/lib\libc.a(lib_a-strcpy.o)
 .debug_abbrev  0x000089e2      0x19e c:/program files (x86)/microchip/xc32/v2.15/bin/bin/../../lib/gcc/pic32c/6.2.1/../../../../pic32c/lib\libc.a(lib_a-strlen-stub.o)
 .debug_abbrev  0x00008b80      0x2e8 c:/program files (x86)/microchip/xc32/v2.15/bin/bin/../../lib/gcc/pic32c/6.2.1/../../../../pic32c/lib\libc.a(lib_a-strstr.o)
 .debug_abbrev  0x00008e68      0x312 c:/program files (x86)/microchip/xc32/v2.15/bin/bin/../../lib/gcc/pic32c/6.2.1/../../../../pic32c/lib\libc.a(lib_a-svfprintf.o)
 .debug_abbrev  0x0000917a      0x22f c:/program files (x86)/microchip/xc32/v2.15/bin/bin/../../lib/gcc/pic32c/6.2.1/../../../../pic32c/lib\libc.a(lib_a-vsnprintf.o)
 .debug_abbrev  0x000093a9      0x23f c:/program files (x86)/microchip/xc32/v2.15/bin/bin/../../lib/gcc/pic32c/6.2.1/../../../../pic32c/lib\libc.a(lib_a-__call_atexit.o)
 .debug_abbrev  0x000095e8      0x1e3 c:/program files (x86)/microchip/xc32/v2.15/bin/bin/../../lib/gcc/pic32c/6.2.1/../../../../pic32c/lib\libc.a(lib_a-atexit.o)
 .debug_abbrev  0x000097cb      0x296 c:/program files (x86)/microchip/xc32/v2.15/bin/bin/../../lib/gcc/pic32c/6.2.1/../../../../pic32c/lib\libc.a(lib_a-dtoa.o)
 .debug_abbrev  0x00009a61       0xa3 c:/program files (x86)/microchip/xc32/v2.15/bin/bin/../../lib/gcc/pic32c/6.2.1/../../../../pic32c/lib\libc.a(lib_a-fini.o)
 .debug_abbrev  0x00009b04      0x23f c:/program files (x86)/microchip/xc32/v2.15/bin/bin/../../lib/gcc/pic32c/6.2.1/../../../../pic32c/lib\libc.a(lib_a-freer.o)
 .debug_abbrev  0x00009d43      0x241 c:/program files (x86)/microchip/xc32/v2.15/bin/bin/../../lib/gcc/pic32c/6.2.1/../../../../pic32c/lib\libc.a(lib_a-localeconv.o)
 .debug_abbrev  0x00009f84      0x1a3 c:/program files (x86)/microchip/xc32/v2.15/bin/bin/../../lib/gcc/pic32c/6.2.1/../../../../pic32c/lib\libc.a(lib_a-memchr-stub.o)
 .debug_abbrev  0x0000a127      0x1a3 c:/program files (x86)/microchip/xc32/v2.15/bin/bin/../../lib/gcc/pic32c/6.2.1/../../../../pic32c/lib\libc.a(lib_a-memcmp.o)
 .debug_abbrev  0x0000a2ca      0x42d c:/program files (x86)/microchip/xc32/v2.15/bin/bin/../../lib/gcc/pic32c/6.2.1/../../../../pic32c/lib\libc.a(lib_a-mprec.o)
 .debug_abbrev  0x0000a6f7      0x231 c:/program files (x86)/microchip/xc32/v2.15/bin/bin/../../lib/gcc/pic32c/6.2.1/../../../../pic32c/lib\libc.a(lib_a-reent.o)
 .debug_abbrev  0x0000a928      0x1f1 c:/program files (x86)/microchip/xc32/v2.15/bin/bin/../../lib/gcc/pic32c/6.2.1/../../../../pic32c/lib\libc.a(lib_a-s_frexp.o)
 .debug_abbrev  0x0000ab19      0x1ad c:/program files (x86)/microchip/xc32/v2.15/bin/bin/../../lib/gcc/pic32c/6.2.1/../../../../pic32c/lib\libc.a(lib_a-strncpy.o)
 .debug_abbrev  0x0000acc6      0x2c7 c:/program files (x86)/microchip/xc32/v2.15/bin/bin/../../lib/gcc/pic32c/6.2.1/../../../../pic32c/lib\libc.a(lib_a-svfiprintf.o)
 .debug_abbrev  0x0000af8d      0x1f2 c:/program files (x86)/microchip/xc32/v2.15/bin/bin/../../lib/gcc/pic32c/6.2.1/../../../../pic32c/lib\libc.a(lib_a-__atexit.o)
 .debug_abbrev  0x0000b17f      0x203 c:/program files (x86)/microchip/xc32/v2.15/bin/bin/../../lib/gcc/pic32c/6.2.1/../../../../pic32c/lib\libc.a(lib_a-callocr.o)
 .debug_abbrev  0x0000b382      0x2b0 c:/program files (x86)/microchip/xc32/v2.15/bin/bin/../../lib/gcc/pic32c/6.2.1/../../../../pic32c/lib\libc.a(lib_a-locale.o)
 .debug_abbrev  0x0000b632      0x203 c:/program files (x86)/microchip/xc32/v2.15/bin/bin/../../lib/gcc/pic32c/6.2.1/../../../../pic32c/lib\libc.a(lib_a-mbtowc_r.o)
 .debug_abbrev  0x0000b835      0x1bc c:/program files (x86)/microchip/xc32/v2.15/bin/bin/../../lib/gcc/pic32c/6.2.1/../../../../pic32c/lib\libc.a(lib_a-memmove.o)
 .debug_abbrev  0x0000b9f1      0x252 c:/program files (x86)/microchip/xc32/v2.15/bin/bin/../../lib/gcc/pic32c/6.2.1/../../../../pic32c/lib\libc.a(lib_a-reallocr.o)
 .debug_abbrev  0x0000bc43      0x213 c:/program files (x86)/microchip/xc32/v2.15/bin/bin/../../lib/gcc/pic32c/6.2.1/../../../../pic32c/lib\libc.a(lib_a-wctomb_r.o)
 .debug_abbrev  0x0000be56      0x176 c:/program files (x86)/microchip/xc32/v2.15/bin/bin/../../lib/gcc/pic32c/6.2.1/../../../../pic32c/lib\libc.a(lib_a-ctype_.o)
 .debug_abbrev  0x0000bfcc       0x2a c:/program files (x86)/microchip/xc32/v2.15/bin/bin/../../lib/gcc/pic32c/6.2.1/../../../../pic32c/lib\libpic32c.a(sbrk.o)
 .debug_abbrev  0x0000bff6      0x150 c:/program files (x86)/microchip/xc32/v2.15/bin/bin/../../lib/gcc/pic32c/6.2.1\libgcc.a(adddf3.o)
 .debug_abbrev  0x0000c146      0x137 c:/program files (x86)/microchip/xc32/v2.15/bin/bin/../../lib/gcc/pic32c/6.2.1\libgcc.a(unorddf2.o)
 .debug_abbrev  0x0000c27d      0x118 c:/program files (x86)/microchip/xc32/v2.15/bin/bin/../../lib/gcc/pic32c/6.2.1\libgcc.a(floatsidf.o)

.debug_loc      0x00000000    0x2a61f
 .debug_loc     0x00000000      0x462 build/sam_d21_xpro_winc1500/production/_ext/1242531425/plib_sercom3_usart.o
 .debug_loc     0x00000462      0x3fe build/sam_d21_xpro_winc1500/production/_ext/98527899/plib_sercom0_spi.o
 .debug_loc     0x00000860     0x166c build/sam_d21_xpro_winc1500/production/_ext/2003669979/wdrv_winc.o
 .debug_loc     0x00001ecc      0x69b build/sam_d21_xpro_winc1500/production/_ext/1837088568/wdrv_winc_spi.o
 .debug_loc     0x00002567       0x4d build/sam_d21_xpro_winc1500/production/_ext/1879120711/wdrv_winc_osal.o
 .debug_loc     0x000025b4       0x9e build/sam_d21_xpro_winc1500/production/_ext/418110372/nm_common.o
 .debug_loc     0x00002652      0xa70 build/sam_d21_xpro_winc1500/production/_ext/386821479/m2m_hif.o
 .debug_loc     0x000030c2     0x35a6 build/sam_d21_xpro_winc1500/production/_ext/386821479/m2m_wifi.o
 .debug_loc     0x00006668      0xc73 build/sam_d21_xpro_winc1500/production/_ext/386821479/nmasic.o
 .debug_loc     0x000072db      0x604 build/sam_d21_xpro_winc1500/production/_ext/386821479/nmbus.o
 .debug_loc     0x000078df      0x77e build/sam_d21_xpro_winc1500/production/_ext/386821479/nmdrv.o
 .debug_loc     0x0000805d     0x136e build/sam_d21_xpro_winc1500/production/_ext/386821479/nmspi.o
 .debug_loc     0x000093cb      0xbfb build/sam_d21_xpro_winc1500/production/_ext/1591721076/spi_flash.o
 .debug_loc     0x00009fc6     0x1e77 build/sam_d21_xpro_winc1500/production/_ext/39655908/socket.o
 .debug_loc     0x0000be3d       0x20 build/sam_d21_xpro_winc1500/production/_ext/1360937237/main.o
 .debug_loc     0x0000be5d       0x41 build/sam_d21_xpro_winc1500/production/_ext/281389274/initialization.o
 .debug_loc     0x0000be9e       0x84 build/sam_d21_xpro_winc1500/production/_ext/215775307/plib_port.o
 .debug_loc     0x0000bf22      0x14c build/sam_d21_xpro_winc1500/production/_ext/215722156/plib_nvic.o
 .debug_loc     0x0000c06e      0x3c5 build/sam_d21_xpro_winc1500/production/_ext/215415349/plib_dmac.o
 .debug_loc     0x0000c433       0x20 build/sam_d21_xpro_winc1500/production/_ext/281389274/startup_xc32.o
 .debug_loc     0x0000c453      0x101 build/sam_d21_xpro_winc1500/production/_ext/1101428939/plib_eic.o
 .debug_loc     0x0000c554       0x33 build/sam_d21_xpro_winc1500/production/_ext/1143908167/plib_tc3.o
 .debug_loc     0x0000c587     0x2042 build/sam_d21_xpro_winc1500/production/_ext/1751631207/sys_time.o
 .debug_loc     0x0000e5c9      0x652 build/sam_d21_xpro_winc1500/production/_ext/2114417963/sys_console.o
 .debug_loc     0x0000ec1b      0xa8f build/sam_d21_xpro_winc1500/production/_ext/2114417963/sys_console_uart.o
 .debug_loc     0x0000f6aa      0x151 build/sam_d21_xpro_winc1500/production/_ext/2114417963/sys_debug.o
 .debug_loc     0x0000f7fb     0x1bcb build/sam_d21_xpro_winc1500/production/_ext/1062439459/drv_spi.o
 .debug_loc     0x000113c6       0xfc build/sam_d21_xpro_winc1500/production/_ext/720072173/sys_int.o
 .debug_loc     0x000114c2      0x164 build/sam_d21_xpro_winc1500/production/_ext/676678561/sys_dma.o
 .debug_loc     0x00011626      0x638 build/sam_d21_xpro_winc1500/production/_ext/1360937237/app.o
 .debug_loc     0x00011c5e       0x20 build/sam_d21_xpro_winc1500/production/_ext/281389274/tasks.o
 .debug_loc     0x00011c7e       0x14 c:/program files (x86)/microchip/xc32/v2.15/bin/bin/../../lib/gcc/pic32c/6.2.1/../../../../pic32c/lib\libpic32c.a(data_init.o)
 .debug_loc     0x00011c92       0x49 c:/program files (x86)/microchip/xc32/v2.15/bin/bin/../../lib/gcc/pic32c/6.2.1\libgcc.a(_fixunsdfsi.o)
 .debug_loc     0x00011cdb      0x3c9 c:/program files (x86)/microchip/xc32/v2.15/bin/bin/../../lib/gcc/pic32c/6.2.1\libgcc.a(_udivmoddi4.o)
 .debug_loc     0x000120a4      0x7fe c:/program files (x86)/microchip/xc32/v2.15/bin/bin/../../lib/gcc/pic32c/6.2.1\libgcc.a(mulsf3.o)
 .debug_loc     0x000128a2      0x241 c:/program files (x86)/microchip/xc32/v2.15/bin/bin/../../lib/gcc/pic32c/6.2.1\libgcc.a(floatunsisf.o)
 .debug_loc     0x00012ae3     0x20ed c:/program files (x86)/microchip/xc32/v2.15/bin/bin/../../lib/gcc/pic32c/6.2.1\libgcc.a(divdf3.o)
 .debug_loc     0x00014bd0     0x1256 c:/program files (x86)/microchip/xc32/v2.15/bin/bin/../../lib/gcc/pic32c/6.2.1\libgcc.a(muldf3.o)
 .debug_loc     0x00015e26     0x176b c:/program files (x86)/microchip/xc32/v2.15/bin/bin/../../lib/gcc/pic32c/6.2.1\libgcc.a(subdf3.o)
 .debug_loc     0x00017591      0x116 c:/program files (x86)/microchip/xc32/v2.15/bin/bin/../../lib/gcc/pic32c/6.2.1\libgcc.a(fixdfsi.o)
 .debug_loc     0x000176a7      0x212 c:/program files (x86)/microchip/xc32/v2.15/bin/bin/../../lib/gcc/pic32c/6.2.1\libgcc.a(floatunsidf.o)
 .debug_loc     0x000178b9      0x2b5 c:/program files (x86)/microchip/xc32/v2.15/bin/bin/../../lib/gcc/pic32c/6.2.1\libgcc.a(extendsfdf2.o)
 .debug_loc     0x00017b6e      0x18a c:/program files (x86)/microchip/xc32/v2.15/bin/bin/../../lib/gcc/pic32c/6.2.1\libgcc.a(eqdf2.o)
 .debug_loc     0x00017cf8      0x340 c:/program files (x86)/microchip/xc32/v2.15/bin/bin/../../lib/gcc/pic32c/6.2.1\libgcc.a(gedf2.o)
 .debug_loc     0x00018038      0x330 c:/program files (x86)/microchip/xc32/v2.15/bin/bin/../../lib/gcc/pic32c/6.2.1\libgcc.a(ledf2.o)
 .debug_loc     0x00018368       0xa4 c:/program files (x86)/microchip/xc32/v2.15/bin/bin/../../lib/gcc/pic32c/6.2.1/../../../../pic32c/lib\libc.a(lib_a-init.o)
 .debug_loc     0x0001840c       0x98 c:/program files (x86)/microchip/xc32/v2.15/bin/bin/../../lib/gcc/pic32c/6.2.1/../../../../pic32c/lib\libc.a(lib_a-malloc.o)
 .debug_loc     0x000184a4      0xc55 c:/program files (x86)/microchip/xc32/v2.15/bin/bin/../../lib/gcc/pic32c/6.2.1/../../../../pic32c/lib\libc.a(lib_a-mallocr.o)
 .debug_loc     0x000190f9      0x2e0 c:/program files (x86)/microchip/xc32/v2.15/bin/bin/../../lib/gcc/pic32c/6.2.1/../../../../pic32c/lib\libc.a(lib_a-memcpy-stub.o)
 .debug_loc     0x000193d9      0x1c4 c:/program files (x86)/microchip/xc32/v2.15/bin/bin/../../lib/gcc/pic32c/6.2.1/../../../../pic32c/lib\libc.a(lib_a-memset.o)
 .debug_loc     0x0001959d       0x78 c:/program files (x86)/microchip/xc32/v2.15/bin/bin/../../lib/gcc/pic32c/6.2.1/../../../../pic32c/lib\libc.a(lib_a-sbrkr.o)
 .debug_loc     0x00019615       0xfa c:/program files (x86)/microchip/xc32/v2.15/bin/bin/../../lib/gcc/pic32c/6.2.1/../../../../pic32c/lib\libc.a(lib_a-sprintf.o)
 .debug_loc     0x0001970f      0x194 c:/program files (x86)/microchip/xc32/v2.15/bin/bin/../../lib/gcc/pic32c/6.2.1/../../../../pic32c/lib\libc.a(lib_a-strchr.o)
 .debug_loc     0x000198a3       0x21 c:/program files (x86)/microchip/xc32/v2.15/bin/bin/../../lib/gcc/pic32c/6.2.1/../../../../pic32c/lib\libc.a(lib_a-strcpy.o)
 .debug_loc     0x000198c4       0xde c:/program files (x86)/microchip/xc32/v2.15/bin/bin/../../lib/gcc/pic32c/6.2.1/../../../../pic32c/lib\libc.a(lib_a-strlen-stub.o)
 .debug_loc     0x000199a2      0xe71 c:/program files (x86)/microchip/xc32/v2.15/bin/bin/../../lib/gcc/pic32c/6.2.1/../../../../pic32c/lib\libc.a(lib_a-strstr.o)
 .debug_loc     0x0001a813     0x4acf c:/program files (x86)/microchip/xc32/v2.15/bin/bin/../../lib/gcc/pic32c/6.2.1/../../../../pic32c/lib\libc.a(lib_a-svfprintf.o)
 .debug_loc     0x0001f2e2      0x291 c:/program files (x86)/microchip/xc32/v2.15/bin/bin/../../lib/gcc/pic32c/6.2.1/../../../../pic32c/lib\libc.a(lib_a-vsnprintf.o)
 .debug_loc     0x0001f573      0x22b c:/program files (x86)/microchip/xc32/v2.15/bin/bin/../../lib/gcc/pic32c/6.2.1/../../../../pic32c/lib\libc.a(lib_a-__call_atexit.o)
 .debug_loc     0x0001f79e       0x4c c:/program files (x86)/microchip/xc32/v2.15/bin/bin/../../lib/gcc/pic32c/6.2.1/../../../../pic32c/lib\libc.a(lib_a-atexit.o)
 .debug_loc     0x0001f7ea     0x2e62 c:/program files (x86)/microchip/xc32/v2.15/bin/bin/../../lib/gcc/pic32c/6.2.1/../../../../pic32c/lib\libc.a(lib_a-dtoa.o)
 .debug_loc     0x0002264c       0x5e c:/program files (x86)/microchip/xc32/v2.15/bin/bin/../../lib/gcc/pic32c/6.2.1/../../../../pic32c/lib\libc.a(lib_a-fini.o)
 .debug_loc     0x000226aa      0x526 c:/program files (x86)/microchip/xc32/v2.15/bin/bin/../../lib/gcc/pic32c/6.2.1/../../../../pic32c/lib\libc.a(lib_a-freer.o)
 .debug_loc     0x00022bd0       0x63 c:/program files (x86)/microchip/xc32/v2.15/bin/bin/../../lib/gcc/pic32c/6.2.1/../../../../pic32c/lib\libc.a(lib_a-localeconv.o)
 .debug_loc     0x00022c33      0x192 c:/program files (x86)/microchip/xc32/v2.15/bin/bin/../../lib/gcc/pic32c/6.2.1/../../../../pic32c/lib\libc.a(lib_a-memchr-stub.o)
 .debug_loc     0x00022dc5      0x10d c:/program files (x86)/microchip/xc32/v2.15/bin/bin/../../lib/gcc/pic32c/6.2.1/../../../../pic32c/lib\libc.a(lib_a-memcmp.o)
 .debug_loc     0x00022ed2     0x204c c:/program files (x86)/microchip/xc32/v2.15/bin/bin/../../lib/gcc/pic32c/6.2.1/../../../../pic32c/lib\libc.a(lib_a-mprec.o)
 .debug_loc     0x00024f1e      0x13c c:/program files (x86)/microchip/xc32/v2.15/bin/bin/../../lib/gcc/pic32c/6.2.1/../../../../pic32c/lib\libc.a(lib_a-reent.o)
 .debug_loc     0x0002505a      0x12d c:/program files (x86)/microchip/xc32/v2.15/bin/bin/../../lib/gcc/pic32c/6.2.1/../../../../pic32c/lib\libc.a(lib_a-s_frexp.o)
 .debug_loc     0x00025187      0x1be c:/program files (x86)/microchip/xc32/v2.15/bin/bin/../../lib/gcc/pic32c/6.2.1/../../../../pic32c/lib\libc.a(lib_a-strncpy.o)
 .debug_loc     0x00025345     0x1e36 c:/program files (x86)/microchip/xc32/v2.15/bin/bin/../../lib/gcc/pic32c/6.2.1/../../../../pic32c/lib\libc.a(lib_a-svfiprintf.o)
 .debug_loc     0x0002717b      0x1f1 c:/program files (x86)/microchip/xc32/v2.15/bin/bin/../../lib/gcc/pic32c/6.2.1/../../../../pic32c/lib\libc.a(lib_a-__atexit.o)
 .debug_loc     0x0002736c      0x246 c:/program files (x86)/microchip/xc32/v2.15/bin/bin/../../lib/gcc/pic32c/6.2.1/../../../../pic32c/lib\libc.a(lib_a-callocr.o)
 .debug_loc     0x000275b2      0x132 c:/program files (x86)/microchip/xc32/v2.15/bin/bin/../../lib/gcc/pic32c/6.2.1/../../../../pic32c/lib\libc.a(lib_a-locale.o)
 .debug_loc     0x000276e4      0x1c5 c:/program files (x86)/microchip/xc32/v2.15/bin/bin/../../lib/gcc/pic32c/6.2.1/../../../../pic32c/lib\libc.a(lib_a-mbtowc_r.o)
 .debug_loc     0x000278a9      0x3d3 c:/program files (x86)/microchip/xc32/v2.15/bin/bin/../../lib/gcc/pic32c/6.2.1/../../../../pic32c/lib\libc.a(lib_a-memmove.o)
 .debug_loc     0x00027c7c      0xf59 c:/program files (x86)/microchip/xc32/v2.15/bin/bin/../../lib/gcc/pic32c/6.2.1/../../../../pic32c/lib\libc.a(lib_a-reallocr.o)
 .debug_loc     0x00028bd5      0x15d c:/program files (x86)/microchip/xc32/v2.15/bin/bin/../../lib/gcc/pic32c/6.2.1/../../../../pic32c/lib\libc.a(lib_a-wctomb_r.o)
 .debug_loc     0x00028d32     0x15f7 c:/program files (x86)/microchip/xc32/v2.15/bin/bin/../../lib/gcc/pic32c/6.2.1\libgcc.a(adddf3.o)
 .debug_loc     0x0002a329       0xc4 c:/program files (x86)/microchip/xc32/v2.15/bin/bin/../../lib/gcc/pic32c/6.2.1\libgcc.a(unorddf2.o)
 .debug_loc     0x0002a3ed      0x232 c:/program files (x86)/microchip/xc32/v2.15/bin/bin/../../lib/gcc/pic32c/6.2.1\libgcc.a(floatsidf.o)

.debug_aranges  0x00000000     0x17a0
 .debug_aranges
                0x00000000       0x80 build/sam_d21_xpro_winc1500/production/_ext/1242531425/plib_sercom3_usart.o
 .debug_aranges
                0x00000080       0x20 build/sam_d21_xpro_winc1500/production/_ext/1910849038/plib_evsys.o
 .debug_aranges
                0x000000a0       0x58 build/sam_d21_xpro_winc1500/production/_ext/98527899/plib_sercom0_spi.o
 .debug_aranges
                0x000000f8       0xf0 build/sam_d21_xpro_winc1500/production/_ext/2003669979/wdrv_winc.o
 .debug_aranges
                0x000001e8       0x38 build/sam_d21_xpro_winc1500/production/_ext/1115528141/wdrv_winc_gpio.o
 .debug_aranges
                0x00000220       0x50 build/sam_d21_xpro_winc1500/production/_ext/1837088568/wdrv_winc_spi.o
 .debug_aranges
                0x00000270       0x20 build/sam_d21_xpro_winc1500/production/_ext/1879120711/wdrv_winc_osal.o
 .debug_aranges
                0x00000290       0x28 build/sam_d21_xpro_winc1500/production/_ext/418110372/nm_common.o
 .debug_aranges
                0x000002b8       0x80 build/sam_d21_xpro_winc1500/production/_ext/386821479/m2m_hif.o
 .debug_aranges
                0x00000338      0x278 build/sam_d21_xpro_winc1500/production/_ext/386821479/m2m_wifi.o
 .debug_aranges
                0x000005b0       0xc8 build/sam_d21_xpro_winc1500/production/_ext/386821479/nmasic.o
 .debug_aranges
                0x00000678       0x60 build/sam_d21_xpro_winc1500/production/_ext/386821479/nmbus.o
 .debug_aranges
                0x000006d8       0x58 build/sam_d21_xpro_winc1500/production/_ext/386821479/nmdrv.o
 .debug_aranges
                0x00000730       0x80 build/sam_d21_xpro_winc1500/production/_ext/386821479/nmspi.o
 .debug_aranges
                0x000007b0       0x60 build/sam_d21_xpro_winc1500/production/_ext/1591721076/spi_flash.o
 .debug_aranges
                0x00000810       0xc8 build/sam_d21_xpro_winc1500/production/_ext/39655908/socket.o
 .debug_aranges
                0x000008d8       0x20 build/sam_d21_xpro_winc1500/production/_ext/1360937237/main.o
 .debug_aranges
                0x000008f8       0x20 build/sam_d21_xpro_winc1500/production/_ext/281389274/initialization.o
 .debug_aranges
                0x00000918       0x20 build/sam_d21_xpro_winc1500/production/_ext/281389274/interrupts.o
 .debug_aranges
                0x00000938       0x28 build/sam_d21_xpro_winc1500/production/_ext/281389274/exceptions.o
 .debug_aranges
                0x00000960       0x60 build/sam_d21_xpro_winc1500/production/_ext/215775307/plib_port.o
 .debug_aranges
                0x000009c0       0x20 build/sam_d21_xpro_winc1500/production/_ext/1912998524/plib_clock.o
 .debug_aranges
                0x000009e0       0x20 build/sam_d21_xpro_winc1500/production/_ext/215722156/plib_nvic.o
 .debug_aranges
                0x00000a00       0x58 build/sam_d21_xpro_winc1500/production/_ext/215415349/plib_dmac.o
 .debug_aranges
                0x00000a58       0x20 build/sam_d21_xpro_winc1500/production/_ext/281389274/startup_xc32.o
 .debug_aranges
                0x00000a78       0x40 build/sam_d21_xpro_winc1500/production/_ext/1101428939/plib_eic.o
 .debug_aranges
                0x00000ab8       0x70 build/sam_d21_xpro_winc1500/production/_ext/1143908167/plib_tc3.o
 .debug_aranges
                0x00000b28      0x130 build/sam_d21_xpro_winc1500/production/_ext/1751631207/sys_time.o
 .debug_aranges
                0x00000c58       0x50 build/sam_d21_xpro_winc1500/production/_ext/2114417963/sys_console.o
 .debug_aranges
                0x00000ca8       0x78 build/sam_d21_xpro_winc1500/production/_ext/2114417963/sys_console_uart.o
 .debug_aranges
                0x00000d20       0x50 build/sam_d21_xpro_winc1500/production/_ext/2114417963/sys_debug.o
 .debug_aranges
                0x00000d70       0xb0 build/sam_d21_xpro_winc1500/production/_ext/1062439459/drv_spi.o
 .debug_aranges
                0x00000e20       0x40 build/sam_d21_xpro_winc1500/production/_ext/720072173/sys_int.o
 .debug_aranges
                0x00000e60       0x28 build/sam_d21_xpro_winc1500/production/_ext/676678561/sys_dma.o
 .debug_aranges
                0x00000e88       0x48 build/sam_d21_xpro_winc1500/production/_ext/1360937237/app.o
 .debug_aranges
                0x00000ed0       0x20 build/sam_d21_xpro_winc1500/production/_ext/281389274/tasks.o
 .debug_aranges
                0x00000ef0       0x20 c:/program files (x86)/microchip/xc32/v2.15/bin/bin/../../lib/gcc/pic32c/6.2.1/../../../../pic32c/lib\libpic32c.a(data_init.o)
 .debug_aranges
                0x00000f10       0x20 c:/program files (x86)/microchip/xc32/v2.15/bin/bin/../../lib/gcc/pic32c/6.2.1\libgcc.a(_udivsi3.o)
 .debug_aranges
                0x00000f30       0x20 c:/program files (x86)/microchip/xc32/v2.15/bin/bin/../../lib/gcc/pic32c/6.2.1\libgcc.a(_divsi3.o)
 .debug_aranges
                0x00000f50       0x20 c:/program files (x86)/microchip/xc32/v2.15/bin/bin/../../lib/gcc/pic32c/6.2.1\libgcc.a(_dvmd_tls.o)
 .debug_aranges
                0x00000f70       0x20 c:/program files (x86)/microchip/xc32/v2.15/bin/bin/../../lib/gcc/pic32c/6.2.1\libgcc.a(_aeabi_uldivmod.o)
 .debug_aranges
                0x00000f90       0x20 c:/program files (x86)/microchip/xc32/v2.15/bin/bin/../../lib/gcc/pic32c/6.2.1\libgcc.a(_fixunsdfsi.o)
 .debug_aranges
                0x00000fb0       0x20 c:/program files (x86)/microchip/xc32/v2.15/bin/bin/../../lib/gcc/pic32c/6.2.1\libgcc.a(_udivmoddi4.o)
 .debug_aranges
                0x00000fd0       0x20 c:/program files (x86)/microchip/xc32/v2.15/bin/bin/../../lib/gcc/pic32c/6.2.1\libgcc.a(mulsf3.o)
 .debug_aranges
                0x00000ff0       0x20 c:/program files (x86)/microchip/xc32/v2.15/bin/bin/../../lib/gcc/pic32c/6.2.1\libgcc.a(floatunsisf.o)
 .debug_aranges
                0x00001010       0x20 c:/program files (x86)/microchip/xc32/v2.15/bin/bin/../../lib/gcc/pic32c/6.2.1\libgcc.a(divdf3.o)
 .debug_aranges
                0x00001030       0x20 c:/program files (x86)/microchip/xc32/v2.15/bin/bin/../../lib/gcc/pic32c/6.2.1\libgcc.a(muldf3.o)
 .debug_aranges
                0x00001050       0x20 c:/program files (x86)/microchip/xc32/v2.15/bin/bin/../../lib/gcc/pic32c/6.2.1\libgcc.a(subdf3.o)
 .debug_aranges
                0x00001070       0x20 c:/program files (x86)/microchip/xc32/v2.15/bin/bin/../../lib/gcc/pic32c/6.2.1\libgcc.a(fixdfsi.o)
 .debug_aranges
                0x00001090       0x20 c:/program files (x86)/microchip/xc32/v2.15/bin/bin/../../lib/gcc/pic32c/6.2.1\libgcc.a(floatunsidf.o)
 .debug_aranges
                0x000010b0       0x20 c:/program files (x86)/microchip/xc32/v2.15/bin/bin/../../lib/gcc/pic32c/6.2.1\libgcc.a(extendsfdf2.o)
 .debug_aranges
                0x000010d0       0x20 c:/program files (x86)/microchip/xc32/v2.15/bin/bin/../../lib/gcc/pic32c/6.2.1\libgcc.a(_arm_cmpdf2.o)
 .debug_aranges
                0x000010f0       0x20 c:/program files (x86)/microchip/xc32/v2.15/bin/bin/../../lib/gcc/pic32c/6.2.1\libgcc.a(_clzsi2.o)
 .debug_aranges
                0x00001110       0x20 c:/program files (x86)/microchip/xc32/v2.15/bin/bin/../../lib/gcc/pic32c/6.2.1\libgcc.a(_clzdi2.o)
 .debug_aranges
                0x00001130       0x20 c:/program files (x86)/microchip/xc32/v2.15/bin/bin/../../lib/gcc/pic32c/6.2.1\libgcc.a(eqdf2.o)
 .debug_aranges
                0x00001150       0x20 c:/program files (x86)/microchip/xc32/v2.15/bin/bin/../../lib/gcc/pic32c/6.2.1\libgcc.a(gedf2.o)
 .debug_aranges
                0x00001170       0x20 c:/program files (x86)/microchip/xc32/v2.15/bin/bin/../../lib/gcc/pic32c/6.2.1\libgcc.a(ledf2.o)
 .debug_aranges
                0x00001190       0x18 c:/program files (x86)/microchip/xc32/v2.15/bin/bin/../../lib/gcc/pic32c/6.2.1/../../../../pic32c/lib\libc.a(lib_a-impure.o)
 .debug_aranges
                0x000011a8       0x20 c:/program files (x86)/microchip/xc32/v2.15/bin/bin/../../lib/gcc/pic32c/6.2.1/../../../../pic32c/lib\libc.a(lib_a-init.o)
 .debug_aranges
                0x000011c8       0x28 c:/program files (x86)/microchip/xc32/v2.15/bin/bin/../../lib/gcc/pic32c/6.2.1/../../../../pic32c/lib\libc.a(lib_a-malloc.o)
 .debug_aranges
                0x000011f0       0x20 c:/program files (x86)/microchip/xc32/v2.15/bin/bin/../../lib/gcc/pic32c/6.2.1/../../../../pic32c/lib\libc.a(lib_a-mallocr.o)
 .debug_aranges
                0x00001210       0x20 c:/program files (x86)/microchip/xc32/v2.15/bin/bin/../../lib/gcc/pic32c/6.2.1/../../../../pic32c/lib\libc.a(lib_a-memcpy-stub.o)
 .debug_aranges
                0x00001230       0x20 c:/program files (x86)/microchip/xc32/v2.15/bin/bin/../../lib/gcc/pic32c/6.2.1/../../../../pic32c/lib\libc.a(lib_a-memset.o)
 .debug_aranges
                0x00001250       0x20 c:/program files (x86)/microchip/xc32/v2.15/bin/bin/../../lib/gcc/pic32c/6.2.1/../../../../pic32c/lib\libc.a(lib_a-mlock.o)
 .debug_aranges
                0x00001270       0x20 c:/program files (x86)/microchip/xc32/v2.15/bin/bin/../../lib/gcc/pic32c/6.2.1/../../../../pic32c/lib\libc.a(lib_a-sbrkr.o)
 .debug_aranges
                0x00001290       0x28 c:/program files (x86)/microchip/xc32/v2.15/bin/bin/../../lib/gcc/pic32c/6.2.1/../../../../pic32c/lib\libc.a(lib_a-sprintf.o)
 .debug_aranges
                0x000012b8       0x20 c:/program files (x86)/microchip/xc32/v2.15/bin/bin/../../lib/gcc/pic32c/6.2.1/../../../../pic32c/lib\libc.a(lib_a-strchr.o)
 .debug_aranges
                0x000012d8       0x20 c:/program files (x86)/microchip/xc32/v2.15/bin/bin/../../lib/gcc/pic32c/6.2.1/../../../../pic32c/lib\libc.a(lib_a-strcpy.o)
 .debug_aranges
                0x000012f8       0x20 c:/program files (x86)/microchip/xc32/v2.15/bin/bin/../../lib/gcc/pic32c/6.2.1/../../../../pic32c/lib\libc.a(lib_a-strlen-stub.o)
 .debug_aranges
                0x00001318       0x30 c:/program files (x86)/microchip/xc32/v2.15/bin/bin/../../lib/gcc/pic32c/6.2.1/../../../../pic32c/lib\libc.a(lib_a-strstr.o)
 .debug_aranges
                0x00001348       0x20 c:/program files (x86)/microchip/xc32/v2.15/bin/bin/../../lib/gcc/pic32c/6.2.1/../../../../pic32c/lib\libc.a(lib_a-svfprintf.o)
 .debug_aranges
                0x00001368       0x28 c:/program files (x86)/microchip/xc32/v2.15/bin/bin/../../lib/gcc/pic32c/6.2.1/../../../../pic32c/lib\libc.a(lib_a-vsnprintf.o)
 .debug_aranges
                0x00001390       0x28 c:/program files (x86)/microchip/xc32/v2.15/bin/bin/../../lib/gcc/pic32c/6.2.1/../../../../pic32c/lib\libc.a(lib_a-__call_atexit.o)
 .debug_aranges
                0x000013b8       0x20 c:/program files (x86)/microchip/xc32/v2.15/bin/bin/../../lib/gcc/pic32c/6.2.1/../../../../pic32c/lib\libc.a(lib_a-atexit.o)
 .debug_aranges
                0x000013d8       0x28 c:/program files (x86)/microchip/xc32/v2.15/bin/bin/../../lib/gcc/pic32c/6.2.1/../../../../pic32c/lib\libc.a(lib_a-dtoa.o)
 .debug_aranges
                0x00001400       0x20 c:/program files (x86)/microchip/xc32/v2.15/bin/bin/../../lib/gcc/pic32c/6.2.1/../../../../pic32c/lib\libc.a(lib_a-fini.o)
 .debug_aranges
                0x00001420       0x28 c:/program files (x86)/microchip/xc32/v2.15/bin/bin/../../lib/gcc/pic32c/6.2.1/../../../../pic32c/lib\libc.a(lib_a-freer.o)
 .debug_aranges
                0x00001448       0x30 c:/program files (x86)/microchip/xc32/v2.15/bin/bin/../../lib/gcc/pic32c/6.2.1/../../../../pic32c/lib\libc.a(lib_a-localeconv.o)
 .debug_aranges
                0x00001478       0x20 c:/program files (x86)/microchip/xc32/v2.15/bin/bin/../../lib/gcc/pic32c/6.2.1/../../../../pic32c/lib\libc.a(lib_a-memchr-stub.o)
 .debug_aranges
                0x00001498       0x20 c:/program files (x86)/microchip/xc32/v2.15/bin/bin/../../lib/gcc/pic32c/6.2.1/../../../../pic32c/lib\libc.a(lib_a-memcmp.o)
 .debug_aranges
                0x000014b8       0xb0 c:/program files (x86)/microchip/xc32/v2.15/bin/bin/../../lib/gcc/pic32c/6.2.1/../../../../pic32c/lib\libc.a(lib_a-mprec.o)
 .debug_aranges
                0x00001568       0x28 c:/program files (x86)/microchip/xc32/v2.15/bin/bin/../../lib/gcc/pic32c/6.2.1/../../../../pic32c/lib\libc.a(lib_a-reent.o)
 .debug_aranges
                0x00001590       0x20 c:/program files (x86)/microchip/xc32/v2.15/bin/bin/../../lib/gcc/pic32c/6.2.1/../../../../pic32c/lib\libc.a(lib_a-s_frexp.o)
 .debug_aranges
                0x000015b0       0x20 c:/program files (x86)/microchip/xc32/v2.15/bin/bin/../../lib/gcc/pic32c/6.2.1/../../../../pic32c/lib\libc.a(lib_a-strncpy.o)
 .debug_aranges
                0x000015d0       0x28 c:/program files (x86)/microchip/xc32/v2.15/bin/bin/../../lib/gcc/pic32c/6.2.1/../../../../pic32c/lib\libc.a(lib_a-svfiprintf.o)
 .debug_aranges
                0x000015f8       0x20 c:/program files (x86)/microchip/xc32/v2.15/bin/bin/../../lib/gcc/pic32c/6.2.1/../../../../pic32c/lib\libc.a(lib_a-__atexit.o)
 .debug_aranges
                0x00001618       0x20 c:/program files (x86)/microchip/xc32/v2.15/bin/bin/../../lib/gcc/pic32c/6.2.1/../../../../pic32c/lib\libc.a(lib_a-callocr.o)
 .debug_aranges
                0x00001638       0x40 c:/program files (x86)/microchip/xc32/v2.15/bin/bin/../../lib/gcc/pic32c/6.2.1/../../../../pic32c/lib\libc.a(lib_a-locale.o)
 .debug_aranges
                0x00001678       0x28 c:/program files (x86)/microchip/xc32/v2.15/bin/bin/../../lib/gcc/pic32c/6.2.1/../../../../pic32c/lib\libc.a(lib_a-mbtowc_r.o)
 .debug_aranges
                0x000016a0       0x20 c:/program files (x86)/microchip/xc32/v2.15/bin/bin/../../lib/gcc/pic32c/6.2.1/../../../../pic32c/lib\libc.a(lib_a-memmove.o)
 .debug_aranges
                0x000016c0       0x20 c:/program files (x86)/microchip/xc32/v2.15/bin/bin/../../lib/gcc/pic32c/6.2.1/../../../../pic32c/lib\libc.a(lib_a-reallocr.o)
 .debug_aranges
                0x000016e0       0x28 c:/program files (x86)/microchip/xc32/v2.15/bin/bin/../../lib/gcc/pic32c/6.2.1/../../../../pic32c/lib\libc.a(lib_a-wctomb_r.o)
 .debug_aranges
                0x00001708       0x18 c:/program files (x86)/microchip/xc32/v2.15/bin/bin/../../lib/gcc/pic32c/6.2.1/../../../../pic32c/lib\libc.a(lib_a-ctype_.o)
 .debug_aranges
                0x00001720       0x20 c:/program files (x86)/microchip/xc32/v2.15/bin/bin/../../lib/gcc/pic32c/6.2.1/../../../../pic32c/lib\libpic32c.a(sbrk.o)
 .debug_aranges
                0x00001740       0x20 c:/program files (x86)/microchip/xc32/v2.15/bin/bin/../../lib/gcc/pic32c/6.2.1\libgcc.a(adddf3.o)
 .debug_aranges
                0x00001760       0x20 c:/program files (x86)/microchip/xc32/v2.15/bin/bin/../../lib/gcc/pic32c/6.2.1\libgcc.a(unorddf2.o)
 .debug_aranges
                0x00001780       0x20 c:/program files (x86)/microchip/xc32/v2.15/bin/bin/../../lib/gcc/pic32c/6.2.1\libgcc.a(floatsidf.o)

.debug_ranges   0x00000000     0x2590
 .debug_ranges  0x00000000       0x70 build/sam_d21_xpro_winc1500/production/_ext/1242531425/plib_sercom3_usart.o
 .debug_ranges  0x00000070       0x10 build/sam_d21_xpro_winc1500/production/_ext/1910849038/plib_evsys.o
 .debug_ranges  0x00000080       0x48 build/sam_d21_xpro_winc1500/production/_ext/98527899/plib_sercom0_spi.o
 .debug_ranges  0x000000c8      0x128 build/sam_d21_xpro_winc1500/production/_ext/2003669979/wdrv_winc.o
 .debug_ranges  0x000001f0       0x28 build/sam_d21_xpro_winc1500/production/_ext/1115528141/wdrv_winc_gpio.o
 .debug_ranges  0x00000218       0x40 build/sam_d21_xpro_winc1500/production/_ext/1837088568/wdrv_winc_spi.o
 .debug_ranges  0x00000258       0x10 build/sam_d21_xpro_winc1500/production/_ext/1879120711/wdrv_winc_osal.o
 .debug_ranges  0x00000268       0x18 build/sam_d21_xpro_winc1500/production/_ext/418110372/nm_common.o
 .debug_ranges  0x00000280       0xb0 build/sam_d21_xpro_winc1500/production/_ext/386821479/m2m_hif.o
 .debug_ranges  0x00000330      0x350 build/sam_d21_xpro_winc1500/production/_ext/386821479/m2m_wifi.o
 .debug_ranges  0x00000680       0xd0 build/sam_d21_xpro_winc1500/production/_ext/386821479/nmasic.o
 .debug_ranges  0x00000750       0x80 build/sam_d21_xpro_winc1500/production/_ext/386821479/nmbus.o
 .debug_ranges  0x000007d0       0x48 build/sam_d21_xpro_winc1500/production/_ext/386821479/nmdrv.o
 .debug_ranges  0x00000818      0x168 build/sam_d21_xpro_winc1500/production/_ext/386821479/nmspi.o
 .debug_ranges  0x00000980       0x80 build/sam_d21_xpro_winc1500/production/_ext/1591721076/spi_flash.o
 .debug_ranges  0x00000a00      0x188 build/sam_d21_xpro_winc1500/production/_ext/39655908/socket.o
 .debug_ranges  0x00000b88       0x10 build/sam_d21_xpro_winc1500/production/_ext/1360937237/main.o
 .debug_ranges  0x00000b98       0x10 build/sam_d21_xpro_winc1500/production/_ext/281389274/initialization.o
 .debug_ranges  0x00000ba8       0x10 build/sam_d21_xpro_winc1500/production/_ext/281389274/interrupts.o
 .debug_ranges  0x00000bb8       0x18 build/sam_d21_xpro_winc1500/production/_ext/281389274/exceptions.o
 .debug_ranges  0x00000bd0       0x50 build/sam_d21_xpro_winc1500/production/_ext/215775307/plib_port.o
 .debug_ranges  0x00000c20       0x10 build/sam_d21_xpro_winc1500/production/_ext/1912998524/plib_clock.o
 .debug_ranges  0x00000c30       0x10 build/sam_d21_xpro_winc1500/production/_ext/215722156/plib_nvic.o
 .debug_ranges  0x00000c40       0x60 build/sam_d21_xpro_winc1500/production/_ext/215415349/plib_dmac.o
 .debug_ranges  0x00000ca0       0x10 build/sam_d21_xpro_winc1500/production/_ext/281389274/startup_xc32.o
 .debug_ranges  0x00000cb0       0x30 build/sam_d21_xpro_winc1500/production/_ext/1101428939/plib_eic.o
 .debug_ranges  0x00000ce0       0x60 build/sam_d21_xpro_winc1500/production/_ext/1143908167/plib_tc3.o
 .debug_ranges  0x00000d40      0x1a0 build/sam_d21_xpro_winc1500/production/_ext/1751631207/sys_time.o
 .debug_ranges  0x00000ee0       0x40 build/sam_d21_xpro_winc1500/production/_ext/2114417963/sys_console.o
 .debug_ranges  0x00000f20       0xc8 build/sam_d21_xpro_winc1500/production/_ext/2114417963/sys_console_uart.o
 .debug_ranges  0x00000fe8       0x40 build/sam_d21_xpro_winc1500/production/_ext/2114417963/sys_debug.o
 .debug_ranges  0x00001028      0x1d0 build/sam_d21_xpro_winc1500/production/_ext/1062439459/drv_spi.o
 .debug_ranges  0x000011f8       0x30 build/sam_d21_xpro_winc1500/production/_ext/720072173/sys_int.o
 .debug_ranges  0x00001228       0x18 build/sam_d21_xpro_winc1500/production/_ext/676678561/sys_dma.o
 .debug_ranges  0x00001240       0x68 build/sam_d21_xpro_winc1500/production/_ext/1360937237/app.o
 .debug_ranges  0x000012a8       0x10 build/sam_d21_xpro_winc1500/production/_ext/281389274/tasks.o
 .debug_ranges  0x000012b8       0x10 c:/program files (x86)/microchip/xc32/v2.15/bin/bin/../../lib/gcc/pic32c/6.2.1/../../../../pic32c/lib\libpic32c.a(data_init.o)
 .debug_ranges  0x000012c8       0x50 c:/program files (x86)/microchip/xc32/v2.15/bin/bin/../../lib/gcc/pic32c/6.2.1\libgcc.a(mulsf3.o)
 .debug_ranges  0x00001318       0x50 c:/program files (x86)/microchip/xc32/v2.15/bin/bin/../../lib/gcc/pic32c/6.2.1\libgcc.a(floatunsisf.o)
 .debug_ranges  0x00001368      0x160 c:/program files (x86)/microchip/xc32/v2.15/bin/bin/../../lib/gcc/pic32c/6.2.1\libgcc.a(divdf3.o)
 .debug_ranges  0x000014c8      0x1c8 c:/program files (x86)/microchip/xc32/v2.15/bin/bin/../../lib/gcc/pic32c/6.2.1\libgcc.a(muldf3.o)
 .debug_ranges  0x00001690      0x278 c:/program files (x86)/microchip/xc32/v2.15/bin/bin/../../lib/gcc/pic32c/6.2.1\libgcc.a(subdf3.o)
 .debug_ranges  0x00001908       0x18 c:/program files (x86)/microchip/xc32/v2.15/bin/bin/../../lib/gcc/pic32c/6.2.1\libgcc.a(fixdfsi.o)
 .debug_ranges  0x00001920       0x48 c:/program files (x86)/microchip/xc32/v2.15/bin/bin/../../lib/gcc/pic32c/6.2.1\libgcc.a(floatunsidf.o)
 .debug_ranges  0x00001968       0x30 c:/program files (x86)/microchip/xc32/v2.15/bin/bin/../../lib/gcc/pic32c/6.2.1\libgcc.a(extendsfdf2.o)
 .debug_ranges  0x00001998       0x38 c:/program files (x86)/microchip/xc32/v2.15/bin/bin/../../lib/gcc/pic32c/6.2.1\libgcc.a(eqdf2.o)
 .debug_ranges  0x000019d0       0x58 c:/program files (x86)/microchip/xc32/v2.15/bin/bin/../../lib/gcc/pic32c/6.2.1\libgcc.a(gedf2.o)
 .debug_ranges  0x00001a28       0x40 c:/program files (x86)/microchip/xc32/v2.15/bin/bin/../../lib/gcc/pic32c/6.2.1\libgcc.a(ledf2.o)
 .debug_ranges  0x00001a68       0x10 c:/program files (x86)/microchip/xc32/v2.15/bin/bin/../../lib/gcc/pic32c/6.2.1/../../../../pic32c/lib\libc.a(lib_a-init.o)
 .debug_ranges  0x00001a78       0x18 c:/program files (x86)/microchip/xc32/v2.15/bin/bin/../../lib/gcc/pic32c/6.2.1/../../../../pic32c/lib\libc.a(lib_a-malloc.o)
 .debug_ranges  0x00001a90       0x48 c:/program files (x86)/microchip/xc32/v2.15/bin/bin/../../lib/gcc/pic32c/6.2.1/../../../../pic32c/lib\libc.a(lib_a-mallocr.o)
 .debug_ranges  0x00001ad8       0x10 c:/program files (x86)/microchip/xc32/v2.15/bin/bin/../../lib/gcc/pic32c/6.2.1/../../../../pic32c/lib\libc.a(lib_a-memcpy-stub.o)
 .debug_ranges  0x00001ae8       0x10 c:/program files (x86)/microchip/xc32/v2.15/bin/bin/../../lib/gcc/pic32c/6.2.1/../../../../pic32c/lib\libc.a(lib_a-memset.o)
 .debug_ranges  0x00001af8       0x10 c:/program files (x86)/microchip/xc32/v2.15/bin/bin/../../lib/gcc/pic32c/6.2.1/../../../../pic32c/lib\libc.a(lib_a-mlock.o)
 .debug_ranges  0x00001b08       0x10 c:/program files (x86)/microchip/xc32/v2.15/bin/bin/../../lib/gcc/pic32c/6.2.1/../../../../pic32c/lib\libc.a(lib_a-sbrkr.o)
 .debug_ranges  0x00001b18       0x18 c:/program files (x86)/microchip/xc32/v2.15/bin/bin/../../lib/gcc/pic32c/6.2.1/../../../../pic32c/lib\libc.a(lib_a-sprintf.o)
 .debug_ranges  0x00001b30       0x10 c:/program files (x86)/microchip/xc32/v2.15/bin/bin/../../lib/gcc/pic32c/6.2.1/../../../../pic32c/lib\libc.a(lib_a-strchr.o)
 .debug_ranges  0x00001b40       0x10 c:/program files (x86)/microchip/xc32/v2.15/bin/bin/../../lib/gcc/pic32c/6.2.1/../../../../pic32c/lib\libc.a(lib_a-strcpy.o)
 .debug_ranges  0x00001b50       0x10 c:/program files (x86)/microchip/xc32/v2.15/bin/bin/../../lib/gcc/pic32c/6.2.1/../../../../pic32c/lib\libc.a(lib_a-strlen-stub.o)
 .debug_ranges  0x00001b60       0x70 c:/program files (x86)/microchip/xc32/v2.15/bin/bin/../../lib/gcc/pic32c/6.2.1/../../../../pic32c/lib\libc.a(lib_a-strstr.o)
 .debug_ranges  0x00001bd0      0x1a0 c:/program files (x86)/microchip/xc32/v2.15/bin/bin/../../lib/gcc/pic32c/6.2.1/../../../../pic32c/lib\libc.a(lib_a-svfprintf.o)
 .debug_ranges  0x00001d70       0x18 c:/program files (x86)/microchip/xc32/v2.15/bin/bin/../../lib/gcc/pic32c/6.2.1/../../../../pic32c/lib\libc.a(lib_a-vsnprintf.o)
 .debug_ranges  0x00001d88       0x48 c:/program files (x86)/microchip/xc32/v2.15/bin/bin/../../lib/gcc/pic32c/6.2.1/../../../../pic32c/lib\libc.a(lib_a-__call_atexit.o)
 .debug_ranges  0x00001dd0       0x10 c:/program files (x86)/microchip/xc32/v2.15/bin/bin/../../lib/gcc/pic32c/6.2.1/../../../../pic32c/lib\libc.a(lib_a-atexit.o)
 .debug_ranges  0x00001de0       0x18 c:/program files (x86)/microchip/xc32/v2.15/bin/bin/../../lib/gcc/pic32c/6.2.1/../../../../pic32c/lib\libc.a(lib_a-dtoa.o)
 .debug_ranges  0x00001df8       0x10 c:/program files (x86)/microchip/xc32/v2.15/bin/bin/../../lib/gcc/pic32c/6.2.1/../../../../pic32c/lib\libc.a(lib_a-fini.o)
 .debug_ranges  0x00001e08       0x18 c:/program files (x86)/microchip/xc32/v2.15/bin/bin/../../lib/gcc/pic32c/6.2.1/../../../../pic32c/lib\libc.a(lib_a-freer.o)
 .debug_ranges  0x00001e20       0x50 c:/program files (x86)/microchip/xc32/v2.15/bin/bin/../../lib/gcc/pic32c/6.2.1/../../../../pic32c/lib\libc.a(lib_a-localeconv.o)
 .debug_ranges  0x00001e70       0x10 c:/program files (x86)/microchip/xc32/v2.15/bin/bin/../../lib/gcc/pic32c/6.2.1/../../../../pic32c/lib\libc.a(lib_a-memchr-stub.o)
 .debug_ranges  0x00001e80       0x10 c:/program files (x86)/microchip/xc32/v2.15/bin/bin/../../lib/gcc/pic32c/6.2.1/../../../../pic32c/lib\libc.a(lib_a-memcmp.o)
 .debug_ranges  0x00001e90       0xf8 c:/program files (x86)/microchip/xc32/v2.15/bin/bin/../../lib/gcc/pic32c/6.2.1/../../../../pic32c/lib\libc.a(lib_a-mprec.o)
 .debug_ranges  0x00001f88       0x18 c:/program files (x86)/microchip/xc32/v2.15/bin/bin/../../lib/gcc/pic32c/6.2.1/../../../../pic32c/lib\libc.a(lib_a-reent.o)
 .debug_ranges  0x00001fa0       0x10 c:/program files (x86)/microchip/xc32/v2.15/bin/bin/../../lib/gcc/pic32c/6.2.1/../../../../pic32c/lib\libc.a(lib_a-s_frexp.o)
 .debug_ranges  0x00001fb0       0x10 c:/program files (x86)/microchip/xc32/v2.15/bin/bin/../../lib/gcc/pic32c/6.2.1/../../../../pic32c/lib\libc.a(lib_a-strncpy.o)
 .debug_ranges  0x00001fc0       0x68 c:/program files (x86)/microchip/xc32/v2.15/bin/bin/../../lib/gcc/pic32c/6.2.1/../../../../pic32c/lib\libc.a(lib_a-svfiprintf.o)
 .debug_ranges  0x00002028       0x10 c:/program files (x86)/microchip/xc32/v2.15/bin/bin/../../lib/gcc/pic32c/6.2.1/../../../../pic32c/lib\libc.a(lib_a-__atexit.o)
 .debug_ranges  0x00002038       0x40 c:/program files (x86)/microchip/xc32/v2.15/bin/bin/../../lib/gcc/pic32c/6.2.1/../../../../pic32c/lib\libc.a(lib_a-callocr.o)
 .debug_ranges  0x00002078       0x78 c:/program files (x86)/microchip/xc32/v2.15/bin/bin/../../lib/gcc/pic32c/6.2.1/../../../../pic32c/lib\libc.a(lib_a-locale.o)
 .debug_ranges  0x000020f0       0x38 c:/program files (x86)/microchip/xc32/v2.15/bin/bin/../../lib/gcc/pic32c/6.2.1/../../../../pic32c/lib\libc.a(lib_a-mbtowc_r.o)
 .debug_ranges  0x00002128       0x10 c:/program files (x86)/microchip/xc32/v2.15/bin/bin/../../lib/gcc/pic32c/6.2.1/../../../../pic32c/lib\libc.a(lib_a-memmove.o)
 .debug_ranges  0x00002138      0x118 c:/program files (x86)/microchip/xc32/v2.15/bin/bin/../../lib/gcc/pic32c/6.2.1/../../../../pic32c/lib\libc.a(lib_a-reallocr.o)
 .debug_ranges  0x00002250       0x30 c:/program files (x86)/microchip/xc32/v2.15/bin/bin/../../lib/gcc/pic32c/6.2.1/../../../../pic32c/lib\libc.a(lib_a-wctomb_r.o)
 .debug_ranges  0x00002280       0x10 c:/program files (x86)/microchip/xc32/v2.15/bin/bin/../../lib/gcc/pic32c/6.2.1/../../../../pic32c/lib\libpic32c.a(sbrk.o)
 .debug_ranges  0x00002290      0x278 c:/program files (x86)/microchip/xc32/v2.15/bin/bin/../../lib/gcc/pic32c/6.2.1\libgcc.a(adddf3.o)
 .debug_ranges  0x00002508       0x40 c:/program files (x86)/microchip/xc32/v2.15/bin/bin/../../lib/gcc/pic32c/6.2.1\libgcc.a(unorddf2.o)
 .debug_ranges  0x00002548       0x48 c:/program files (x86)/microchip/xc32/v2.15/bin/bin/../../lib/gcc/pic32c/6.2.1\libgcc.a(floatsidf.o)

.debug_line     0x00000000    0x134fd
 .debug_line    0x00000000      0x342 build/sam_d21_xpro_winc1500/production/_ext/1242531425/plib_sercom3_usart.o
 .debug_line    0x00000342       0x72 build/sam_d21_xpro_winc1500/production/_ext/1910849038/plib_evsys.o
 .debug_line    0x000003b4      0x301 build/sam_d21_xpro_winc1500/production/_ext/98527899/plib_sercom0_spi.o
 .debug_line    0x000006b5      0x9ce build/sam_d21_xpro_winc1500/production/_ext/2003669979/wdrv_winc.o
 .debug_line    0x00001083      0x34f build/sam_d21_xpro_winc1500/production/_ext/1115528141/wdrv_winc_gpio.o
 .debug_line    0x000013d2      0x538 build/sam_d21_xpro_winc1500/production/_ext/1837088568/wdrv_winc_spi.o
 .debug_line    0x0000190a      0x324 build/sam_d21_xpro_winc1500/production/_ext/1879120711/wdrv_winc_osal.o
 .debug_line    0x00001c2e      0x36e build/sam_d21_xpro_winc1500/production/_ext/418110372/nm_common.o
 .debug_line    0x00001f9c      0x6c1 build/sam_d21_xpro_winc1500/production/_ext/386821479/m2m_hif.o
 .debug_line    0x0000265d      0xbdd build/sam_d21_xpro_winc1500/production/_ext/386821479/m2m_wifi.o
 .debug_line    0x0000323a      0x644 build/sam_d21_xpro_winc1500/production/_ext/386821479/nmasic.o
 .debug_line    0x0000387e      0x487 build/sam_d21_xpro_winc1500/production/_ext/386821479/nmbus.o
 .debug_line    0x00003d05      0x4ba build/sam_d21_xpro_winc1500/production/_ext/386821479/nmdrv.o
 .debug_line    0x000041bf      0x783 build/sam_d21_xpro_winc1500/production/_ext/386821479/nmspi.o
 .debug_line    0x00004942      0x4bd build/sam_d21_xpro_winc1500/production/_ext/1591721076/spi_flash.o
 .debug_line    0x00004dff      0x789 build/sam_d21_xpro_winc1500/production/_ext/39655908/socket.o
 .debug_line    0x00005588      0x2ac build/sam_d21_xpro_winc1500/production/_ext/1360937237/main.o
 .debug_line    0x00005834      0x81c build/sam_d21_xpro_winc1500/production/_ext/281389274/initialization.o
 .debug_line    0x00006050      0x318 build/sam_d21_xpro_winc1500/production/_ext/281389274/interrupts.o
 .debug_line    0x00006368      0x2b9 build/sam_d21_xpro_winc1500/production/_ext/281389274/exceptions.o
 .debug_line    0x00006621      0x1f1 build/sam_d21_xpro_winc1500/production/_ext/215775307/plib_port.o
 .debug_line    0x00006812      0x179 build/sam_d21_xpro_winc1500/production/_ext/1912998524/plib_clock.o
 .debug_line    0x0000698b      0x1c3 build/sam_d21_xpro_winc1500/production/_ext/215722156/plib_nvic.o
 .debug_line    0x00006b4e      0x28b build/sam_d21_xpro_winc1500/production/_ext/215415349/plib_dmac.o
 .debug_line    0x00006dd9      0x2ff build/sam_d21_xpro_winc1500/production/_ext/281389274/startup_xc32.o
 .debug_line    0x000070d8      0x1c9 build/sam_d21_xpro_winc1500/production/_ext/1101428939/plib_eic.o
 .debug_line    0x000072a1      0x232 build/sam_d21_xpro_winc1500/production/_ext/1143908167/plib_tc3.o
 .debug_line    0x000074d3      0x814 build/sam_d21_xpro_winc1500/production/_ext/1751631207/sys_time.o
 .debug_line    0x00007ce7      0x35a build/sam_d21_xpro_winc1500/production/_ext/2114417963/sys_console.o
 .debug_line    0x00008041      0x5b4 build/sam_d21_xpro_winc1500/production/_ext/2114417963/sys_console_uart.o
 .debug_line    0x000085f5      0x328 build/sam_d21_xpro_winc1500/production/_ext/2114417963/sys_debug.o
 .debug_line    0x0000891d      0x86f build/sam_d21_xpro_winc1500/production/_ext/1062439459/drv_spi.o
 .debug_line    0x0000918c      0x276 build/sam_d21_xpro_winc1500/production/_ext/720072173/sys_int.o
 .debug_line    0x00009402      0x1eb build/sam_d21_xpro_winc1500/production/_ext/676678561/sys_dma.o
 .debug_line    0x000095ed      0x4db build/sam_d21_xpro_winc1500/production/_ext/1360937237/app.o
 .debug_line    0x00009ac8      0x2cd build/sam_d21_xpro_winc1500/production/_ext/281389274/tasks.o
 .debug_line    0x00009d95       0xf2 c:/program files (x86)/microchip/xc32/v2.15/bin/bin/../../lib/gcc/pic32c/6.2.1/../../../../pic32c/lib\libpic32c.a(data_init.o)
 .debug_line    0x00009e87       0xb6 c:/program files (x86)/microchip/xc32/v2.15/bin/bin/../../lib/gcc/pic32c/6.2.1\libgcc.a(_udivsi3.o)
 .debug_line    0x00009f3d       0xbd c:/program files (x86)/microchip/xc32/v2.15/bin/bin/../../lib/gcc/pic32c/6.2.1\libgcc.a(_divsi3.o)
 .debug_line    0x00009ffa       0xaa c:/program files (x86)/microchip/xc32/v2.15/bin/bin/../../lib/gcc/pic32c/6.2.1\libgcc.a(_dvmd_tls.o)
 .debug_line    0x0000a0a4       0xb5 c:/program files (x86)/microchip/xc32/v2.15/bin/bin/../../lib/gcc/pic32c/6.2.1\libgcc.a(_aeabi_uldivmod.o)
 .debug_line    0x0000a159      0x45a c:/program files (x86)/microchip/xc32/v2.15/bin/bin/../../lib/gcc/pic32c/6.2.1\libgcc.a(_fixunsdfsi.o)
 .debug_line    0x0000a5b3      0x492 c:/program files (x86)/microchip/xc32/v2.15/bin/bin/../../lib/gcc/pic32c/6.2.1\libgcc.a(_udivmoddi4.o)
 .debug_line    0x0000aa45      0x17a c:/program files (x86)/microchip/xc32/v2.15/bin/bin/../../lib/gcc/pic32c/6.2.1\libgcc.a(mulsf3.o)
 .debug_line    0x0000abbf      0x14f c:/program files (x86)/microchip/xc32/v2.15/bin/bin/../../lib/gcc/pic32c/6.2.1\libgcc.a(floatunsisf.o)
 .debug_line    0x0000ad0e      0x1db c:/program files (x86)/microchip/xc32/v2.15/bin/bin/../../lib/gcc/pic32c/6.2.1\libgcc.a(divdf3.o)
 .debug_line    0x0000aee9      0x1a3 c:/program files (x86)/microchip/xc32/v2.15/bin/bin/../../lib/gcc/pic32c/6.2.1\libgcc.a(muldf3.o)
 .debug_line    0x0000b08c      0x1f6 c:/program files (x86)/microchip/xc32/v2.15/bin/bin/../../lib/gcc/pic32c/6.2.1\libgcc.a(subdf3.o)
 .debug_line    0x0000b282      0x146 c:/program files (x86)/microchip/xc32/v2.15/bin/bin/../../lib/gcc/pic32c/6.2.1\libgcc.a(fixdfsi.o)
 .debug_line    0x0000b3c8      0x148 c:/program files (x86)/microchip/xc32/v2.15/bin/bin/../../lib/gcc/pic32c/6.2.1\libgcc.a(floatunsidf.o)
 .debug_line    0x0000b510      0x163 c:/program files (x86)/microchip/xc32/v2.15/bin/bin/../../lib/gcc/pic32c/6.2.1\libgcc.a(extendsfdf2.o)
 .debug_line    0x0000b673       0xc2 c:/program files (x86)/microchip/xc32/v2.15/bin/bin/../../lib/gcc/pic32c/6.2.1\libgcc.a(_arm_cmpdf2.o)
 .debug_line    0x0000b735       0xbe c:/program files (x86)/microchip/xc32/v2.15/bin/bin/../../lib/gcc/pic32c/6.2.1\libgcc.a(_clzsi2.o)
 .debug_line    0x0000b7f3       0xb4 c:/program files (x86)/microchip/xc32/v2.15/bin/bin/../../lib/gcc/pic32c/6.2.1\libgcc.a(_clzdi2.o)
 .debug_line    0x0000b8a7      0x165 c:/program files (x86)/microchip/xc32/v2.15/bin/bin/../../lib/gcc/pic32c/6.2.1\libgcc.a(eqdf2.o)
 .debug_line    0x0000ba0c      0x168 c:/program files (x86)/microchip/xc32/v2.15/bin/bin/../../lib/gcc/pic32c/6.2.1\libgcc.a(gedf2.o)
 .debug_line    0x0000bb74      0x169 c:/program files (x86)/microchip/xc32/v2.15/bin/bin/../../lib/gcc/pic32c/6.2.1\libgcc.a(ledf2.o)
 .debug_line    0x0000bcdd      0x1ab c:/program files (x86)/microchip/xc32/v2.15/bin/bin/../../lib/gcc/pic32c/6.2.1/../../../../pic32c/lib\libc.a(lib_a-impure.o)
 .debug_line    0x0000be88      0x131 c:/program files (x86)/microchip/xc32/v2.15/bin/bin/../../lib/gcc/pic32c/6.2.1/../../../../pic32c/lib\libc.a(lib_a-init.o)
 .debug_line    0x0000bfb9      0x25f c:/program files (x86)/microchip/xc32/v2.15/bin/bin/../../lib/gcc/pic32c/6.2.1/../../../../pic32c/lib\libc.a(lib_a-malloc.o)
 .debug_line    0x0000c218      0x3e6 c:/program files (x86)/microchip/xc32/v2.15/bin/bin/../../lib/gcc/pic32c/6.2.1/../../../../pic32c/lib\libc.a(lib_a-mallocr.o)
 .debug_line    0x0000c5fe      0x270 c:/program files (x86)/microchip/xc32/v2.15/bin/bin/../../lib/gcc/pic32c/6.2.1/../../../../pic32c/lib\libc.a(lib_a-memcpy-stub.o)
 .debug_line    0x0000c86e      0x31a c:/program files (x86)/microchip/xc32/v2.15/bin/bin/../../lib/gcc/pic32c/6.2.1/../../../../pic32c/lib\libc.a(lib_a-memset.o)
 .debug_line    0x0000cb88      0x1bb c:/program files (x86)/microchip/xc32/v2.15/bin/bin/../../lib/gcc/pic32c/6.2.1/../../../../pic32c/lib\libc.a(lib_a-mlock.o)
 .debug_line    0x0000cd43      0x24d c:/program files (x86)/microchip/xc32/v2.15/bin/bin/../../lib/gcc/pic32c/6.2.1/../../../../pic32c/lib\libc.a(lib_a-sbrkr.o)
 .debug_line    0x0000cf90      0x2b5 c:/program files (x86)/microchip/xc32/v2.15/bin/bin/../../lib/gcc/pic32c/6.2.1/../../../../pic32c/lib\libc.a(lib_a-sprintf.o)
 .debug_line    0x0000d245      0x26f c:/program files (x86)/microchip/xc32/v2.15/bin/bin/../../lib/gcc/pic32c/6.2.1/../../../../pic32c/lib\libc.a(lib_a-strchr.o)
 .debug_line    0x0000d4b4      0x240 c:/program files (x86)/microchip/xc32/v2.15/bin/bin/../../lib/gcc/pic32c/6.2.1/../../../../pic32c/lib\libc.a(lib_a-strcpy.o)
 .debug_line    0x0000d6f4      0x263 c:/program files (x86)/microchip/xc32/v2.15/bin/bin/../../lib/gcc/pic32c/6.2.1/../../../../pic32c/lib\libc.a(lib_a-strlen-stub.o)
 .debug_line    0x0000d957      0x3c2 c:/program files (x86)/microchip/xc32/v2.15/bin/bin/../../lib/gcc/pic32c/6.2.1/../../../../pic32c/lib\libc.a(lib_a-strstr.o)
 .debug_line    0x0000dd19      0xa21 c:/program files (x86)/microchip/xc32/v2.15/bin/bin/../../lib/gcc/pic32c/6.2.1/../../../../pic32c/lib\libc.a(lib_a-svfprintf.o)
 .debug_line    0x0000e73a      0x2b0 c:/program files (x86)/microchip/xc32/v2.15/bin/bin/../../lib/gcc/pic32c/6.2.1/../../../../pic32c/lib\libc.a(lib_a-vsnprintf.o)
 .debug_line    0x0000e9ea      0x2a5 c:/program files (x86)/microchip/xc32/v2.15/bin/bin/../../lib/gcc/pic32c/6.2.1/../../../../pic32c/lib\libc.a(lib_a-__call_atexit.o)
 .debug_line    0x0000ec8f      0x249 c:/program files (x86)/microchip/xc32/v2.15/bin/bin/../../lib/gcc/pic32c/6.2.1/../../../../pic32c/lib\libc.a(lib_a-atexit.o)
 .debug_line    0x0000eed8      0x748 c:/program files (x86)/microchip/xc32/v2.15/bin/bin/../../lib/gcc/pic32c/6.2.1/../../../../pic32c/lib\libc.a(lib_a-dtoa.o)
 .debug_line    0x0000f620      0x125 c:/program files (x86)/microchip/xc32/v2.15/bin/bin/../../lib/gcc/pic32c/6.2.1/../../../../pic32c/lib\libc.a(lib_a-fini.o)
 .debug_line    0x0000f745      0x2f2 c:/program files (x86)/microchip/xc32/v2.15/bin/bin/../../lib/gcc/pic32c/6.2.1/../../../../pic32c/lib\libc.a(lib_a-freer.o)
 .debug_line    0x0000fa37      0x2af c:/program files (x86)/microchip/xc32/v2.15/bin/bin/../../lib/gcc/pic32c/6.2.1/../../../../pic32c/lib\libc.a(lib_a-localeconv.o)
 .debug_line    0x0000fce6      0x276 c:/program files (x86)/microchip/xc32/v2.15/bin/bin/../../lib/gcc/pic32c/6.2.1/../../../../pic32c/lib\libc.a(lib_a-memchr-stub.o)
 .debug_line    0x0000ff5c      0x253 c:/program files (x86)/microchip/xc32/v2.15/bin/bin/../../lib/gcc/pic32c/6.2.1/../../../../pic32c/lib\libc.a(lib_a-memcmp.o)
 .debug_line    0x000101af      0x7aa c:/program files (x86)/microchip/xc32/v2.15/bin/bin/../../lib/gcc/pic32c/6.2.1/../../../../pic32c/lib\libc.a(lib_a-mprec.o)
 .debug_line    0x00010959      0x276 c:/program files (x86)/microchip/xc32/v2.15/bin/bin/../../lib/gcc/pic32c/6.2.1/../../../../pic32c/lib\libc.a(lib_a-reent.o)
 .debug_line    0x00010bcf      0x35f c:/program files (x86)/microchip/xc32/v2.15/bin/bin/../../lib/gcc/pic32c/6.2.1/../../../../pic32c/lib\libc.a(lib_a-s_frexp.o)
 .debug_line    0x00010f2e      0x265 c:/program files (x86)/microchip/xc32/v2.15/bin/bin/../../lib/gcc/pic32c/6.2.1/../../../../pic32c/lib\libc.a(lib_a-strncpy.o)
 .debug_line    0x00011193      0x7a9 c:/program files (x86)/microchip/xc32/v2.15/bin/bin/../../lib/gcc/pic32c/6.2.1/../../../../pic32c/lib\libc.a(lib_a-svfiprintf.o)
 .debug_line    0x0001193c      0x285 c:/program files (x86)/microchip/xc32/v2.15/bin/bin/../../lib/gcc/pic32c/6.2.1/../../../../pic32c/lib\libc.a(lib_a-__atexit.o)
 .debug_line    0x00011bc1      0x1ea c:/program files (x86)/microchip/xc32/v2.15/bin/bin/../../lib/gcc/pic32c/6.2.1/../../../../pic32c/lib\libc.a(lib_a-callocr.o)
 .debug_line    0x00011dab      0x389 c:/program files (x86)/microchip/xc32/v2.15/bin/bin/../../lib/gcc/pic32c/6.2.1/../../../../pic32c/lib\libc.a(lib_a-locale.o)
 .debug_line    0x00012134      0x335 c:/program files (x86)/microchip/xc32/v2.15/bin/bin/../../lib/gcc/pic32c/6.2.1/../../../../pic32c/lib\libc.a(lib_a-mbtowc_r.o)
 .debug_line    0x00012469      0x31d c:/program files (x86)/microchip/xc32/v2.15/bin/bin/../../lib/gcc/pic32c/6.2.1/../../../../pic32c/lib\libc.a(lib_a-memmove.o)
 .debug_line    0x00012786      0x2b1 c:/program files (x86)/microchip/xc32/v2.15/bin/bin/../../lib/gcc/pic32c/6.2.1/../../../../pic32c/lib\libc.a(lib_a-reallocr.o)
 .debug_line    0x00012a37      0x320 c:/program files (x86)/microchip/xc32/v2.15/bin/bin/../../lib/gcc/pic32c/6.2.1/../../../../pic32c/lib\libc.a(lib_a-wctomb_r.o)
 .debug_line    0x00012d57      0x259 c:/program files (x86)/microchip/xc32/v2.15/bin/bin/../../lib/gcc/pic32c/6.2.1/../../../../pic32c/lib\libc.a(lib_a-ctype_.o)
 .debug_line    0x00012fb0       0xb3 c:/program files (x86)/microchip/xc32/v2.15/bin/bin/../../lib/gcc/pic32c/6.2.1/../../../../pic32c/lib\libpic32c.a(sbrk.o)
 .debug_line    0x00013063      0x1f6 c:/program files (x86)/microchip/xc32/v2.15/bin/bin/../../lib/gcc/pic32c/6.2.1\libgcc.a(adddf3.o)
 .debug_line    0x00013259      0x15f c:/program files (x86)/microchip/xc32/v2.15/bin/bin/../../lib/gcc/pic32c/6.2.1\libgcc.a(unorddf2.o)
 .debug_line    0x000133b8      0x145 c:/program files (x86)/microchip/xc32/v2.15/bin/bin/../../lib/gcc/pic32c/6.2.1\libgcc.a(floatsidf.o)

.debug_str      0x00000000     0x2ce2
 .debug_str     0x00000000      0x10d build/sam_d21_xpro_winc1500/production/_ext/1242531425/plib_sercom3_usart.o
 .debug_str     0x0000010d        0x0 build/sam_d21_xpro_winc1500/production/_ext/1910849038/plib_evsys.o
 .debug_str     0x0000010d      0x11e build/sam_d21_xpro_winc1500/production/_ext/98527899/plib_sercom0_spi.o
 .debug_str     0x0000022b      0x3e1 build/sam_d21_xpro_winc1500/production/_ext/2003669979/wdrv_winc.o
 .debug_str     0x0000060c        0xe build/sam_d21_xpro_winc1500/production/_ext/1115528141/wdrv_winc_gpio.o
 .debug_str     0x0000061a       0xe0 build/sam_d21_xpro_winc1500/production/_ext/1837088568/wdrv_winc_spi.o
 .debug_str     0x000006fa       0x38 build/sam_d21_xpro_winc1500/production/_ext/1879120711/wdrv_winc_osal.o
 .debug_str     0x00000732       0x91 build/sam_d21_xpro_winc1500/production/_ext/418110372/nm_common.o
 .debug_str     0x000007c3       0xe0 build/sam_d21_xpro_winc1500/production/_ext/386821479/m2m_hif.o
 .debug_str     0x000008a3      0x3f0 build/sam_d21_xpro_winc1500/production/_ext/386821479/m2m_wifi.o
 .debug_str     0x00000c93       0x8d build/sam_d21_xpro_winc1500/production/_ext/386821479/nmasic.o
 .debug_str     0x00000d20       0xa6 build/sam_d21_xpro_winc1500/production/_ext/386821479/nmbus.o
 .debug_str     0x00000dc6      0x137 build/sam_d21_xpro_winc1500/production/_ext/386821479/nmdrv.o
 .debug_str     0x00000efd       0x88 build/sam_d21_xpro_winc1500/production/_ext/386821479/nmspi.o
 .debug_str     0x00000f85       0x95 build/sam_d21_xpro_winc1500/production/_ext/1591721076/spi_flash.o
 .debug_str     0x0000101a      0x171 build/sam_d21_xpro_winc1500/production/_ext/39655908/socket.o
 .debug_str     0x0000118b       0x27 build/sam_d21_xpro_winc1500/production/_ext/1360937237/main.o
 .debug_str     0x000011b2      0x25f build/sam_d21_xpro_winc1500/production/_ext/281389274/initialization.o
 .debug_str     0x00001411        0xe build/sam_d21_xpro_winc1500/production/_ext/281389274/interrupts.o
 .debug_str     0x0000141f        0xe build/sam_d21_xpro_winc1500/production/_ext/281389274/exceptions.o
 .debug_str     0x0000142d        0xb build/sam_d21_xpro_winc1500/production/_ext/215775307/plib_port.o
 .debug_str     0x00001438       0x32 build/sam_d21_xpro_winc1500/production/_ext/1912998524/plib_clock.o
 .debug_str     0x0000146a        0x0 build/sam_d21_xpro_winc1500/production/_ext/215722156/plib_nvic.o
 .debug_str     0x0000146a       0x35 build/sam_d21_xpro_winc1500/production/_ext/215415349/plib_dmac.o
 .debug_str     0x0000149f       0x79 build/sam_d21_xpro_winc1500/production/_ext/281389274/startup_xc32.o
 .debug_str     0x00001518        0x9 build/sam_d21_xpro_winc1500/production/_ext/1101428939/plib_eic.o
 .debug_str     0x00001521       0xa7 build/sam_d21_xpro_winc1500/production/_ext/1143908167/plib_tc3.o
 .debug_str     0x000015c8      0x14e build/sam_d21_xpro_winc1500/production/_ext/1751631207/sys_time.o
 .debug_str     0x00001716       0x27 build/sam_d21_xpro_winc1500/production/_ext/2114417963/sys_console.o
 .debug_str     0x0000173d       0xd5 build/sam_d21_xpro_winc1500/production/_ext/2114417963/sys_console_uart.o
 .debug_str     0x00001812       0x2a build/sam_d21_xpro_winc1500/production/_ext/2114417963/sys_debug.o
 .debug_str     0x0000183c      0x231 build/sam_d21_xpro_winc1500/production/_ext/1062439459/drv_spi.o
 .debug_str     0x00001a6d       0x10 build/sam_d21_xpro_winc1500/production/_ext/720072173/sys_int.o
 .debug_str     0x00001a7d       0x3e build/sam_d21_xpro_winc1500/production/_ext/676678561/sys_dma.o
 .debug_str     0x00001abb      0x13c build/sam_d21_xpro_winc1500/production/_ext/1360937237/app.o
 .debug_str     0x00001bf7       0x28 build/sam_d21_xpro_winc1500/production/_ext/281389274/tasks.o
 .debug_str     0x00001c1f        0x0 c:/program files (x86)/microchip/xc32/v2.15/bin/bin/../../lib/gcc/pic32c/6.2.1/../../../../pic32c/lib\libpic32c.a(data_init.o)
 .debug_str     0x00001c1f        0xe c:/program files (x86)/microchip/xc32/v2.15/bin/bin/../../lib/gcc/pic32c/6.2.1\libgcc.a(_fixunsdfsi.o)
 .debug_str     0x00001c2d        0xe c:/program files (x86)/microchip/xc32/v2.15/bin/bin/../../lib/gcc/pic32c/6.2.1\libgcc.a(_udivmoddi4.o)
 .debug_str     0x00001c3b       0x30 c:/program files (x86)/microchip/xc32/v2.15/bin/bin/../../lib/gcc/pic32c/6.2.1\libgcc.a(mulsf3.o)
 .debug_str     0x00001c6b        0x0 c:/program files (x86)/microchip/xc32/v2.15/bin/bin/../../lib/gcc/pic32c/6.2.1\libgcc.a(floatunsisf.o)
 .debug_str     0x00001c6b       0x30 c:/program files (x86)/microchip/xc32/v2.15/bin/bin/../../lib/gcc/pic32c/6.2.1\libgcc.a(divdf3.o)
 .debug_str     0x00001c9b       0x56 c:/program files (x86)/microchip/xc32/v2.15/bin/bin/../../lib/gcc/pic32c/6.2.1\libgcc.a(muldf3.o)
 .debug_str     0x00001cf1       0x2c c:/program files (x86)/microchip/xc32/v2.15/bin/bin/../../lib/gcc/pic32c/6.2.1\libgcc.a(subdf3.o)
 .debug_str     0x00001d1d       0x13 c:/program files (x86)/microchip/xc32/v2.15/bin/bin/../../lib/gcc/pic32c/6.2.1\libgcc.a(fixdfsi.o)
 .debug_str     0x00001d30        0x0 c:/program files (x86)/microchip/xc32/v2.15/bin/bin/../../lib/gcc/pic32c/6.2.1\libgcc.a(floatunsidf.o)
 .debug_str     0x00001d30        0x0 c:/program files (x86)/microchip/xc32/v2.15/bin/bin/../../lib/gcc/pic32c/6.2.1\libgcc.a(extendsfdf2.o)
 .debug_str     0x00001d30       0x26 c:/program files (x86)/microchip/xc32/v2.15/bin/bin/../../lib/gcc/pic32c/6.2.1\libgcc.a(eqdf2.o)
 .debug_str     0x00001d56       0x26 c:/program files (x86)/microchip/xc32/v2.15/bin/bin/../../lib/gcc/pic32c/6.2.1\libgcc.a(gedf2.o)
 .debug_str     0x00001d7c       0x26 c:/program files (x86)/microchip/xc32/v2.15/bin/bin/../../lib/gcc/pic32c/6.2.1\libgcc.a(ledf2.o)
 .debug_str     0x00001da2        0xe c:/program files (x86)/microchip/xc32/v2.15/bin/bin/../../lib/gcc/pic32c/6.2.1/../../../../pic32c/lib\libc.a(lib_a-impure.o)
 .debug_str     0x00001db0        0x0 c:/program files (x86)/microchip/xc32/v2.15/bin/bin/../../lib/gcc/pic32c/6.2.1/../../../../pic32c/lib\libc.a(lib_a-init.o)
 .debug_str     0x00001db0       0x18 c:/program files (x86)/microchip/xc32/v2.15/bin/bin/../../lib/gcc/pic32c/6.2.1/../../../../pic32c/lib\libc.a(lib_a-malloc.o)
 .debug_str     0x00001dc8       0x36 c:/program files (x86)/microchip/xc32/v2.15/bin/bin/../../lib/gcc/pic32c/6.2.1/../../../../pic32c/lib\libc.a(lib_a-mallocr.o)
 .debug_str     0x00001dfe        0xe c:/program files (x86)/microchip/xc32/v2.15/bin/bin/../../lib/gcc/pic32c/6.2.1/../../../../pic32c/lib\libc.a(lib_a-memcpy-stub.o)
 .debug_str     0x00001e0c      0x119 c:/program files (x86)/microchip/xc32/v2.15/bin/bin/../../lib/gcc/pic32c/6.2.1/../../../../pic32c/lib\libc.a(lib_a-memset.o)
 .debug_str     0x00001f25        0xe c:/program files (x86)/microchip/xc32/v2.15/bin/bin/../../lib/gcc/pic32c/6.2.1/../../../../pic32c/lib\libc.a(lib_a-mlock.o)
 .debug_str     0x00001f33        0xe c:/program files (x86)/microchip/xc32/v2.15/bin/bin/../../lib/gcc/pic32c/6.2.1/../../../../pic32c/lib\libc.a(lib_a-sbrkr.o)
 .debug_str     0x00001f41       0x1b c:/program files (x86)/microchip/xc32/v2.15/bin/bin/../../lib/gcc/pic32c/6.2.1/../../../../pic32c/lib\libc.a(lib_a-sprintf.o)
 .debug_str     0x00001f5c        0xe c:/program files (x86)/microchip/xc32/v2.15/bin/bin/../../lib/gcc/pic32c/6.2.1/../../../../pic32c/lib\libc.a(lib_a-strchr.o)
 .debug_str     0x00001f6a        0xe c:/program files (x86)/microchip/xc32/v2.15/bin/bin/../../lib/gcc/pic32c/6.2.1/../../../../pic32c/lib\libc.a(lib_a-strcpy.o)
 .debug_str     0x00001f78        0xe c:/program files (x86)/microchip/xc32/v2.15/bin/bin/../../lib/gcc/pic32c/6.2.1/../../../../pic32c/lib\libc.a(lib_a-strlen-stub.o)
 .debug_str     0x00001f86       0x3d c:/program files (x86)/microchip/xc32/v2.15/bin/bin/../../lib/gcc/pic32c/6.2.1/../../../../pic32c/lib\libc.a(lib_a-strstr.o)
 .debug_str     0x00001fc3      0x13d c:/program files (x86)/microchip/xc32/v2.15/bin/bin/../../lib/gcc/pic32c/6.2.1/../../../../pic32c/lib\libc.a(lib_a-svfprintf.o)
 .debug_str     0x00002100       0x1b c:/program files (x86)/microchip/xc32/v2.15/bin/bin/../../lib/gcc/pic32c/6.2.1/../../../../pic32c/lib\libc.a(lib_a-vsnprintf.o)
 .debug_str     0x0000211b        0xe c:/program files (x86)/microchip/xc32/v2.15/bin/bin/../../lib/gcc/pic32c/6.2.1/../../../../pic32c/lib\libc.a(lib_a-__call_atexit.o)
 .debug_str     0x00002129       0x22 c:/program files (x86)/microchip/xc32/v2.15/bin/bin/../../lib/gcc/pic32c/6.2.1/../../../../pic32c/lib\libc.a(lib_a-atexit.o)
 .debug_str     0x0000214b      0x14c c:/program files (x86)/microchip/xc32/v2.15/bin/bin/../../lib/gcc/pic32c/6.2.1/../../../../pic32c/lib\libc.a(lib_a-dtoa.o)
 .debug_str     0x00002297        0x0 c:/program files (x86)/microchip/xc32/v2.15/bin/bin/../../lib/gcc/pic32c/6.2.1/../../../../pic32c/lib\libc.a(lib_a-fini.o)
 .debug_str     0x00002297       0x36 c:/program files (x86)/microchip/xc32/v2.15/bin/bin/../../lib/gcc/pic32c/6.2.1/../../../../pic32c/lib\libc.a(lib_a-freer.o)
 .debug_str     0x000022cd      0x119 c:/program files (x86)/microchip/xc32/v2.15/bin/bin/../../lib/gcc/pic32c/6.2.1/../../../../pic32c/lib\libc.a(lib_a-localeconv.o)
 .debug_str     0x000023e6        0xe c:/program files (x86)/microchip/xc32/v2.15/bin/bin/../../lib/gcc/pic32c/6.2.1/../../../../pic32c/lib\libc.a(lib_a-memchr-stub.o)
 .debug_str     0x000023f4        0xe c:/program files (x86)/microchip/xc32/v2.15/bin/bin/../../lib/gcc/pic32c/6.2.1/../../../../pic32c/lib\libc.a(lib_a-memcmp.o)
 .debug_str     0x00002402      0x123 c:/program files (x86)/microchip/xc32/v2.15/bin/bin/../../lib/gcc/pic32c/6.2.1/../../../../pic32c/lib\libc.a(lib_a-mprec.o)
 .debug_str     0x00002525        0xe c:/program files (x86)/microchip/xc32/v2.15/bin/bin/../../lib/gcc/pic32c/6.2.1/../../../../pic32c/lib\libc.a(lib_a-reent.o)
 .debug_str     0x00002533        0xe c:/program files (x86)/microchip/xc32/v2.15/bin/bin/../../lib/gcc/pic32c/6.2.1/../../../../pic32c/lib\libc.a(lib_a-s_frexp.o)
 .debug_str     0x00002541        0xe c:/program files (x86)/microchip/xc32/v2.15/bin/bin/../../lib/gcc/pic32c/6.2.1/../../../../pic32c/lib\libc.a(lib_a-strncpy.o)
 .debug_str     0x0000254f      0x13c c:/program files (x86)/microchip/xc32/v2.15/bin/bin/../../lib/gcc/pic32c/6.2.1/../../../../pic32c/lib\libc.a(lib_a-svfiprintf.o)
 .debug_str     0x0000268b        0xe c:/program files (x86)/microchip/xc32/v2.15/bin/bin/../../lib/gcc/pic32c/6.2.1/../../../../pic32c/lib\libc.a(lib_a-__atexit.o)
 .debug_str     0x00002699       0x18 c:/program files (x86)/microchip/xc32/v2.15/bin/bin/../../lib/gcc/pic32c/6.2.1/../../../../pic32c/lib\libc.a(lib_a-callocr.o)
 .debug_str     0x000026b1      0x139 c:/program files (x86)/microchip/xc32/v2.15/bin/bin/../../lib/gcc/pic32c/6.2.1/../../../../pic32c/lib\libc.a(lib_a-locale.o)
 .debug_str     0x000027ea      0x119 c:/program files (x86)/microchip/xc32/v2.15/bin/bin/../../lib/gcc/pic32c/6.2.1/../../../../pic32c/lib\libc.a(lib_a-mbtowc_r.o)
 .debug_str     0x00002903      0x119 c:/program files (x86)/microchip/xc32/v2.15/bin/bin/../../lib/gcc/pic32c/6.2.1/../../../../pic32c/lib\libc.a(lib_a-memmove.o)
 .debug_str     0x00002a1c       0x42 c:/program files (x86)/microchip/xc32/v2.15/bin/bin/../../lib/gcc/pic32c/6.2.1/../../../../pic32c/lib\libc.a(lib_a-reallocr.o)
 .debug_str     0x00002a5e      0x119 c:/program files (x86)/microchip/xc32/v2.15/bin/bin/../../lib/gcc/pic32c/6.2.1/../../../../pic32c/lib\libc.a(lib_a-wctomb_r.o)
 .debug_str     0x00002b77      0x119 c:/program files (x86)/microchip/xc32/v2.15/bin/bin/../../lib/gcc/pic32c/6.2.1/../../../../pic32c/lib\libc.a(lib_a-ctype_.o)
 .debug_str     0x00002c90        0x0 c:/program files (x86)/microchip/xc32/v2.15/bin/bin/../../lib/gcc/pic32c/6.2.1/../../../../pic32c/lib\libpic32c.a(sbrk.o)
 .debug_str     0x00002c90       0x2c c:/program files (x86)/microchip/xc32/v2.15/bin/bin/../../lib/gcc/pic32c/6.2.1\libgcc.a(adddf3.o)
 .debug_str     0x00002cbc       0x26 c:/program files (x86)/microchip/xc32/v2.15/bin/bin/../../lib/gcc/pic32c/6.2.1\libgcc.a(unorddf2.o)
 .debug_str     0x00002ce2        0x0 c:/program files (x86)/microchip/xc32/v2.15/bin/bin/../../lib/gcc/pic32c/6.2.1\libgcc.a(floatsidf.o)

.debug_frame    0x00000000     0x3404
 .debug_frame   0x00000000      0x104 build/sam_d21_xpro_winc1500/production/_ext/1242531425/plib_sercom3_usart.o
 .debug_frame   0x00000104       0x20 build/sam_d21_xpro_winc1500/production/_ext/1910849038/plib_evsys.o
 .debug_frame   0x00000124       0xc0 build/sam_d21_xpro_winc1500/production/_ext/98527899/plib_sercom0_spi.o
 .debug_frame   0x000001e4      0x278 build/sam_d21_xpro_winc1500/production/_ext/2003669979/wdrv_winc.o
 .debug_frame   0x0000045c       0x50 build/sam_d21_xpro_winc1500/production/_ext/1115528141/wdrv_winc_gpio.o
 .debug_frame   0x000004ac       0xc0 build/sam_d21_xpro_winc1500/production/_ext/1837088568/wdrv_winc_spi.o
 .debug_frame   0x0000056c       0x28 build/sam_d21_xpro_winc1500/production/_ext/1879120711/wdrv_winc_osal.o
 .debug_frame   0x00000594       0x40 build/sam_d21_xpro_winc1500/production/_ext/418110372/nm_common.o
 .debug_frame   0x000005d4      0x138 build/sam_d21_xpro_winc1500/production/_ext/386821479/m2m_hif.o
 .debug_frame   0x0000070c      0x7b0 build/sam_d21_xpro_winc1500/production/_ext/386821479/m2m_wifi.o
 .debug_frame   0x00000ebc      0x270 build/sam_d21_xpro_winc1500/production/_ext/386821479/nmasic.o
 .debug_frame   0x0000112c       0xf8 build/sam_d21_xpro_winc1500/production/_ext/386821479/nmbus.o
 .debug_frame   0x00001224       0xec build/sam_d21_xpro_winc1500/production/_ext/386821479/nmdrv.o
 .debug_frame   0x00001310      0x194 build/sam_d21_xpro_winc1500/production/_ext/386821479/nmspi.o
 .debug_frame   0x000014a4      0x134 build/sam_d21_xpro_winc1500/production/_ext/1591721076/spi_flash.o
 .debug_frame   0x000015d8      0x254 build/sam_d21_xpro_winc1500/production/_ext/39655908/socket.o
 .debug_frame   0x0000182c       0x28 build/sam_d21_xpro_winc1500/production/_ext/1360937237/main.o
 .debug_frame   0x00001854       0x28 build/sam_d21_xpro_winc1500/production/_ext/281389274/initialization.o
 .debug_frame   0x0000187c       0x20 build/sam_d21_xpro_winc1500/production/_ext/281389274/interrupts.o
 .debug_frame   0x0000189c       0x30 build/sam_d21_xpro_winc1500/production/_ext/281389274/exceptions.o
 .debug_frame   0x000018cc       0xa0 build/sam_d21_xpro_winc1500/production/_ext/215775307/plib_port.o
 .debug_frame   0x0000196c       0x20 build/sam_d21_xpro_winc1500/production/_ext/1912998524/plib_clock.o
 .debug_frame   0x0000198c       0x30 build/sam_d21_xpro_winc1500/production/_ext/215722156/plib_nvic.o
 .debug_frame   0x000019bc       0xc8 build/sam_d21_xpro_winc1500/production/_ext/215415349/plib_dmac.o
 .debug_frame   0x00001a84       0x28 build/sam_d21_xpro_winc1500/production/_ext/281389274/startup_xc32.o
 .debug_frame   0x00001aac       0x88 build/sam_d21_xpro_winc1500/production/_ext/1101428939/plib_eic.o
 .debug_frame   0x00001b34       0xc8 build/sam_d21_xpro_winc1500/production/_ext/1143908167/plib_tc3.o
 .debug_frame   0x00001bfc      0x3a8 build/sam_d21_xpro_winc1500/production/_ext/1751631207/sys_time.o
 .debug_frame   0x00001fa4       0xbc build/sam_d21_xpro_winc1500/production/_ext/2114417963/sys_console.o
 .debug_frame   0x00002060      0x12c build/sam_d21_xpro_winc1500/production/_ext/2114417963/sys_console_uart.o
 .debug_frame   0x0000218c       0x9c build/sam_d21_xpro_winc1500/production/_ext/2114417963/sys_debug.o
 .debug_frame   0x00002228      0x230 build/sam_d21_xpro_winc1500/production/_ext/1062439459/drv_spi.o
 .debug_frame   0x00002458       0x6c build/sam_d21_xpro_winc1500/production/_ext/720072173/sys_int.o
 .debug_frame   0x000024c4       0x48 build/sam_d21_xpro_winc1500/production/_ext/676678561/sys_dma.o
 .debug_frame   0x0000250c       0xb4 build/sam_d21_xpro_winc1500/production/_ext/1360937237/app.o
 .debug_frame   0x000025c0       0x28 build/sam_d21_xpro_winc1500/production/_ext/281389274/tasks.o
 .debug_frame   0x000025e8       0x2c c:/program files (x86)/microchip/xc32/v2.15/bin/bin/../../lib/gcc/pic32c/6.2.1/../../../../pic32c/lib\libpic32c.a(data_init.o)
 .debug_frame   0x00002614       0x20 c:/program files (x86)/microchip/xc32/v2.15/bin/bin/../../lib/gcc/pic32c/6.2.1\libgcc.a(_udivsi3.o)
 .debug_frame   0x00002634       0x20 c:/program files (x86)/microchip/xc32/v2.15/bin/bin/../../lib/gcc/pic32c/6.2.1\libgcc.a(_divsi3.o)
 .debug_frame   0x00002654       0x2c c:/program files (x86)/microchip/xc32/v2.15/bin/bin/../../lib/gcc/pic32c/6.2.1\libgcc.a(_fixunsdfsi.o)
 .debug_frame   0x00002680       0x3c c:/program files (x86)/microchip/xc32/v2.15/bin/bin/../../lib/gcc/pic32c/6.2.1\libgcc.a(_udivmoddi4.o)
 .debug_frame   0x000026bc       0x3c c:/program files (x86)/microchip/xc32/v2.15/bin/bin/../../lib/gcc/pic32c/6.2.1\libgcc.a(mulsf3.o)
 .debug_frame   0x000026f8       0x28 c:/program files (x86)/microchip/xc32/v2.15/bin/bin/../../lib/gcc/pic32c/6.2.1\libgcc.a(floatunsisf.o)
 .debug_frame   0x00002720       0x3c c:/program files (x86)/microchip/xc32/v2.15/bin/bin/../../lib/gcc/pic32c/6.2.1\libgcc.a(divdf3.o)
 .debug_frame   0x0000275c       0x3c c:/program files (x86)/microchip/xc32/v2.15/bin/bin/../../lib/gcc/pic32c/6.2.1\libgcc.a(muldf3.o)
 .debug_frame   0x00002798       0x38 c:/program files (x86)/microchip/xc32/v2.15/bin/bin/../../lib/gcc/pic32c/6.2.1\libgcc.a(subdf3.o)
 .debug_frame   0x000027d0       0x2c c:/program files (x86)/microchip/xc32/v2.15/bin/bin/../../lib/gcc/pic32c/6.2.1\libgcc.a(fixdfsi.o)
 .debug_frame   0x000027fc       0x28 c:/program files (x86)/microchip/xc32/v2.15/bin/bin/../../lib/gcc/pic32c/6.2.1\libgcc.a(floatunsidf.o)
 .debug_frame   0x00002824       0x2c c:/program files (x86)/microchip/xc32/v2.15/bin/bin/../../lib/gcc/pic32c/6.2.1\libgcc.a(extendsfdf2.o)
 .debug_frame   0x00002850       0x38 c:/program files (x86)/microchip/xc32/v2.15/bin/bin/../../lib/gcc/pic32c/6.2.1\libgcc.a(eqdf2.o)
 .debug_frame   0x00002888       0x38 c:/program files (x86)/microchip/xc32/v2.15/bin/bin/../../lib/gcc/pic32c/6.2.1\libgcc.a(gedf2.o)
 .debug_frame   0x000028c0       0x38 c:/program files (x86)/microchip/xc32/v2.15/bin/bin/../../lib/gcc/pic32c/6.2.1\libgcc.a(ledf2.o)
 .debug_frame   0x000028f8       0x2c c:/program files (x86)/microchip/xc32/v2.15/bin/bin/../../lib/gcc/pic32c/6.2.1/../../../../pic32c/lib\libc.a(lib_a-init.o)
 .debug_frame   0x00002924       0x40 c:/program files (x86)/microchip/xc32/v2.15/bin/bin/../../lib/gcc/pic32c/6.2.1/../../../../pic32c/lib\libc.a(lib_a-malloc.o)
 .debug_frame   0x00002964       0x3c c:/program files (x86)/microchip/xc32/v2.15/bin/bin/../../lib/gcc/pic32c/6.2.1/../../../../pic32c/lib\libc.a(lib_a-mallocr.o)
 .debug_frame   0x000029a0       0x30 c:/program files (x86)/microchip/xc32/v2.15/bin/bin/../../lib/gcc/pic32c/6.2.1/../../../../pic32c/lib\libc.a(lib_a-memcpy-stub.o)
 .debug_frame   0x000029d0       0x30 c:/program files (x86)/microchip/xc32/v2.15/bin/bin/../../lib/gcc/pic32c/6.2.1/../../../../pic32c/lib\libc.a(lib_a-memset.o)
 .debug_frame   0x00002a00       0x30 c:/program files (x86)/microchip/xc32/v2.15/bin/bin/../../lib/gcc/pic32c/6.2.1/../../../../pic32c/lib\libc.a(lib_a-mlock.o)
 .debug_frame   0x00002a30       0x2c c:/program files (x86)/microchip/xc32/v2.15/bin/bin/../../lib/gcc/pic32c/6.2.1/../../../../pic32c/lib\libc.a(lib_a-sbrkr.o)
 .debug_frame   0x00002a5c       0x50 c:/program files (x86)/microchip/xc32/v2.15/bin/bin/../../lib/gcc/pic32c/6.2.1/../../../../pic32c/lib\libc.a(lib_a-sprintf.o)
 .debug_frame   0x00002aac       0x2c c:/program files (x86)/microchip/xc32/v2.15/bin/bin/../../lib/gcc/pic32c/6.2.1/../../../../pic32c/lib\libc.a(lib_a-strchr.o)
 .debug_frame   0x00002ad8       0x20 c:/program files (x86)/microchip/xc32/v2.15/bin/bin/../../lib/gcc/pic32c/6.2.1/../../../../pic32c/lib\libc.a(lib_a-strcpy.o)
 .debug_frame   0x00002af8       0x28 c:/program files (x86)/microchip/xc32/v2.15/bin/bin/../../lib/gcc/pic32c/6.2.1/../../../../pic32c/lib\libc.a(lib_a-strlen-stub.o)
 .debug_frame   0x00002b20       0x8c c:/program files (x86)/microchip/xc32/v2.15/bin/bin/../../lib/gcc/pic32c/6.2.1/../../../../pic32c/lib\libc.a(lib_a-strstr.o)
 .debug_frame   0x00002bac       0x3c c:/program files (x86)/microchip/xc32/v2.15/bin/bin/../../lib/gcc/pic32c/6.2.1/../../../../pic32c/lib\libc.a(lib_a-svfprintf.o)
 .debug_frame   0x00002be8       0x48 c:/program files (x86)/microchip/xc32/v2.15/bin/bin/../../lib/gcc/pic32c/6.2.1/../../../../pic32c/lib\libc.a(lib_a-vsnprintf.o)
 .debug_frame   0x00002c30       0x54 c:/program files (x86)/microchip/xc32/v2.15/bin/bin/../../lib/gcc/pic32c/6.2.1/../../../../pic32c/lib\libc.a(lib_a-__call_atexit.o)
 .debug_frame   0x00002c84       0x28 c:/program files (x86)/microchip/xc32/v2.15/bin/bin/../../lib/gcc/pic32c/6.2.1/../../../../pic32c/lib\libc.a(lib_a-atexit.o)
 .debug_frame   0x00002cac       0x68 c:/program files (x86)/microchip/xc32/v2.15/bin/bin/../../lib/gcc/pic32c/6.2.1/../../../../pic32c/lib\libc.a(lib_a-dtoa.o)
 .debug_frame   0x00002d14       0x2c c:/program files (x86)/microchip/xc32/v2.15/bin/bin/../../lib/gcc/pic32c/6.2.1/../../../../pic32c/lib\libc.a(lib_a-fini.o)
 .debug_frame   0x00002d40       0x50 c:/program files (x86)/microchip/xc32/v2.15/bin/bin/../../lib/gcc/pic32c/6.2.1/../../../../pic32c/lib\libc.a(lib_a-freer.o)
 .debug_frame   0x00002d90       0x40 c:/program files (x86)/microchip/xc32/v2.15/bin/bin/../../lib/gcc/pic32c/6.2.1/../../../../pic32c/lib\libc.a(lib_a-localeconv.o)
 .debug_frame   0x00002dd0       0x2c c:/program files (x86)/microchip/xc32/v2.15/bin/bin/../../lib/gcc/pic32c/6.2.1/../../../../pic32c/lib\libc.a(lib_a-memchr-stub.o)
 .debug_frame   0x00002dfc       0x28 c:/program files (x86)/microchip/xc32/v2.15/bin/bin/../../lib/gcc/pic32c/6.2.1/../../../../pic32c/lib\libc.a(lib_a-memcmp.o)
 .debug_frame   0x00002e24      0x260 c:/program files (x86)/microchip/xc32/v2.15/bin/bin/../../lib/gcc/pic32c/6.2.1/../../../../pic32c/lib\libc.a(lib_a-mprec.o)
 .debug_frame   0x00003084       0x48 c:/program files (x86)/microchip/xc32/v2.15/bin/bin/../../lib/gcc/pic32c/6.2.1/../../../../pic32c/lib\libc.a(lib_a-reent.o)
 .debug_frame   0x000030cc       0x2c c:/program files (x86)/microchip/xc32/v2.15/bin/bin/../../lib/gcc/pic32c/6.2.1/../../../../pic32c/lib\libc.a(lib_a-s_frexp.o)
 .debug_frame   0x000030f8       0x30 c:/program files (x86)/microchip/xc32/v2.15/bin/bin/../../lib/gcc/pic32c/6.2.1/../../../../pic32c/lib\libc.a(lib_a-strncpy.o)
 .debug_frame   0x00003128       0x68 c:/program files (x86)/microchip/xc32/v2.15/bin/bin/../../lib/gcc/pic32c/6.2.1/../../../../pic32c/lib\libc.a(lib_a-svfiprintf.o)
 .debug_frame   0x00003190       0x3c c:/program files (x86)/microchip/xc32/v2.15/bin/bin/../../lib/gcc/pic32c/6.2.1/../../../../pic32c/lib\libc.a(lib_a-__atexit.o)
 .debug_frame   0x000031cc       0x28 c:/program files (x86)/microchip/xc32/v2.15/bin/bin/../../lib/gcc/pic32c/6.2.1/../../../../pic32c/lib\libc.a(lib_a-callocr.o)
 .debug_frame   0x000031f4       0x74 c:/program files (x86)/microchip/xc32/v2.15/bin/bin/../../lib/gcc/pic32c/6.2.1/../../../../pic32c/lib\libc.a(lib_a-locale.o)
 .debug_frame   0x00003268       0x40 c:/program files (x86)/microchip/xc32/v2.15/bin/bin/../../lib/gcc/pic32c/6.2.1/../../../../pic32c/lib\libc.a(lib_a-mbtowc_r.o)
 .debug_frame   0x000032a8       0x30 c:/program files (x86)/microchip/xc32/v2.15/bin/bin/../../lib/gcc/pic32c/6.2.1/../../../../pic32c/lib\libc.a(lib_a-memmove.o)
 .debug_frame   0x000032d8       0x3c c:/program files (x86)/microchip/xc32/v2.15/bin/bin/../../lib/gcc/pic32c/6.2.1/../../../../pic32c/lib\libc.a(lib_a-reallocr.o)
 .debug_frame   0x00003314       0x3c c:/program files (x86)/microchip/xc32/v2.15/bin/bin/../../lib/gcc/pic32c/6.2.1/../../../../pic32c/lib\libc.a(lib_a-wctomb_r.o)
 .debug_frame   0x00003350       0x20 c:/program files (x86)/microchip/xc32/v2.15/bin/bin/../../lib/gcc/pic32c/6.2.1/../../../../pic32c/lib\libpic32c.a(sbrk.o)
 .debug_frame   0x00003370       0x3c c:/program files (x86)/microchip/xc32/v2.15/bin/bin/../../lib/gcc/pic32c/6.2.1\libgcc.a(adddf3.o)
 .debug_frame   0x000033ac       0x2c c:/program files (x86)/microchip/xc32/v2.15/bin/bin/../../lib/gcc/pic32c/6.2.1\libgcc.a(unorddf2.o)
 .debug_frame   0x000033d8       0x2c c:/program files (x86)/microchip/xc32/v2.15/bin/bin/../../lib/gcc/pic32c/6.2.1\libgcc.a(floatsidf.o)

.stack          0x20004250      0x100
 .stack         0x20004250      0x100 stack

.bss.gau8ReceivedBuffer%1
                0x20000254      0x578
 .bss.gau8ReceivedBuffer
                0x20000254      0x578 build/sam_d21_xpro_winc1500/production/_ext/1360937237/app.o

.data.impure_data%2
                0x200007d0      0x428
 .data.impure_data
                0x200007d0      0x428 c:/program files (x86)/microchip/xc32/v2.15/bin/bin/../../lib/gcc/pic32c/6.2.1/../../../../pic32c/lib\libc.a(lib_a-impure.o)

.data.__malloc_av_%3
                0x20000bf8      0x408
 .data.__malloc_av_
                0x20000bf8      0x408 c:/program files (x86)/microchip/xc32/v2.15/bin/bin/../../lib/gcc/pic32c/6.2.1/../../../../pic32c/lib\libc.a(lib_a-mallocr.o)
                0x20000bf8                __malloc_av_

.bss.sysConsole0UARTWrQueueElements%4
                0x20001000      0x208
 .bss.sysConsole0UARTWrQueueElements
                0x20001000      0x208 build/sam_d21_xpro_winc1500/production/_ext/281389274/initialization.o

.data.__global_locale%5
                0x20001208      0x16c
 .data.__global_locale
                0x20001208      0x16c c:/program files (x86)/microchip/xc32/v2.15/bin/bin/../../lib/gcc/pic32c/6.2.1/../../../../pic32c/lib\libc.a(lib_a-locale.o)
                0x20001208                __global_locale

.bss.drvSPI0TransferObjPool%6
                0x20001374      0x168
 .bss.drvSPI0TransferObjPool
                0x20001374      0x168 build/sam_d21_xpro_winc1500/production/_ext/281389274/initialization.o

.bss.wincDescriptor%7
                0x200014dc       0xf0
 .bss.wincDescriptor
                0x200014dc       0xf0 build/sam_d21_xpro_winc1500/production/_ext/2003669979/wdrv_winc.o

.bss.printBuffer%8
                0x200015cc       0xc8
 .bss.printBuffer
                0x200015cc       0xc8 build/sam_d21_xpro_winc1500/production/_ext/2114417963/sys_debug.o

.bss.tmpBuf%9   0x20001694       0xc8
 .bss.tmpBuf    0x20001694       0xc8 build/sam_d21_xpro_winc1500/production/_ext/2114417963/sys_debug.o

.bss.timers%10  0x2000175c       0xa0
 .bss.timers    0x2000175c       0xa0 build/sam_d21_xpro_winc1500/production/_ext/1751631207/sys_time.o

.data.gstrM2MAPConfig%11
                0x200017fc       0x88
 .data.gstrM2MAPConfig
                0x200017fc       0x88 build/sam_d21_xpro_winc1500/production/_ext/1360937237/app.o

.bss.gConsoleUartData%12
                0x20001884       0x64
 .bss.gConsoleUartData
                0x20001884       0x64 build/sam_d21_xpro_winc1500/production/_ext/2114417963/sys_console_uart.o

.bss.gDrvSPIObj%13
                0x200018e8       0x60
 .bss.gDrvSPIObj
                0x200018e8       0x60 build/sam_d21_xpro_winc1500/production/_ext/1062439459/drv_spi.o

.bss.sysConsole0UARTRdQueueElements%14
                0x20001948       0x58
 .bss.sysConsole0UARTRdQueueElements
                0x20001948       0x58 build/sam_d21_xpro_winc1500/production/_ext/281389274/initialization.o

.bss.gSystemCounterObj%15
                0x200019a0       0x38
 .bss.gSystemCounterObj
                0x200019a0       0x38 build/sam_d21_xpro_winc1500/production/_ext/1751631207/sys_time.o

.bss.drvSPI0ClientObjPool%16
                0x200019d8       0x28
 .bss.drvSPI0ClientObjPool
                0x200019d8       0x28 build/sam_d21_xpro_winc1500/production/_ext/281389274/initialization.o

.bss.__malloc_current_mallinfo%17
                0x20001a00       0x28
 .bss.__malloc_current_mallinfo
                0x20001a00       0x28 c:/program files (x86)/microchip/xc32/v2.15/bin/bin/../../lib/gcc/pic32c/6.2.1/../../../../pic32c/lib\libc.a(lib_a-mallocr.o)
                0x20001a00                __malloc_current_mallinfo

.bss._write_back_section%18
                0x20001a30       0x20
 .bss._write_back_section
                0x20001a30       0x20 build/sam_d21_xpro_winc1500/production/_ext/215415349/plib_dmac.o

.bss.descriptor_section%19
                0x20001a50       0x20
 .bss.descriptor_section
                0x20001a50       0x20 build/sam_d21_xpro_winc1500/production/_ext/215415349/plib_dmac.o

.bss.txDummyData%20
                0x20001a70       0x20
 .bss.txDummyData
                0x20001a70       0x20 build/sam_d21_xpro_winc1500/production/_ext/1062439459/drv_spi.o

.bss%21         0x20001a90       0x1c
 .bss           0x20001a90       0x1c c:/program files (x86)/microchip/xc32/v2.15/bin/bin/../../lib/gcc/pic32c/6.2.1/crtbegin.o

.data.gacHttpProvDomainName%22
                0x20001aac       0x10
 .data.gacHttpProvDomainName
                0x20001aac       0x10 build/sam_d21_xpro_winc1500/production/_ext/1360937237/app.o

.data.gacDeviceName%23
                0x20001abc        0xf
 .data.gacDeviceName
                0x20001abc        0xf build/sam_d21_xpro_winc1500/production/_ext/1360937237/app.o

.bss.consoleDeviceInstance%24
                0x20001acc        0xc
 .bss.consoleDeviceInstance
                0x20001acc        0xc build/sam_d21_xpro_winc1500/production/_ext/2114417963/sys_console.o

.data.gau8MacAddr%25
                0x20001a28        0x6
 .data.gau8MacAddr
                0x20001a28        0x6 build/sam_d21_xpro_winc1500/production/_ext/1360937237/app.o

.bss.transferRxHandle%26
                0x200007cc        0x4
 .bss.transferRxHandle
                0x200007cc        0x4 build/sam_d21_xpro_winc1500/production/_ext/1837088568/wdrv_winc_spi.o

.bss.transferTxHandle%27
                0x20001ad8        0x4
 .bss.transferTxHandle
                0x20001ad8        0x4 build/sam_d21_xpro_winc1500/production/_ext/1837088568/wdrv_winc_spi.o

.data.spiHandle%28
                0x20001adc        0x4
 .data.spiHandle
                0x20001adc        0x4 build/sam_d21_xpro_winc1500/production/_ext/1837088568/wdrv_winc_spi.o

.bss.gau8ethRcvBuf%29
                0x20001ae0        0x4
 .bss.gau8ethRcvBuf
                0x20001ae0        0x4 build/sam_d21_xpro_winc1500/production/_ext/386821479/m2m_wifi.o

.bss.gpfAppEthCb%30
                0x20001ae4        0x4
 .bss.gpfAppEthCb
                0x20001ae4        0x4 build/sam_d21_xpro_winc1500/production/_ext/386821479/m2m_wifi.o

.bss.gpfAppWifiCb%31
                0x20001ae8        0x4
 .bss.gpfAppWifiCb
                0x20001ae8        0x4 build/sam_d21_xpro_winc1500/production/_ext/386821479/m2m_wifi.o

.bss.chipid.9322%32
                0x20001aec        0x4
 .bss.chipid.9322
                0x20001aec        0x4 build/sam_d21_xpro_winc1500/production/_ext/386821479/nmasic.o

.bss.gu32HostIp%33
                0x20001af0        0x4
 .bss.gu32HostIp
                0x20001af0        0x4 build/sam_d21_xpro_winc1500/production/_ext/1360937237/app.o
                0x20001af0                gu32HostIp

.data._impure_ptr%34
                0x20001af4        0x4
 .data._impure_ptr
                0x20001af4        0x4 c:/program files (x86)/microchip/xc32/v2.15/bin/bin/../../lib/gcc/pic32c/6.2.1/../../../../pic32c/lib\libc.a(lib_a-impure.o)
                0x20001af4                _impure_ptr

.bss.__malloc_max_sbrked_mem%35
                0x20001af8        0x4
 .bss.__malloc_max_sbrked_mem
                0x20001af8        0x4 c:/program files (x86)/microchip/xc32/v2.15/bin/bin/../../lib/gcc/pic32c/6.2.1/../../../../pic32c/lib\libc.a(lib_a-mallocr.o)
                0x20001af8                __malloc_max_sbrked_mem

.bss.__malloc_max_total_mem%36
                0x20001afc        0x4
 .bss.__malloc_max_total_mem
                0x20001afc        0x4 c:/program files (x86)/microchip/xc32/v2.15/bin/bin/../../lib/gcc/pic32c/6.2.1/../../../../pic32c/lib\libc.a(lib_a-mallocr.o)
                0x20001afc                __malloc_max_total_mem

.bss.__malloc_top_pad%37
                0x20001b00        0x4
 .bss.__malloc_top_pad
                0x20001b00        0x4 c:/program files (x86)/microchip/xc32/v2.15/bin/bin/../../lib/gcc/pic32c/6.2.1/../../../../pic32c/lib\libc.a(lib_a-mallocr.o)
                0x20001b00                __malloc_top_pad

.data.__malloc_sbrk_base%38
                0x20001b04        0x4
 .data.__malloc_sbrk_base
                0x20001b04        0x4 c:/program files (x86)/microchip/xc32/v2.15/bin/bin/../../lib/gcc/pic32c/6.2.1/../../../../pic32c/lib\libc.a(lib_a-mallocr.o)
                0x20001b04                __malloc_sbrk_base

.data.__malloc_trim_threshold%39
                0x20001b08        0x4
 .data.__malloc_trim_threshold
                0x20001b08        0x4 c:/program files (x86)/microchip/xc32/v2.15/bin/bin/../../lib/gcc/pic32c/6.2.1/../../../../pic32c/lib\libc.a(lib_a-mallocr.o)
                0x20001b08                __malloc_trim_threshold

.bss%40         0x20001b0c        0x4
 .bss           0x20001b0c        0x4 c:/program files (x86)/microchip/xc32/v2.15/bin/bin/../../lib/gcc/pic32c/6.2.1/../../../../pic32c/lib\libpic32c.a(sbrk.o)

.data.egstrNmBusCapabilities%41
                0x20001b10        0x2
 .data.egstrNmBusCapabilities
                0x20001b10        0x2 build/sam_d21_xpro_winc1500/production/_ext/386821479/nmbus.o
                0x20001b10                egstrNmBusCapabilities

.bss.gu16ethRcvBufSize%42
                0x20001a2e        0x2
 .bss.gu16ethRcvBufSize
                0x20001a2e        0x2 build/sam_d21_xpro_winc1500/production/_ext/386821479/m2m_wifi.o

.bss.gu16SessionID%43
                0x20001b12        0x2
 .bss.gu16SessionID
                0x20001b12        0x2 build/sam_d21_xpro_winc1500/production/_ext/39655908/socket.o
                0x20001b12                gu16SessionID

.data.gSysTimeTokenCount%44
                0x20001b14        0x2
 .data.gSysTimeTokenCount
                0x20001b14        0x2 build/sam_d21_xpro_winc1500/production/_ext/1751631207/sys_time.o

.bss.isLastByteTransferInProgress.5481%45
                0x20001acb        0x1
 .bss.isLastByteTransferInProgress.5481
                0x20001acb        0x1 build/sam_d21_xpro_winc1500/production/_ext/98527899/plib_sercom0_spi.o

.bss.dummy.9279%46
                0x20001b16        0x1
 .bss.dummy.9279
                0x20001b16        0x1 build/sam_d21_xpro_winc1500/production/_ext/1837088568/wdrv_winc_spi.o

.bss.rxSyncSem%47
                0x20001b17        0x1
 .bss.rxSyncSem
                0x20001b17        0x1 build/sam_d21_xpro_winc1500/production/_ext/1837088568/wdrv_winc_spi.o

.bss.txSyncSem%48
                0x20001b18        0x1
 .bss.txSyncSem
                0x20001b18        0x1 build/sam_d21_xpro_winc1500/production/_ext/1837088568/wdrv_winc_spi.o

.bss.hifSemaphore%49
                0x20001b19        0x1
 .bss.hifSemaphore
                0x20001b19        0x1 build/sam_d21_xpro_winc1500/production/_ext/386821479/m2m_hif.o

.bss.gu8ChNum%50
                0x20001b1a        0x1
 .bss.gu8ChNum  0x20001b1a        0x1 build/sam_d21_xpro_winc1500/production/_ext/386821479/m2m_wifi.o

.bss.gu8WifiState%51
                0x20001b1b        0x1
 .bss.gu8WifiState
                0x20001b1b        0x1 build/sam_d21_xpro_winc1500/production/_ext/386821479/m2m_wifi.o

.bss.gu8scanInProgress%52
                0x20001b1c        0x1
 .bss.gu8scanInProgress
                0x20001b1c        0x1 build/sam_d21_xpro_winc1500/production/_ext/386821479/m2m_wifi.o

.bss.gu8Crc_off%53
                0x20001b1d        0x1
 .bss.gu8Crc_off
                0x20001b1d        0x1 build/sam_d21_xpro_winc1500/production/_ext/386821479/nmspi.o

.bss.s_spiLock%54
                0x20001b1e        0x1
 .bss.s_spiLock
                0x20001b1e        0x1 build/sam_d21_xpro_winc1500/production/_ext/386821479/nmspi.o

.bss.gbSocketInit%55
                0x20001b1f        0x1
 .bss.gbSocketInit
                0x20001b1f        0x1 build/sam_d21_xpro_winc1500/production/_ext/39655908/socket.o
                0x20001b1f                gbSocketInit

.bss.u8NextTcpSock.9603%56
                0x20001b20        0x1
 .bss.u8NextTcpSock.9603
                0x20001b20        0x1 build/sam_d21_xpro_winc1500/production/_ext/39655908/socket.o

.bss.u8NextUdpSock.9604%57
                0x20001b21        0x1
 .bss.u8NextUdpSock.9604
                0x20001b21        0x1 build/sam_d21_xpro_winc1500/production/_ext/39655908/socket.o

.bss.gbConnectedWifi%58
                0x20001b22        0x1
 .bss.gbConnectedWifi
                0x20001b22        0x1 build/sam_d21_xpro_winc1500/production/_ext/1360937237/app.o

.bss.gbHostIpByName%59
                0x20001b23        0x1
 .bss.gbHostIpByName
                0x20001b23        0x1 build/sam_d21_xpro_winc1500/production/_ext/1360937237/app.o

.bss.gbTcpConnection%60
                0x20001b24        0x1
 .bss.gbTcpConnection
                0x20001b24        0x1 build/sam_d21_xpro_winc1500/production/_ext/1360937237/app.o

.data.tcp_client_socket%61
                0x20001b25        0x1
 .data.tcp_client_socket
                0x20001b25        0x1 build/sam_d21_xpro_winc1500/production/_ext/1360937237/app.o

.jcr%z1         0x00000000        0x0
 .jcr           0x00000000        0x0 c:/program files (x86)/microchip/xc32/v2.15/bin/bin/../../lib/gcc/pic32c/6.2.1/crtbegin.o

.eh_frame%z2    0x00000000        0x0
 .eh_frame      0x00000000        0x0 c:/program files (x86)/microchip/xc32/v2.15/bin/bin/../../lib/gcc/pic32c/6.2.1/crtbegin.o

.config_00804004%62
                0x00804004        0x4
 .config_00804004
                0x00804004        0x4 build/sam_d21_xpro_winc1500/production/_ext/281389274/initialization.o

.config_00804000%63
                0x00804000        0x4
 .config_00804000
                0x00804000        0x4 build/sam_d21_xpro_winc1500/production/_ext/281389274/initialization.o

.text._svfprintf_r%64
                0x000000dc     0x1b8c
 .text._svfprintf_r
                0x000000dc     0x1b8c c:/program files (x86)/microchip/xc32/v2.15/bin/bin/../../lib/gcc/pic32c/6.2.1/../../../../pic32c/lib\libc.a(lib_a-svfprintf.o)
                0x000000dc                _svfprintf_r

.text._dtoa_r%65
                0x00001c68      0xf98
 .text._dtoa_r  0x00001c68      0xf98 c:/program files (x86)/microchip/xc32/v2.15/bin/bin/../../lib/gcc/pic32c/6.2.1/../../../../pic32c/lib\libc.a(lib_a-dtoa.o)
                0x00001c68                _dtoa_r

.dinit%66       0x00002c00      0xde0
 .dinit         0x00002c00      0xde0 data_init

.text%67        0x000039e0     0x12b4
 .text          0x000039e0      0x668 c:/program files (x86)/microchip/xc32/v2.15/bin/bin/../../lib/gcc/pic32c/6.2.1\libgcc.a(divdf3.o)
                0x000039e0                __aeabi_ddiv
 .text          0x00004048      0x62c c:/program files (x86)/microchip/xc32/v2.15/bin/bin/../../lib/gcc/pic32c/6.2.1\libgcc.a(subdf3.o)
                0x00004048                __aeabi_dsub
 .text          0x00004674      0x620 c:/program files (x86)/microchip/xc32/v2.15/bin/bin/../../lib/gcc/pic32c/6.2.1\libgcc.a(adddf3.o)
                0x00004674                __aeabi_dadd

.text._malloc_r%70
                0x00004c94      0x558
 .text._malloc_r
                0x00004c94      0x558 c:/program files (x86)/microchip/xc32/v2.15/bin/bin/../../lib/gcc/pic32c/6.2.1/../../../../pic32c/lib\libc.a(lib_a-mallocr.o)
                0x00004c94                _malloc_r

.text%71        0x000051ec      0x500
 .text          0x000051ec      0x500 c:/program files (x86)/microchip/xc32/v2.15/bin/bin/../../lib/gcc/pic32c/6.2.1\libgcc.a(muldf3.o)
                0x000051ec                __aeabi_dmul

.text.m2m_ip_cb%72
                0x000056ec      0x3b0
 .text.m2m_ip_cb
                0x000056ec      0x3b0 build/sam_d21_xpro_winc1500/production/_ext/39655908/socket.o

.text._realloc_r%73
                0x00005a9c      0x37c
 .text._realloc_r
                0x00005a9c      0x37c c:/program files (x86)/microchip/xc32/v2.15/bin/bin/../../lib/gcc/pic32c/6.2.1/../../../../pic32c/lib\libc.a(lib_a-reallocr.o)
                0x00005a9c                _realloc_r

.rodata%74      0x00005e18      0x350
 .rodata        0x00005e18      0x350 build/sam_d21_xpro_winc1500/production/_ext/1360937237/app.o

.text.m2m_wifi_cb%75
                0x00006168      0x340
 .text.m2m_wifi_cb
                0x00006168      0x340 build/sam_d21_xpro_winc1500/production/_ext/386821479/m2m_wifi.o

.text%76        0x000064a8      0x240
 .text          0x000064a8      0x240 c:/program files (x86)/microchip/xc32/v2.15/bin/bin/../../lib/gcc/pic32c/6.2.1\libgcc.a(mulsf3.o)
                0x000064a8                __aeabi_fmul

.text.strstr%77
                0x000066e8      0x208
 .text.strstr   0x000066e8      0x208 c:/program files (x86)/microchip/xc32/v2.15/bin/bin/../../lib/gcc/pic32c/6.2.1/../../../../pic32c/lib\libc.a(lib_a-strstr.o)
                0x000066e8                strstr

.text.two_way_long_needle%78
                0x000068f0      0x204
 .text.two_way_long_needle
                0x000068f0      0x204 c:/program files (x86)/microchip/xc32/v2.15/bin/bin/../../lib/gcc/pic32c/6.2.1/../../../../pic32c/lib\libc.a(lib_a-strstr.o)

.text.hif_send%79
                0x00006af4      0x200
 .text.hif_send
                0x00006af4      0x200 build/sam_d21_xpro_winc1500/production/_ext/386821479/m2m_hif.o
                0x00006af4                hif_send

.text.socket_cb%80
                0x00006cf4      0x1dc
 .text.socket_cb
                0x00006cf4      0x1dc build/sam_d21_xpro_winc1500/production/_ext/1360937237/app.o

.text.DRV_SPI_WriteReadTransferAdd%81
                0x00006ed0      0x1d8
 .text.DRV_SPI_WriteReadTransferAdd
                0x00006ed0      0x1d8 build/sam_d21_xpro_winc1500/production/_ext/1062439459/drv_spi.o
                0x00006ed0                DRV_SPI_WriteReadTransferAdd

.text%82        0x000070a8      0x1d4
 .text          0x000070a8      0x1d4 c:/program files (x86)/microchip/xc32/v2.15/bin/bin/../../lib/gcc/pic32c/6.2.1\libgcc.a(_divsi3.o)
                0x000070a8                __divsi3
                0x000070a8                __aeabi_idiv
                0x00007274                __aeabi_idivmod

.text._DRV_SPI_StartDMATransfer%83
                0x0000727c      0x1d0
 .text._DRV_SPI_StartDMATransfer
                0x0000727c      0x1d0 build/sam_d21_xpro_winc1500/production/_ext/1062439459/drv_spi.o

.text.hif_handle_isr%84
                0x0000744c      0x1c8
 .text.hif_handle_isr
                0x0000744c      0x1c8 build/sam_d21_xpro_winc1500/production/_ext/386821479/m2m_hif.o
                0x0000744c                hif_handle_isr

.text._free_r%85
                0x00007614      0x1bc
 .text._free_r  0x00007614      0x1bc c:/program files (x86)/microchip/xc32/v2.15/bin/bin/../../lib/gcc/pic32c/6.2.1/../../../../pic32c/lib\libc.a(lib_a-freer.o)
                0x00007614                _free_r

.text.APP_Tasks%86
                0x000077d0      0x188
 .text.APP_Tasks
                0x000077d0      0x188 build/sam_d21_xpro_winc1500/production/_ext/1360937237/app.o
                0x000077d0                APP_Tasks

.text%87        0x00007958      0x180
 .text          0x00007958      0x180 c:/program files (x86)/microchip/xc32/v2.15/bin/bin/../../lib/gcc/pic32c/6.2.1\libgcc.a(_udivmoddi4.o)
                0x00007958                __udivmoddi4

.text.SERCOM0_SPI_InterruptHandler%88
                0x00007ad8      0x16c
 .text.SERCOM0_SPI_InterruptHandler
                0x00007ad8      0x16c build/sam_d21_xpro_winc1500/production/_ext/98527899/plib_sercom0_spi.o
                0x00007ad8                SERCOM0_SPI_InterruptHandler

.rodata._svfprintf_r%89
                0x00007c44      0x16c
 .rodata._svfprintf_r
                0x00007c44      0x16c c:/program files (x86)/microchip/xc32/v2.15/bin/bin/../../lib/gcc/pic32c/6.2.1/../../../../pic32c/lib\libc.a(lib_a-svfprintf.o)

.text.nm_spi_write_block%90
                0x00007db0      0x160
 .text.nm_spi_write_block
                0x00007db0      0x160 build/sam_d21_xpro_winc1500/production/_ext/386821479/nmspi.o
                0x00007db0                nm_spi_write_block

.text.quorem%91
                0x00007f10      0x154
 .text.quorem   0x00007f10      0x154 c:/program files (x86)/microchip/xc32/v2.15/bin/bin/../../lib/gcc/pic32c/6.2.1/../../../../pic32c/lib\libc.a(lib_a-dtoa.o)

.text.__multiply%92
                0x00008064      0x154
 .text.__multiply
                0x00008064      0x154 c:/program files (x86)/microchip/xc32/v2.15/bin/bin/../../lib/gcc/pic32c/6.2.1/../../../../pic32c/lib\libc.a(lib_a-mprec.o)
                0x00008064                __multiply

.text.socket%93
                0x000081b8      0x148
 .text.socket   0x000081b8      0x148 build/sam_d21_xpro_winc1500/production/_ext/39655908/socket.o
                0x000081b8                socket

.text._DRV_SPI_RX_DMA_CallbackHandler%94
                0x00008300      0x148
 .text._DRV_SPI_RX_DMA_CallbackHandler
                0x00008300      0x148 build/sam_d21_xpro_winc1500/production/_ext/1062439459/drv_spi.o
                0x00008300                _DRV_SPI_RX_DMA_CallbackHandler

.text.__mdiff%95
                0x00008448      0x138
 .text.__mdiff  0x00008448      0x138 c:/program files (x86)/microchip/xc32/v2.15/bin/bin/../../lib/gcc/pic32c/6.2.1/../../../../pic32c/lib\libc.a(lib_a-mprec.o)
                0x00008448                __mdiff

.text.__ssprint_r%96
                0x00008580      0x120
 .text.__ssprint_r
                0x00008580      0x120 c:/program files (x86)/microchip/xc32/v2.15/bin/bin/../../lib/gcc/pic32c/6.2.1/../../../../pic32c/lib\libc.a(lib_a-svfiprintf.o)
                0x00008580                __ssprint_r

.text.spi_cmd%97
                0x000086a0      0x118
 .text.spi_cmd  0x000086a0      0x118 build/sam_d21_xpro_winc1500/production/_ext/386821479/nmspi.o

.text.m2m_wifi_connect_1x_mschap2%98
                0x000087b8      0x114
 .text.m2m_wifi_connect_1x_mschap2
                0x000087b8      0x114 build/sam_d21_xpro_winc1500/production/_ext/386821479/m2m_wifi.o
                0x000087b8                m2m_wifi_connect_1x_mschap2

.text%99        0x000088cc      0x114
 .text          0x000088cc      0x114 c:/program files (x86)/microchip/xc32/v2.15/bin/bin/../../lib/gcc/pic32c/6.2.1\libgcc.a(_udivsi3.o)
                0x000088cc                __aeabi_uidiv
                0x000088cc                __udivsi3
                0x000089d8                __aeabi_uidivmod

.text.SERCOM0_SPI_WriteRead%100
                0x000089e0      0x110
 .text.SERCOM0_SPI_WriteRead
                0x000089e0      0x110 build/sam_d21_xpro_winc1500/production/_ext/98527899/plib_sercom0_spi.o
                0x000089e0                SERCOM0_SPI_WriteRead

.text.DRV_SPI_Open%101
                0x00008af0      0x108
 .text.DRV_SPI_Open
                0x00008af0      0x108 build/sam_d21_xpro_winc1500/production/_ext/1062439459/drv_spi.o
                0x00008af0                DRV_SPI_Open

.text.m2m_wifi_connect_sc%102
                0x00008bf8      0x106
 .text.m2m_wifi_connect_sc
                0x00008bf8      0x106 build/sam_d21_xpro_winc1500/production/_ext/386821479/m2m_wifi.o
                0x00008bf8                m2m_wifi_connect_sc

.rodata._ctype_%103
                0x00008d00      0x104
 .rodata._ctype_
                0x00008d00      0x104 c:/program files (x86)/microchip/xc32/v2.15/bin/bin/../../lib/gcc/pic32c/6.2.1/../../../../pic32c/lib\libc.a(lib_a-ctype_.o)
                0x00008d00                _ctype_

.rodata.crc7_syndrome_table%104
                0x00008e04      0x100
 .rodata.crc7_syndrome_table
                0x00008e04      0x100 build/sam_d21_xpro_winc1500/production/_ext/386821479/nmspi.o

.text.SERCOM3_USART_InterruptHandler%105
                0x00008f04       0xfc
 .text.SERCOM3_USART_InterruptHandler
                0x00008f04       0xfc build/sam_d21_xpro_winc1500/production/_ext/1242531425/plib_sercom3_usart.o
                0x00008f04                SERCOM3_USART_InterruptHandler

.text.wait_for_bootrom%106
                0x00009000       0xf0
 .text.wait_for_bootrom
                0x00009000       0xf0 build/sam_d21_xpro_winc1500/production/_ext/386821479/nmasic.o
                0x00009000                wait_for_bootrom

.text.spi_flash_enable%107
                0x000090f0       0xe8
 .text.spi_flash_enable
                0x000090f0       0xe8 build/sam_d21_xpro_winc1500/production/_ext/1591721076/spi_flash.o
                0x000090f0                spi_flash_enable

.text.SYS_TIME_PLIBCallback%108
                0x000091d8       0xe4
 .text.SYS_TIME_PLIBCallback
                0x000091d8       0xe4 build/sam_d21_xpro_winc1500/production/_ext/1751631207/sys_time.o

.text.spi_data_read%109
                0x000092bc       0xe0
 .text.spi_data_read
                0x000092bc       0xe0 build/sam_d21_xpro_winc1500/production/_ext/386821479/nmspi.o

.text.SYS_TIME_AddToList%110
                0x0000939c       0xe0
 .text.SYS_TIME_AddToList
                0x0000939c       0xe0 build/sam_d21_xpro_winc1500/production/_ext/1751631207/sys_time.o

.text.strchr%111
                0x0000947c       0xdc
 .text.strchr   0x0000947c       0xdc c:/program files (x86)/microchip/xc32/v2.15/bin/bin/../../lib/gcc/pic32c/6.2.1/../../../../pic32c/lib\libc.a(lib_a-strchr.o)
                0x0000947c                strchr

.text.__register_exitproc%112
                0x00009558       0xd4
 .text.__register_exitproc
                0x00009558       0xd4 c:/program files (x86)/microchip/xc32/v2.15/bin/bin/../../lib/gcc/pic32c/6.2.1/../../../../pic32c/lib\libc.a(lib_a-__atexit.o)
                0x00009558                __register_exitproc

.text.nm_get_firmware_full_info%113
                0x0000962c       0xd0
 .text.nm_get_firmware_full_info
                0x0000962c       0xd0 build/sam_d21_xpro_winc1500/production/_ext/386821479/nmdrv.o
                0x0000962c                nm_get_firmware_full_info

.text.m2m_wifi_connect_prepare_msg%114
                0x000096fc       0xcc
 .text.m2m_wifi_connect_prepare_msg
                0x000096fc       0xcc build/sam_d21_xpro_winc1500/production/_ext/386821479/m2m_wifi.o

.text.nmi_get_chipid%115
                0x000097c8       0xcc
 .text.nmi_get_chipid
                0x000097c8       0xcc build/sam_d21_xpro_winc1500/production/_ext/386821479/nmasic.o
                0x000097c8                nmi_get_chipid

.text%116       0x00009894       0xc8
 .text          0x00009894       0xc8 c:/program files (x86)/microchip/xc32/v2.15/bin/bin/../../lib/gcc/pic32c/6.2.1\libgcc.a(gedf2.o)
                0x00009894                __gedf2
                0x00009894                __gtdf2

.rodata.__mprec_tens%117
                0x00009960       0xc8
 .rodata.__mprec_tens
                0x00009960       0xc8 c:/program files (x86)/microchip/xc32/v2.15/bin/bin/../../lib/gcc/pic32c/6.2.1/../../../../pic32c/lib\libc.a(lib_a-mprec.o)
                0x00009960                __mprec_tens

.text.m2m_validate_ap_parameters%118
                0x00009a28       0xc4
 .text.m2m_validate_ap_parameters
                0x00009a28       0xc4 build/sam_d21_xpro_winc1500/production/_ext/386821479/m2m_wifi.o

.text._DRV_SPI_ResourceLock%119
                0x00009aec       0xc4
 .text._DRV_SPI_ResourceLock
                0x00009aec       0xc4 build/sam_d21_xpro_winc1500/production/_ext/1062439459/drv_spi.o

.text._DRV_SPI_PlibCallbackHandler%120
                0x00009bb0       0xc4
 .text._DRV_SPI_PlibCallbackHandler
                0x00009bb0       0xc4 build/sam_d21_xpro_winc1500/production/_ext/1062439459/drv_spi.o

.text%121       0x00009c74       0xc4
 .text          0x00009c74       0xc4 c:/program files (x86)/microchip/xc32/v2.15/bin/bin/../../lib/gcc/pic32c/6.2.1\libgcc.a(ledf2.o)
                0x00009c74                __ledf2
                0x00009c74                __ltdf2

.text.SYS_TIME_TimerObjectCreate%122
                0x00009d38       0xc0
 .text.SYS_TIME_TimerObjectCreate
                0x00009d38       0xc0 build/sam_d21_xpro_winc1500/production/_ext/1751631207/sys_time.o

.text.critical_factorization%123
                0x00009df8       0xc0
 .text.critical_factorization
                0x00009df8       0xc0 c:/program files (x86)/microchip/xc32/v2.15/bin/bin/../../lib/gcc/pic32c/6.2.1/../../../../pic32c/lib\libc.a(lib_a-strstr.o)

.text.__pow5mult%124
                0x00009eb8       0xc0
 .text.__pow5mult
                0x00009eb8       0xc0 c:/program files (x86)/microchip/xc32/v2.15/bin/bin/../../lib/gcc/pic32c/6.2.1/../../../../pic32c/lib\libc.a(lib_a-mprec.o)
                0x00009eb8                __pow5mult

.text.__lshift%125
                0x00009f78       0xc0
 .text.__lshift
                0x00009f78       0xc0 c:/program files (x86)/microchip/xc32/v2.15/bin/bin/../../lib/gcc/pic32c/6.2.1/../../../../pic32c/lib\libc.a(lib_a-mprec.o)
                0x00009f78                __lshift

.text.__d2b%126
                0x0000a038       0xbc
 .text.__d2b    0x0000a038       0xbc c:/program files (x86)/microchip/xc32/v2.15/bin/bin/../../lib/gcc/pic32c/6.2.1/../../../../pic32c/lib\libc.a(lib_a-mprec.o)
                0x0000a038                __d2b

.text.m2m_wifi_connect_psk%127
                0x0000a0f4       0xb4
 .text.m2m_wifi_connect_psk
                0x0000a0f4       0xb4 build/sam_d21_xpro_winc1500/production/_ext/386821479/m2m_wifi.o
                0x0000a0f4                m2m_wifi_connect_psk

.text._DRV_SPI_ResourceUnlock%128
                0x0000a1a8       0xb2
 .text._DRV_SPI_ResourceUnlock
                0x0000a1a8       0xb2 build/sam_d21_xpro_winc1500/production/_ext/1062439459/drv_spi.o

.text.DRV_SPI_Initialize%129
                0x0000a25c       0xb0
 .text.DRV_SPI_Initialize
                0x0000a25c       0xb0 build/sam_d21_xpro_winc1500/production/_ext/1062439459/drv_spi.o
                0x0000a25c                DRV_SPI_Initialize

.text.nm_spi_read_reg_with_ret%130
                0x0000a30c       0xac
 .text.nm_spi_read_reg_with_ret
                0x0000a30c       0xac build/sam_d21_xpro_winc1500/production/_ext/386821479/nmspi.o
                0x0000a30c                nm_spi_read_reg_with_ret

.text.SYS_TIME_Initialize%131
                0x0000a3b8       0xac
 .text.SYS_TIME_Initialize
                0x0000a3b8       0xac build/sam_d21_xpro_winc1500/production/_ext/1751631207/sys_time.o
                0x0000a3b8                SYS_TIME_Initialize

.text.SYS_TIME_HwTimerCompareUpdate%132
                0x0000a464       0xa4
 .text.SYS_TIME_HwTimerCompareUpdate
                0x0000a464       0xa4 build/sam_d21_xpro_winc1500/production/_ext/1751631207/sys_time.o

.text%133       0x0000a508       0xa4
 .text          0x0000a508       0xa4 c:/program files (x86)/microchip/xc32/v2.15/bin/bin/../../lib/gcc/pic32c/6.2.1\libgcc.a(extendsfdf2.o)
                0x0000a508                __aeabi_f2d

.text._DRV_SPI_UpdateTransferSetupAndAssertCS%134
                0x0000a5ac       0xa0
 .text._DRV_SPI_UpdateTransferSetupAndAssertCS
                0x0000a5ac       0xa0 build/sam_d21_xpro_winc1500/production/_ext/1062439459/drv_spi.o

.text.wifi_cb%135
                0x0000a64c       0xa0
 .text.wifi_cb  0x0000a64c       0xa0 build/sam_d21_xpro_winc1500/production/_ext/1360937237/app.o

.text.memmove%136
                0x0000a6ec       0xa0
 .text.memmove  0x0000a6ec       0xa0 c:/program files (x86)/microchip/xc32/v2.15/bin/bin/../../lib/gcc/pic32c/6.2.1/../../../../pic32c/lib\libc.a(lib_a-memmove.o)
                0x0000a6ec                memmove

.text.m2m_wifi_init_start%137
                0x0000a78c       0x9c
 .text.m2m_wifi_init_start
                0x0000a78c       0x9c build/sam_d21_xpro_winc1500/production/_ext/386821479/m2m_wifi.o
                0x0000a78c                m2m_wifi_init_start

.text.nm_spi_write_reg%138
                0x0000a828       0x9c
 .text.nm_spi_write_reg
                0x0000a828       0x9c build/sam_d21_xpro_winc1500/production/_ext/386821479/nmspi.o
                0x0000a828                nm_spi_write_reg

.text.DMAC_ChannelTransfer%139
                0x0000a8c4       0x9c
 .text.DMAC_ChannelTransfer
                0x0000a8c4       0x9c build/sam_d21_xpro_winc1500/production/_ext/215415349/plib_dmac.o
                0x0000a8c4                DMAC_ChannelTransfer

.text.spi_cmd_rsp%140
                0x0000a960       0x96
 .text.spi_cmd_rsp
                0x0000a960       0x96 build/sam_d21_xpro_winc1500/production/_ext/386821479/nmspi.o

.text.m2m_wifi_connect_wep%141
                0x0000a9f6       0x94
 .text.m2m_wifi_connect_wep
                0x0000a9f6       0x94 build/sam_d21_xpro_winc1500/production/_ext/386821479/m2m_wifi.o
                0x0000a9f6                m2m_wifi_connect_wep

.text.nm_spi_init%142
                0x0000aa8c       0x94
 .text.nm_spi_init
                0x0000aa8c       0x94 build/sam_d21_xpro_winc1500/production/_ext/386821479/nmspi.o
                0x0000aa8c                nm_spi_init

.text.nm_spi_read_block%143
                0x0000ab20       0x94
 .text.nm_spi_read_block
                0x0000ab20       0x94 build/sam_d21_xpro_winc1500/production/_ext/386821479/nmspi.o
                0x0000ab20                nm_spi_read_block

.text.send%144  0x0000abb4       0x94
 .text.send     0x0000abb4       0x94 build/sam_d21_xpro_winc1500/production/_ext/39655908/socket.o
                0x0000abb4                send

.text.memset%145
                0x0000ac48       0x94
 .text.memset   0x0000ac48       0x94 c:/program files (x86)/microchip/xc32/v2.15/bin/bin/../../lib/gcc/pic32c/6.2.1/../../../../pic32c/lib\libc.a(lib_a-memset.o)
                0x0000ac48                memset

.text._malloc_trim_r%146
                0x0000acdc       0x94
 .text._malloc_trim_r
                0x0000acdc       0x94 c:/program files (x86)/microchip/xc32/v2.15/bin/bin/../../lib/gcc/pic32c/6.2.1/../../../../pic32c/lib\libc.a(lib_a-freer.o)
                0x0000acdc                _malloc_trim_r

.text.recv%147  0x0000ad70       0x90
 .text.recv     0x0000ad70       0x90 build/sam_d21_xpro_winc1500/production/_ext/39655908/socket.o
                0x0000ad70                recv

.text.__pic32c_data_initialization%148
                0x0000ae00       0x90
 .text.__pic32c_data_initialization
                0x0000ae00       0x90 c:/program files (x86)/microchip/xc32/v2.15/bin/bin/../../lib/gcc/pic32c/6.2.1/../../../../pic32c/lib\libpic32c.a(data_init.o)
                0x0000ae00                __pic32c_data_initialization

.text%149       0x0000ae90       0x8c
 .text          0x0000ae90       0x8c c:/program files (x86)/microchip/xc32/v2.15/bin/bin/../../lib/gcc/pic32c/6.2.1\libgcc.a(floatunsisf.o)
                0x0000ae90                __aeabi_ui2f

.text.__multadd%150
                0x0000af1c       0x8c
 .text.__multadd
                0x0000af1c       0x8c c:/program files (x86)/microchip/xc32/v2.15/bin/bin/../../lib/gcc/pic32c/6.2.1/../../../../pic32c/lib\libc.a(lib_a-mprec.o)
                0x0000af1c                __multadd

.text.connect%151
                0x0000afa8       0x88
 .text.connect  0x0000afa8       0x88 build/sam_d21_xpro_winc1500/production/_ext/39655908/socket.o
                0x0000afa8                connect

.text.EIC_Initialize%152
                0x0000b030       0x84
 .text.EIC_Initialize
                0x0000b030       0x84 build/sam_d21_xpro_winc1500/production/_ext/1101428939/plib_eic.o
                0x0000b030                EIC_Initialize

.text.Console_UART_Read%153
                0x0000b0b4       0x84
 .text.Console_UART_Read
                0x0000b0b4       0x84 build/sam_d21_xpro_winc1500/production/_ext/2114417963/sys_console_uart.o
                0x0000b0b4                Console_UART_Read

.text.Console_UART_Write%154
                0x0000b138       0x84
 .text.Console_UART_Write
                0x0000b138       0x84 build/sam_d21_xpro_winc1500/production/_ext/2114417963/sys_console_uart.o
                0x0000b138                Console_UART_Write

.text.memcpy%155
                0x0000b1bc       0x84
 .text.memcpy   0x0000b1bc       0x84 c:/program files (x86)/microchip/xc32/v2.15/bin/bin/../../lib/gcc/pic32c/6.2.1/../../../../pic32c/lib\libc.a(lib_a-memcpy-stub.o)
                0x0000b1bc                memcpy

.text%156       0x0000b240       0x84
 .text          0x0000b240       0x84 c:/program files (x86)/microchip/xc32/v2.15/bin/bin/../../lib/gcc/pic32c/6.2.1\libgcc.a(floatsidf.o)
                0x0000b240                __aeabi_i2d

.text.hexstr_2_bytes%157
                0x0000b2c4       0x82
 .text.hexstr_2_bytes
                0x0000b2c4       0x82 build/sam_d21_xpro_winc1500/production/_ext/386821479/m2m_wifi.o

.text.nmi_get_otp_mac_address%158
                0x0000b348       0x80
 .text.nmi_get_otp_mac_address
                0x0000b348       0x80 build/sam_d21_xpro_winc1500/production/_ext/386821479/nmasic.o
                0x0000b348                nmi_get_otp_mac_address

.text.memchr%159
                0x0000b3c8       0x80
 .text.memchr   0x0000b3c8       0x80 c:/program files (x86)/microchip/xc32/v2.15/bin/bin/../../lib/gcc/pic32c/6.2.1/../../../../pic32c/lib\libc.a(lib_a-memchr-stub.o)
                0x0000b3c8                memchr

.text.chip_wake%160
                0x0000b448       0x7e
 .text.chip_wake
                0x0000b448       0x7e build/sam_d21_xpro_winc1500/production/_ext/386821479/nmasic.o
                0x0000b448                chip_wake

.text.m2m_wifi_start_provision_mode_ext%161
                0x0000b4c8       0x7c
 .text.m2m_wifi_start_provision_mode_ext
                0x0000b4c8       0x7c build/sam_d21_xpro_winc1500/production/_ext/386821479/m2m_wifi.o
                0x0000b4c8                m2m_wifi_start_provision_mode_ext

.text.Console_UART_EnableInterrupts%162
                0x0000b544       0x7c
 .text.Console_UART_EnableInterrupts
                0x0000b544       0x7c build/sam_d21_xpro_winc1500/production/_ext/2114417963/sys_console_uart.o

.text.SYS_DEBUG_Print%163
                0x0000b5c0       0x7c
 .text.SYS_DEBUG_Print
                0x0000b5c0       0x7c build/sam_d21_xpro_winc1500/production/_ext/2114417963/sys_debug.o
                0x0000b5c0                SYS_DEBUG_Print

.text%164       0x0000b63c       0x7c
 .text          0x0000b63c       0x7c c:/program files (x86)/microchip/xc32/v2.15/bin/bin/../../lib/gcc/pic32c/6.2.1\libgcc.a(_arm_cmpdf2.o)
                0x0000b63c                __aeabi_cdrcmple
                0x0000b64c                __aeabi_cdcmple
                0x0000b64c                __aeabi_cdcmpeq
                0x0000b65c                __aeabi_dcmpeq
                0x0000b668                __aeabi_dcmplt
                0x0000b67c                __aeabi_dcmple
                0x0000b690                __aeabi_dcmpgt
                0x0000b6a4                __aeabi_dcmpge

.text.CLOCK_Initialize%165
                0x0000b6b8       0x78
 .text.CLOCK_Initialize
                0x0000b6b8       0x78 build/sam_d21_xpro_winc1500/production/_ext/1912998524/plib_clock.o
                0x0000b6b8                CLOCK_Initialize

.text.NVIC_Initialize%166
                0x0000b730       0x78
 .text.NVIC_Initialize
                0x0000b730       0x78 build/sam_d21_xpro_winc1500/production/_ext/215722156/plib_nvic.o
                0x0000b730                NVIC_Initialize

.text.Console_UART_ResourceLock%167
                0x0000b7a8       0x78
 .text.Console_UART_ResourceLock
                0x0000b7a8       0x78 build/sam_d21_xpro_winc1500/production/_ext/2114417963/sys_console_uart.o

.text.strncpy%168
                0x0000b820       0x78
 .text.strncpy  0x0000b820       0x78 c:/program files (x86)/microchip/xc32/v2.15/bin/bin/../../lib/gcc/pic32c/6.2.1/../../../../pic32c/lib\libc.a(lib_a-strncpy.o)
                0x0000b820                strncpy

.text.WDRV_WINC_Tasks%169
                0x0000b898       0x76
 .text.WDRV_WINC_Tasks
                0x0000b898       0x76 build/sam_d21_xpro_winc1500/production/_ext/2003669979/wdrv_winc.o
                0x0000b898                WDRV_WINC_Tasks

.text.SERCOM0_SPI_TransferSetup%170
                0x0000b910       0x74
 .text.SERCOM0_SPI_TransferSetup
                0x0000b910       0x74 build/sam_d21_xpro_winc1500/production/_ext/98527899/plib_sercom0_spi.o
                0x0000b910                SERCOM0_SPI_TransferSetup

.text.hif_receive%171
                0x0000b984       0x74
 .text.hif_receive
                0x0000b984       0x74 build/sam_d21_xpro_winc1500/production/_ext/386821479/m2m_hif.o
                0x0000b984                hif_receive

.text.SYS_Initialize%172
                0x0000b9f8       0x74
 .text.SYS_Initialize
                0x0000b9f8       0x74 build/sam_d21_xpro_winc1500/production/_ext/281389274/initialization.o
                0x0000b9f8                SYS_Initialize

.text.DMAC_Initialize%173
                0x0000ba6c       0x74
 .text.DMAC_Initialize
                0x0000ba6c       0x74 build/sam_d21_xpro_winc1500/production/_ext/215415349/plib_dmac.o
                0x0000ba6c                DMAC_Initialize

.text%174       0x0000bae0       0x74
 .text          0x0000bae0       0x74 c:/program files (x86)/microchip/xc32/v2.15/bin/bin/../../lib/gcc/pic32c/6.2.1\libgcc.a(eqdf2.o)
                0x0000bae0                __nedf2
                0x0000bae0                __eqdf2

.text._vsnprintf_r%175
                0x0000bb54       0x74
 .text._vsnprintf_r
                0x0000bb54       0x74 c:/program files (x86)/microchip/xc32/v2.15/bin/bin/../../lib/gcc/pic32c/6.2.1/../../../../pic32c/lib\libc.a(lib_a-vsnprintf.o)
                0x0000bb54                _vsnprintf_r

.text.set_dev_name_to_mac%176
                0x0000bbc8       0x72
 .text.set_dev_name_to_mac
                0x0000bbc8       0x72 build/sam_d21_xpro_winc1500/production/_ext/1360937237/app.o

.text.DMAC_InterruptHandler%177
                0x0000bc3c       0x70
 .text.DMAC_InterruptHandler
                0x0000bc3c       0x70 build/sam_d21_xpro_winc1500/production/_ext/215415349/plib_dmac.o
                0x0000bc3c                DMAC_InterruptHandler

.text._DRV_SPI_TX_DMA_CallbackHandler%178
                0x0000bcac       0x70
 .text._DRV_SPI_TX_DMA_CallbackHandler
                0x0000bcac       0x70 build/sam_d21_xpro_winc1500/production/_ext/1062439459/drv_spi.o
                0x0000bcac                _DRV_SPI_TX_DMA_CallbackHandler

.text%179       0x0000bd1c       0x70
 .text          0x0000bd1c       0x70 c:/program files (x86)/microchip/xc32/v2.15/bin/bin/../../lib/gcc/pic32c/6.2.1\libgcc.a(floatunsidf.o)
                0x0000bd1c                __aeabi_ui2d

.text.wait_for_firmware_start%180
                0x0000bd8c       0x6c
 .text.wait_for_firmware_start
                0x0000bd8c       0x6c build/sam_d21_xpro_winc1500/production/_ext/386821479/nmasic.o
                0x0000bd8c                wait_for_firmware_start

.text.SERCOM3_USART_Read%181
                0x0000bdf8       0x68
 .text.SERCOM3_USART_Read
                0x0000bdf8       0x68 build/sam_d21_xpro_winc1500/production/_ext/1242531425/plib_sercom3_usart.o
                0x0000bdf8                SERCOM3_USART_Read

.text.shutdown%182
                0x0000be60       0x68
 .text.shutdown
                0x0000be60       0x68 build/sam_d21_xpro_winc1500/production/_ext/39655908/socket.o
                0x0000be60                shutdown

.text%183       0x0000bec8       0x68
 .text          0x0000bec8       0x68 c:/program files (x86)/microchip/xc32/v2.15/bin/bin/../../lib/gcc/pic32c/6.2.1\libgcc.a(fixdfsi.o)
                0x0000bec8                __aeabi_d2iz

.text.Console_UART_PLIBReadHandler%184
                0x0000bf30       0x64
 .text.Console_UART_PLIBReadHandler
                0x0000bf30       0x64 build/sam_d21_xpro_winc1500/production/_ext/2114417963/sys_console_uart.o

.text.strlen%185
                0x0000bf94       0x64
 .text.strlen   0x0000bf94       0x64 c:/program files (x86)/microchip/xc32/v2.15/bin/bin/../../lib/gcc/pic32c/6.2.1/../../../../pic32c/lib\libc.a(lib_a-strlen-stub.o)
                0x0000bf94                strlen

.text.frexp%186
                0x0000bff8       0x64
 .text.frexp    0x0000bff8       0x64 c:/program files (x86)/microchip/xc32/v2.15/bin/bin/../../lib/gcc/pic32c/6.2.1/../../../../pic32c/lib\libc.a(lib_a-s_frexp.o)
                0x0000bff8                frexp

.text%187       0x0000c05c       0x60
 .text          0x0000c05c       0x60 c:/program files (x86)/microchip/xc32/v2.15/bin/bin/../../lib/gcc/pic32c/6.2.1/crtbegin.o

.text.nmi_get_mac_address%188
                0x0000c0bc       0x60
 .text.nmi_get_mac_address
                0x0000c0bc       0x60 build/sam_d21_xpro_winc1500/production/_ext/386821479/nmasic.o
                0x0000c0bc                nmi_get_mac_address

.text.nm_read_block%189
                0x0000c11c       0x60
 .text.nm_read_block
                0x0000c11c       0x60 build/sam_d21_xpro_winc1500/production/_ext/386821479/nmbus.o
                0x0000c11c                nm_read_block

.text.nm_write_block%190
                0x0000c17c       0x60
 .text.nm_write_block
                0x0000c17c       0x60 build/sam_d21_xpro_winc1500/production/_ext/386821479/nmbus.o
                0x0000c17c                nm_write_block

.text.SYS_TIME_TimerStart%191
                0x0000c1dc       0x60
 .text.SYS_TIME_TimerStart
                0x0000c1dc       0x60 build/sam_d21_xpro_winc1500/production/_ext/1751631207/sys_time.o
                0x0000c1dc                SYS_TIME_TimerStart

.text.Console_UART_Initialize%192
                0x0000c23c       0x60
 .text.Console_UART_Initialize
                0x0000c23c       0x60 build/sam_d21_xpro_winc1500/production/_ext/2114417963/sys_console_uart.o
                0x0000c23c                Console_UART_Initialize

.text.chip_sleep%193
                0x0000c29c       0x5e
 .text.chip_sleep
                0x0000c29c       0x5e build/sam_d21_xpro_winc1500/production/_ext/386821479/nmasic.o
                0x0000c29c                chip_sleep

.text.__lo0bits%194
                0x0000c2fc       0x5c
 .text.__lo0bits
                0x0000c2fc       0x5c c:/program files (x86)/microchip/xc32/v2.15/bin/bin/../../lib/gcc/pic32c/6.2.1/../../../../pic32c/lib\libc.a(lib_a-mprec.o)
                0x0000c2fc                __lo0bits

.text.Reset_Handler%195
                0x0000c358       0x58
 .text.Reset_Handler
                0x0000c358       0x58 build/sam_d21_xpro_winc1500/production/_ext/281389274/startup_xc32.o
                0x0000c358                Reset_Handler

.text.SYS_TIME_RemoveFromList%196
                0x0000c3b0       0x58
 .text.SYS_TIME_RemoveFromList
                0x0000c3b0       0x58 build/sam_d21_xpro_winc1500/production/_ext/1751631207/sys_time.o

.text._calloc_r%197
                0x0000c408       0x58
 .text._calloc_r
                0x0000c408       0x58 c:/program files (x86)/microchip/xc32/v2.15/bin/bin/../../lib/gcc/pic32c/6.2.1/../../../../pic32c/lib\libc.a(lib_a-callocr.o)
                0x0000c408                _calloc_r

.text.SERCOM3_USART_Initialize%198
                0x0000c460       0x54
 .text.SERCOM3_USART_Initialize
                0x0000c460       0x54 build/sam_d21_xpro_winc1500/production/_ext/1242531425/plib_sercom3_usart.o
                0x0000c460                SERCOM3_USART_Initialize

.text._SPI_Rx%199
                0x0000c4b4       0x54
 .text._SPI_Rx  0x0000c4b4       0x54 build/sam_d21_xpro_winc1500/production/_ext/1837088568/wdrv_winc_spi.o

.text.hif_register_cb%200
                0x0000c508       0x54
 .text.hif_register_cb
                0x0000c508       0x54 build/sam_d21_xpro_winc1500/production/_ext/386821479/m2m_hif.o
                0x0000c508                hif_register_cb

.text.enable_interrupts%201
                0x0000c55c       0x54
 .text.enable_interrupts
                0x0000c55c       0x54 build/sam_d21_xpro_winc1500/production/_ext/386821479/nmasic.o
                0x0000c55c                enable_interrupts

.text.SERCOM3_USART_Write%202
                0x0000c5b0       0x50
 .text.SERCOM3_USART_Write
                0x0000c5b0       0x50 build/sam_d21_xpro_winc1500/production/_ext/1242531425/plib_sercom3_usart.o
                0x0000c5b0                SERCOM3_USART_Write

.text.WDRV_WINC_SPIInitialize%203
                0x0000c600       0x50
 .text.WDRV_WINC_SPIInitialize
                0x0000c600       0x50 build/sam_d21_xpro_winc1500/production/_ext/1837088568/wdrv_winc_spi.o
                0x0000c600                WDRV_WINC_SPIInitialize

.text._Balloc%204
                0x0000c650       0x50
 .text._Balloc  0x0000c650       0x50 c:/program files (x86)/microchip/xc32/v2.15/bin/bin/../../lib/gcc/pic32c/6.2.1/../../../../pic32c/lib\libc.a(lib_a-mprec.o)
                0x0000c650                _Balloc

.text.Console_UART_PLIBWriteHandler%205
                0x0000c6a0       0x4e
 .text.Console_UART_PLIBWriteHandler
                0x0000c6a0       0x4e build/sam_d21_xpro_winc1500/production/_ext/2114417963/sys_console_uart.o

.text._SPI_Tx%206
                0x0000c6f0       0x4c
 .text._SPI_Tx  0x0000c6f0       0x4c build/sam_d21_xpro_winc1500/production/_ext/1837088568/wdrv_winc_spi.o

.text._DRV_SPI_DriverHandleValidate%207
                0x0000c73c       0x4c
 .text._DRV_SPI_DriverHandleValidate
                0x0000c73c       0x4c build/sam_d21_xpro_winc1500/production/_ext/1062439459/drv_spi.o

.text.memcmp%208
                0x0000c788       0x4c
 .text.memcmp   0x0000c788       0x4c c:/program files (x86)/microchip/xc32/v2.15/bin/bin/../../lib/gcc/pic32c/6.2.1/../../../../pic32c/lib\libc.a(lib_a-memcmp.o)
                0x0000c788                memcmp

.text.WDRV_WINC_SPISend%209
                0x0000c7d4       0x48
 .text.WDRV_WINC_SPISend
                0x0000c7d4       0x48 build/sam_d21_xpro_winc1500/production/_ext/1837088568/wdrv_winc_spi.o
                0x0000c7d4                WDRV_WINC_SPISend

.text.WDRV_WINC_SPIReceive%210
                0x0000c81c       0x48
 .text.WDRV_WINC_SPIReceive
                0x0000c81c       0x48 build/sam_d21_xpro_winc1500/production/_ext/1837088568/wdrv_winc_spi.o
                0x0000c81c                WDRV_WINC_SPIReceive

.text.EIC_InterruptHandler%211
                0x0000c864       0x48
 .text.EIC_InterruptHandler
                0x0000c864       0x48 build/sam_d21_xpro_winc1500/production/_ext/1101428939/plib_eic.o
                0x0000c864                EIC_InterruptHandler

.text.__libc_init_array%212
                0x0000c8ac       0x48
 .text.__libc_init_array
                0x0000c8ac       0x48 c:/program files (x86)/microchip/xc32/v2.15/bin/bin/../../lib/gcc/pic32c/6.2.1/../../../../pic32c/lib\libc.a(lib_a-init.o)
                0x0000c8ac                __libc_init_array

.text.SYS_TIME_TimerAdd%213
                0x0000c8f4       0x44
 .text.SYS_TIME_TimerAdd
                0x0000c8f4       0x44 build/sam_d21_xpro_winc1500/production/_ext/1751631207/sys_time.o

.text.SYS_CONSOLE_Initialize%214
                0x0000c938       0x44
 .text.SYS_CONSOLE_Initialize
                0x0000c938       0x44 build/sam_d21_xpro_winc1500/production/_ext/2114417963/sys_console.o
                0x0000c938                SYS_CONSOLE_Initialize

.text.sprintf%215
                0x0000c97c       0x44
 .text.sprintf  0x0000c97c       0x44 c:/program files (x86)/microchip/xc32/v2.15/bin/bin/../../lib/gcc/pic32c/6.2.1/../../../../pic32c/lib\libc.a(lib_a-sprintf.o)
                0x0000c97c                __sprintf_s
                0x0000c97c                sprintf
                0x0000c97c                __sprintf_u

.rodata%216     0x0000c9c0       0x44
 .rodata        0x0000c9c0       0x44 c:/program files (x86)/microchip/xc32/v2.15/bin/bin/../../lib/gcc/pic32c/6.2.1/../../../../pic32c/lib\libc.a(lib_a-svfprintf.o)

.text.nm_drv_init_start%217
                0x0000ca04       0x42
 .text.nm_drv_init_start
                0x0000ca04       0x42 build/sam_d21_xpro_winc1500/production/_ext/386821479/nmdrv.o
                0x0000ca04                nm_drv_init_start

.text.m2m_wifi_start_provision_mode%218
                0x0000ca46       0x40
 .text.m2m_wifi_start_provision_mode
                0x0000ca46       0x40 build/sam_d21_xpro_winc1500/production/_ext/386821479/m2m_wifi.o
                0x0000ca46                m2m_wifi_start_provision_mode

.text.PORT_Initialize%219
                0x0000ca88       0x40
 .text.PORT_Initialize
                0x0000ca88       0x40 build/sam_d21_xpro_winc1500/production/_ext/215775307/plib_port.o
                0x0000ca88                PORT_Initialize

.text.TC3_TimerInitialize%220
                0x0000cac8       0x40
 .text.TC3_TimerInitialize
                0x0000cac8       0x40 build/sam_d21_xpro_winc1500/production/_ext/1143908167/plib_tc3.o
                0x0000cac8                TC3_TimerInitialize

.text.SYS_TIME_GetTimerObject%221
                0x0000cb08       0x40
 .text.SYS_TIME_GetTimerObject
                0x0000cb08       0x40 build/sam_d21_xpro_winc1500/production/_ext/1751631207/sys_time.o

.text%222       0x0000cb48       0x40
 .text          0x0000cb48       0x40 c:/program files (x86)/microchip/xc32/v2.15/bin/bin/../../lib/gcc/pic32c/6.2.1\libgcc.a(_aeabi_uldivmod.o)
                0x0000cb48                __aeabi_uldivmod

.rodata%223     0x0000cb88       0xc0
 .rodata        0x0000cb88       0x40 c:/program files (x86)/microchip/xc32/v2.15/bin/bin/../../lib/gcc/pic32c/6.2.1\libgcc.a(mulsf3.o)
 .rodata        0x0000cbc8       0x40 c:/program files (x86)/microchip/xc32/v2.15/bin/bin/../../lib/gcc/pic32c/6.2.1\libgcc.a(divdf3.o)
 .rodata        0x0000cc08       0x40 c:/program files (x86)/microchip/xc32/v2.15/bin/bin/../../lib/gcc/pic32c/6.2.1\libgcc.a(muldf3.o)

.text%226       0x0000cc48       0x40
 .text          0x0000cc48       0x40 c:/program files (x86)/microchip/xc32/v2.15/bin/bin/../../lib/gcc/pic32c/6.2.1\libgcc.a(unorddf2.o)
                0x0000cc48                __aeabi_dcmpun

.text.SYS_TIME_TimerDestroy%227
                0x0000cc88       0x3e
 .text.SYS_TIME_TimerDestroy
                0x0000cc88       0x3e build/sam_d21_xpro_winc1500/production/_ext/1751631207/sys_time.o
                0x0000cc88                SYS_TIME_TimerDestroy

.text._WDRV_WINC_SPITransferEventHandler%228
                0x0000ccc8       0x3c
 .text._WDRV_WINC_SPITransferEventHandler
                0x0000ccc8       0x3c build/sam_d21_xpro_winc1500/production/_ext/1837088568/wdrv_winc_spi.o

.text.socketInit%229
                0x0000cd04       0x3c
 .text.socketInit
                0x0000cd04       0x3c build/sam_d21_xpro_winc1500/production/_ext/39655908/socket.o
                0x0000cd04                socketInit

.text.SYS_INT_SourceDisable%230
                0x0000cd40       0x3c
 .text.SYS_INT_SourceDisable
                0x0000cd40       0x3c build/sam_d21_xpro_winc1500/production/_ext/720072173/sys_int.o
                0x0000cd40                SYS_INT_SourceDisable

.text.resolve_cb%231
                0x0000cd7c       0x3c
 .text.resolve_cb
                0x0000cd7c       0x3c build/sam_d21_xpro_winc1500/production/_ext/1360937237/app.o

.text%232       0x0000cdb8       0x78
 .text          0x0000cdb8       0x3c c:/program files (x86)/microchip/xc32/v2.15/bin/bin/../../lib/gcc/pic32c/6.2.1\libgcc.a(_fixunsdfsi.o)
                0x0000cdb8                __aeabi_d2uiz
                0x0000cdb8                __fixunsdfsi
 .text          0x0000cdf4       0x3c c:/program files (x86)/microchip/xc32/v2.15/bin/bin/../../lib/gcc/pic32c/6.2.1\libgcc.a(_clzsi2.o)
                0x0000cdf4                __clzsi2

.text.SYS_TIME_DelayMS%234
                0x0000ce30       0x3a
 .text.SYS_TIME_DelayMS
                0x0000ce30       0x3a build/sam_d21_xpro_winc1500/production/_ext/1751631207/sys_time.o
                0x0000ce30                SYS_TIME_DelayMS

.text.SERCOM0_SPI_Initialize%235
                0x0000ce6c       0x38
 .text.SERCOM0_SPI_Initialize
                0x0000ce6c       0x38 build/sam_d21_xpro_winc1500/production/_ext/98527899/plib_sercom0_spi.o
                0x0000ce6c                SERCOM0_SPI_Initialize

.text.hif_chip_wake%236
                0x0000cea4       0x38
 .text.hif_chip_wake
                0x0000cea4       0x38 build/sam_d21_xpro_winc1500/production/_ext/386821479/m2m_hif.o
                0x0000cea4                hif_chip_wake

.text.nm_spi_reset%237
                0x0000cedc       0x38
 .text.nm_spi_reset
                0x0000cedc       0x38 build/sam_d21_xpro_winc1500/production/_ext/386821479/nmspi.o
                0x0000cedc                nm_spi_reset

.text.SYS_TIME_UpdateTimerList%238
                0x0000cf14       0x38
 .text.SYS_TIME_UpdateTimerList
                0x0000cf14       0x38 build/sam_d21_xpro_winc1500/production/_ext/1751631207/sys_time.o

.text.SYS_TIME_MSToCount%239
                0x0000cf4c       0x38
 .text.SYS_TIME_MSToCount
                0x0000cf4c       0x38 build/sam_d21_xpro_winc1500/production/_ext/1751631207/sys_time.o
                0x0000cf4c                SYS_TIME_MSToCount

.text.Console_UART_Flush%240
                0x0000cf84       0x38
 .text.Console_UART_Flush
                0x0000cf84       0x38 build/sam_d21_xpro_winc1500/production/_ext/2114417963/sys_console_uart.o
                0x0000cf84                Console_UART_Flush

.text.DRV_SPI_TransferEventHandlerSet%241
                0x0000cfbc       0x38
 .text.DRV_SPI_TransferEventHandlerSet
                0x0000cfbc       0x38 build/sam_d21_xpro_winc1500/production/_ext/1062439459/drv_spi.o
                0x0000cfbc                DRV_SPI_TransferEventHandlerSet

.text.hif_set_rx_done%242
                0x0000cff4       0x34
 .text.hif_set_rx_done
                0x0000cff4       0x34 build/sam_d21_xpro_winc1500/production/_ext/386821479/m2m_hif.o

.text.hif_chip_sleep%243
                0x0000d028       0x34
 .text.hif_chip_sleep
                0x0000d028       0x34 build/sam_d21_xpro_winc1500/production/_ext/386821479/m2m_hif.o
                0x0000d028                hif_chip_sleep

.rodata.spi_cmd%244
                0x0000d05c       0x34
 .rodata.spi_cmd
                0x0000d05c       0x34 build/sam_d21_xpro_winc1500/production/_ext/386821479/nmspi.o

.text.SYS_TIME_ResourceLock%245
                0x0000d090       0x34
 .text.SYS_TIME_ResourceLock
                0x0000d090       0x34 build/sam_d21_xpro_winc1500/production/_ext/1751631207/sys_time.o

.text.__libc_fini_array%246
                0x0000d0c4       0x34
 .text.__libc_fini_array
                0x0000d0c4       0x34 c:/program files (x86)/microchip/xc32/v2.15/bin/bin/../../lib/gcc/pic32c/6.2.1/../../../../pic32c/lib\libc.a(lib_a-fini.o)
                0x0000d0c4                __libc_fini_array

.text.__hi0bits%247
                0x0000d0f8       0x34
 .text.__hi0bits
                0x0000d0f8       0x34 c:/program files (x86)/microchip/xc32/v2.15/bin/bin/../../lib/gcc/pic32c/6.2.1/../../../../pic32c/lib\libc.a(lib_a-mprec.o)
                0x0000d0f8                __hi0bits

.text.__mcmp%248
                0x0000d12c       0x34
 .text.__mcmp   0x0000d12c       0x34 c:/program files (x86)/microchip/xc32/v2.15/bin/bin/../../lib/gcc/pic32c/6.2.1/../../../../pic32c/lib\libc.a(lib_a-mprec.o)
                0x0000d12c                __mcmp

.text.Console_UART_PopQueue%249
                0x0000d160       0x32
 .text.Console_UART_PopQueue
                0x0000d160       0x32 build/sam_d21_xpro_winc1500/production/_ext/2114417963/sys_console_uart.o

.text.hif_init%250
                0x0000d194       0x30
 .text.hif_init
                0x0000d194       0x30 build/sam_d21_xpro_winc1500/production/_ext/386821479/m2m_hif.o
                0x0000d194                hif_init

.text.m2m_wifi_connect_open%251
                0x0000d1c4       0x30
 .text.m2m_wifi_connect_open
                0x0000d1c4       0x30 build/sam_d21_xpro_winc1500/production/_ext/386821479/m2m_wifi.o
                0x0000d1c4                m2m_wifi_connect_open

.text.m2m_wifi_set_device_name%252
                0x0000d1f4       0x30
 .text.m2m_wifi_set_device_name
                0x0000d1f4       0x30 build/sam_d21_xpro_winc1500/production/_ext/386821479/m2m_wifi.o
                0x0000d1f4                m2m_wifi_set_device_name

.text.chip_apply_conf%253
                0x0000d224       0x30
 .text.chip_apply_conf
                0x0000d224       0x30 build/sam_d21_xpro_winc1500/production/_ext/386821479/nmasic.o
                0x0000d224                chip_apply_conf

.text.chip_deinit%254
                0x0000d254       0x30
 .text.chip_deinit
                0x0000d254       0x30 build/sam_d21_xpro_winc1500/production/_ext/386821479/nmasic.o
                0x0000d254                chip_deinit

.rodata.drvSPI0InitData%255
                0x0000d284       0x30
 .rodata.drvSPI0InitData
                0x0000d284       0x30 build/sam_d21_xpro_winc1500/production/_ext/281389274/initialization.o
                0x0000d284                drvSPI0InitData

.text.SYS_TIME_ResourceUnlock%256
                0x0000d2b4       0x30
 .text.SYS_TIME_ResourceUnlock
                0x0000d2b4       0x30 build/sam_d21_xpro_winc1500/production/_ext/1751631207/sys_time.o

.text.SYS_CONSOLE_Write%257
                0x0000d2e4       0x30
 .text.SYS_CONSOLE_Write
                0x0000d2e4       0x30 build/sam_d21_xpro_winc1500/production/_ext/2114417963/sys_console.o
                0x0000d2e4                SYS_CONSOLE_Write

.text._sbrk%258
                0x0000d314       0x30
 .text._sbrk    0x0000d314       0x30 c:/program files (x86)/microchip/xc32/v2.15/bin/bin/../../lib/gcc/pic32c/6.2.1/../../../../pic32c/lib\libpic32c.a(sbrk.o)
                0x0000d314                _sbrk

.text.gethostbyname%259
                0x0000d344       0x2e
 .text.gethostbyname
                0x0000d344       0x2e build/sam_d21_xpro_winc1500/production/_ext/39655908/socket.o
                0x0000d344                gethostbyname

.text.__ascii_mbtowc%260
                0x0000d374       0x2c
 .text.__ascii_mbtowc
                0x0000d374       0x2c c:/program files (x86)/microchip/xc32/v2.15/bin/bin/../../lib/gcc/pic32c/6.2.1/../../../../pic32c/lib\libc.a(lib_a-mbtowc_r.o)
                0x0000d374                __ascii_mbtowc

.text.nm_drv_deinit%261
                0x0000d3a0       0x2a
 .text.nm_drv_deinit
                0x0000d3a0       0x2a build/sam_d21_xpro_winc1500/production/_ext/386821479/nmdrv.o
                0x0000d3a0                nm_drv_deinit

.text.SYS_TIME_TimerPeriodHasExpired%262
                0x0000d3ca       0x2a
 .text.SYS_TIME_TimerPeriodHasExpired
                0x0000d3ca       0x2a build/sam_d21_xpro_winc1500/production/_ext/1751631207/sys_time.o
                0x0000d3ca                SYS_TIME_TimerPeriodHasExpired

.text.spi_reset%263
                0x0000d3f4       0x28
 .text.spi_reset
                0x0000d3f4       0x28 build/sam_d21_xpro_winc1500/production/_ext/386821479/nmspi.o

.text.DMAC_ChannelSettingsSet%264
                0x0000d41c       0x28
 .text.DMAC_ChannelSettingsSet
                0x0000d41c       0x28 build/sam_d21_xpro_winc1500/production/_ext/215415349/plib_dmac.o
                0x0000d41c                DMAC_ChannelSettingsSet

.text.Console_UART_Status%265
                0x0000d444       0x28
 .text.Console_UART_Status
                0x0000d444       0x28 build/sam_d21_xpro_winc1500/production/_ext/2114417963/sys_console_uart.o
                0x0000d444                Console_UART_Status

.rodata.__mprec_bigtens%266
                0x0000d470       0x28
 .rodata.__mprec_bigtens
                0x0000d470       0x28 c:/program files (x86)/microchip/xc32/v2.15/bin/bin/../../lib/gcc/pic32c/6.2.1/../../../../pic32c/lib\libc.a(lib_a-mprec.o)
                0x0000d470                __mprec_bigtens

.text.nm_reset%267
                0x0000d498       0x26
 .text.nm_reset
                0x0000d498       0x26 build/sam_d21_xpro_winc1500/production/_ext/418110372/nm_common.o
                0x0000d498                nm_reset

.text.m2m_wifi_set_mac_address%268
                0x0000d4be       0x26
 .text.m2m_wifi_set_mac_address
                0x0000d4be       0x26 build/sam_d21_xpro_winc1500/production/_ext/386821479/m2m_wifi.o
                0x0000d4be                m2m_wifi_set_mac_address

.rodata.drvSPI0remapDataBits%269
                0x0000d4e4       0x24
 .rodata.drvSPI0remapDataBits
                0x0000d4e4       0x24 build/sam_d21_xpro_winc1500/production/_ext/281389274/initialization.o
                0x0000d4e4                drvSPI0remapDataBits

.text.TC3_TimerInterruptHandler%270
                0x0000d508       0x24
 .text.TC3_TimerInterruptHandler
                0x0000d508       0x24 build/sam_d21_xpro_winc1500/production/_ext/1143908167/plib_tc3.o
                0x0000d508                TC3_TimerInterruptHandler

.text.SYS_TIME_GetElapsedCount%271
                0x0000d52c       0x24
 .text.SYS_TIME_GetElapsedCount
                0x0000d52c       0x24 build/sam_d21_xpro_winc1500/production/_ext/1751631207/sys_time.o

.text.SYS_DEBUG_Initialize%272
                0x0000d550       0x24
 .text.SYS_DEBUG_Initialize
                0x0000d550       0x24 build/sam_d21_xpro_winc1500/production/_ext/2114417963/sys_debug.o
                0x0000d550                SYS_DEBUG_Initialize

.text.SYS_DMA_AddressingModeSetup%273
                0x0000d574       0x24
 .text.SYS_DMA_AddressingModeSetup
                0x0000d574       0x24 build/sam_d21_xpro_winc1500/production/_ext/676678561/sys_dma.o
                0x0000d574                SYS_DMA_AddressingModeSetup

.text._sbrk_r%274
                0x0000d598       0x24
 .text._sbrk_r  0x0000d598       0x24 c:/program files (x86)/microchip/xc32/v2.15/bin/bin/../../lib/gcc/pic32c/6.2.1/../../../../pic32c/lib\libc.a(lib_a-sbrkr.o)
                0x0000d598                _sbrk_r

.text.WDRV_MSDelay%275
                0x0000d5bc       0x22
 .text.WDRV_MSDelay
                0x0000d5bc       0x22 build/sam_d21_xpro_winc1500/production/_ext/1879120711/wdrv_winc_osal.o
                0x0000d5bc                WDRV_MSDelay

.text.m2m_wifi_get_otp_mac_address%276
                0x0000d5de       0x22
 .text.m2m_wifi_get_otp_mac_address
                0x0000d5de       0x22 build/sam_d21_xpro_winc1500/production/_ext/386821479/m2m_wifi.o
                0x0000d5de                m2m_wifi_get_otp_mac_address

.rodata.hif_register_cb%277
                0x0000d600       0x20
 .rodata.hif_register_cb
                0x0000d600       0x20 build/sam_d21_xpro_winc1500/production/_ext/386821479/m2m_hif.o

.text.TC3_Timer16bitCounterGet%278
                0x0000d620       0x20
 .text.TC3_Timer16bitCounterGet
                0x0000d620       0x20 build/sam_d21_xpro_winc1500/production/_ext/1143908167/plib_tc3.o
                0x0000d620                TC3_Timer16bitCounterGet

.rodata.sysConsoleUARTDevDesc%279
                0x0000d640       0x20
 .rodata.sysConsoleUARTDevDesc
                0x0000d640       0x20 build/sam_d21_xpro_winc1500/production/_ext/2114417963/sys_console_uart.o
                0x0000d640                sysConsoleUARTDevDesc

.text.SYS_DMA_DataWidthSetup%280
                0x0000d660       0x20
 .text.SYS_DMA_DataWidthSetup
                0x0000d660       0x20 build/sam_d21_xpro_winc1500/production/_ext/676678561/sys_dma.o
                0x0000d660                SYS_DMA_DataWidthSetup

.text.vsnprintf%281
                0x0000d680       0x20
 .text.vsnprintf
                0x0000d680       0x20 c:/program files (x86)/microchip/xc32/v2.15/bin/bin/../../lib/gcc/pic32c/6.2.1/../../../../pic32c/lib\libc.a(lib_a-vsnprintf.o)
                0x0000d680                vsnprintf

.text.m2m_wifi_get_mac_address%282
                0x0000d6a0       0x1e
 .text.m2m_wifi_get_mac_address
                0x0000d6a0       0x1e build/sam_d21_xpro_winc1500/production/_ext/386821479/m2m_wifi.o
                0x0000d6a0                m2m_wifi_get_mac_address

.text.WDRV_WINC_Initialize%283
                0x0000d6c0       0x1c
 .text.WDRV_WINC_Initialize
                0x0000d6c0       0x1c build/sam_d21_xpro_winc1500/production/_ext/2003669979/wdrv_winc.o
                0x0000d6c0                WDRV_WINC_Initialize

.text.hif_chip_sleep_sc%284
                0x0000d6dc       0x1c
 .text.hif_chip_sleep_sc
                0x0000d6dc       0x1c build/sam_d21_xpro_winc1500/production/_ext/386821479/m2m_hif.o
                0x0000d6dc                hif_chip_sleep_sc

.rodata.sysTimePlibAPI%285
                0x0000d6f8       0x1c
 .rodata.sysTimePlibAPI
                0x0000d6f8       0x1c build/sam_d21_xpro_winc1500/production/_ext/281389274/initialization.o
                0x0000d6f8                sysTimePlibAPI

.text.SYS_TIME_Counter64Update%286
                0x0000d714       0x1c
 .text.SYS_TIME_Counter64Update
                0x0000d714       0x1c build/sam_d21_xpro_winc1500/production/_ext/1751631207/sys_time.o

.text.Console_UART_RegisterCallback%287
                0x0000d730       0x1c
 .text.Console_UART_RegisterCallback
                0x0000d730       0x1c build/sam_d21_xpro_winc1500/production/_ext/2114417963/sys_console_uart.o
                0x0000d730                Console_UART_RegisterCallback

.text.SYS_INT_SourceRestore%288
                0x0000d74c       0x1c
 .text.SYS_INT_SourceRestore
                0x0000d74c       0x1c build/sam_d21_xpro_winc1500/production/_ext/720072173/sys_int.o
                0x0000d74c                SYS_INT_SourceRestore

.text._localeconv_r%289
                0x0000d768       0x1c
 .text._localeconv_r
                0x0000d768       0x1c c:/program files (x86)/microchip/xc32/v2.15/bin/bin/../../lib/gcc/pic32c/6.2.1/../../../../pic32c/lib\libc.a(lib_a-localeconv.o)
                0x0000d768                _localeconv_r

.text.__ascii_wctomb%290
                0x0000d784       0x1c
 .text.__ascii_wctomb
                0x0000d784       0x1c c:/program files (x86)/microchip/xc32/v2.15/bin/bin/../../lib/gcc/pic32c/6.2.1/../../../../pic32c/lib\libc.a(lib_a-wctomb_r.o)
                0x0000d784                __ascii_wctomb

.text.nm_drv_init_hold%291
                0x0000d7a0       0x1a
 .text.nm_drv_init_hold
                0x0000d7a0       0x1a build/sam_d21_xpro_winc1500/production/_ext/386821479/nmdrv.o
                0x0000d7a0                nm_drv_init_hold

.text.m2m_wifi_init_hold%292
                0x0000d7bc       0x18
 .text.m2m_wifi_init_hold
                0x0000d7bc       0x18 build/sam_d21_xpro_winc1500/production/_ext/386821479/m2m_wifi.o
                0x0000d7bc                m2m_wifi_init_hold

.rodata.drvSPI0InterruptSources%293
                0x0000d7d4       0x18
 .rodata.drvSPI0InterruptSources
                0x0000d7d4       0x18 build/sam_d21_xpro_winc1500/production/_ext/281389274/initialization.o
                0x0000d7d4                drvSPI0InterruptSources

.rodata.sysConsole0UARTInitData%294
                0x0000d7ec       0x18
 .rodata.sysConsole0UARTInitData
                0x0000d7ec       0x18 build/sam_d21_xpro_winc1500/production/_ext/281389274/initialization.o
                0x0000d7ec                sysConsole0UARTInitData

.text.TC3_TimerStart%295
                0x0000d804       0x18
 .text.TC3_TimerStart
                0x0000d804       0x18 build/sam_d21_xpro_winc1500/production/_ext/1143908167/plib_tc3.o
                0x0000d804                TC3_TimerStart

.text.TC3_TimerStop%296
                0x0000d81c       0x18
 .text.TC3_TimerStop
                0x0000d81c       0x18 build/sam_d21_xpro_winc1500/production/_ext/1143908167/plib_tc3.o
                0x0000d81c                TC3_TimerStop

.text.SYS_TIME_DelayIsComplete%297
                0x0000d834       0x18
 .text.SYS_TIME_DelayIsComplete
                0x0000d834       0x18 build/sam_d21_xpro_winc1500/production/_ext/1751631207/sys_time.o
                0x0000d834                SYS_TIME_DelayIsComplete

.text%298       0x0000d84c       0x18
 .text          0x0000d84c       0x18 c:/program files (x86)/microchip/xc32/v2.15/bin/bin/../../lib/gcc/pic32c/6.2.1\libgcc.a(_clzdi2.o)
                0x0000d84c                __clzdi2

.text.register_fini%299
                0x0000d864       0x18
 .text.register_fini
                0x0000d864       0x18 c:/program files (x86)/microchip/xc32/v2.15/bin/bin/../../lib/gcc/pic32c/6.2.1/../../../../pic32c/lib\libc.a(lib_a-__call_atexit.o)

.text.m2m_wifi_init%300
                0x0000d87c       0x16
 .text.m2m_wifi_init
                0x0000d87c       0x16 build/sam_d21_xpro_winc1500/production/_ext/386821479/m2m_wifi.o
                0x0000d87c                m2m_wifi_init

.text.m2m_wifi_connect%301
                0x0000d892       0x16
 .text.m2m_wifi_connect
                0x0000d892       0x16 build/sam_d21_xpro_winc1500/production/_ext/386821479/m2m_wifi.o
                0x0000d892                m2m_wifi_connect

.text.SERCOM3_USART_ErrorGet%302
                0x0000d8a8       0x14
 .text.SERCOM3_USART_ErrorGet
                0x0000d8a8       0x14 build/sam_d21_xpro_winc1500/production/_ext/1242531425/plib_sercom3_usart.o
                0x0000d8a8                SERCOM3_USART_ErrorGet

.text.registerSocketCallback%303
                0x0000d8bc       0x14
 .text.registerSocketCallback
                0x0000d8bc       0x14 build/sam_d21_xpro_winc1500/production/_ext/39655908/socket.o
                0x0000d8bc                registerSocketCallback

.rodata.sysConsole0UARTInterruptSources%304
                0x0000d8d0       0x14
 .rodata.sysConsole0UARTInterruptSources
                0x0000d8d0       0x14 build/sam_d21_xpro_winc1500/production/_ext/281389274/initialization.o
                0x0000d8d0                sysConsole0UARTInterruptSources

.rodata.sysConsole0UARTPlibAPI%305
                0x0000d8e4       0x14
 .rodata.sysConsole0UARTPlibAPI
                0x0000d8e4       0x14 build/sam_d21_xpro_winc1500/production/_ext/281389274/initialization.o
                0x0000d8e4                sysConsole0UARTPlibAPI

.text.TC3_Timer16bitPeriodSet%306
                0x0000d8f8       0x14
 .text.TC3_Timer16bitPeriodSet
                0x0000d8f8       0x14 build/sam_d21_xpro_winc1500/production/_ext/1143908167/plib_tc3.o
                0x0000d8f8                TC3_Timer16bitPeriodSet

.text.TC3_Timer16bitCompareSet%307
                0x0000d90c       0x14
 .text.TC3_Timer16bitCompareSet
                0x0000d90c       0x14 build/sam_d21_xpro_winc1500/production/_ext/1143908167/plib_tc3.o
                0x0000d90c                TC3_Timer16bitCompareSet

.text._DRV_SPI_RemoveTransferObjFromList%308
                0x0000d920       0x14
 .text._DRV_SPI_RemoveTransferObjFromList
                0x0000d920       0x14 build/sam_d21_xpro_winc1500/production/_ext/1062439459/drv_spi.o

.text.SYS_INT_Restore%309
                0x0000d934       0x14
 .text.SYS_INT_Restore
                0x0000d934       0x14 build/sam_d21_xpro_winc1500/production/_ext/720072173/sys_int.o
                0x0000d934                SYS_INT_Restore

.text.SYS_Tasks%310
                0x0000d948       0x14
 .text.SYS_Tasks
                0x0000d948       0x14 build/sam_d21_xpro_winc1500/production/_ext/281389274/tasks.o
                0x0000d948                SYS_Tasks

.text.malloc%311
                0x0000d95c       0x14
 .text.malloc   0x0000d95c       0x14 c:/program files (x86)/microchip/xc32/v2.15/bin/bin/../../lib/gcc/pic32c/6.2.1/../../../../pic32c/lib\libc.a(lib_a-malloc.o)
                0x0000d95c                malloc

.text.free%312  0x0000d970       0x14
 .text.free     0x0000d970       0x14 c:/program files (x86)/microchip/xc32/v2.15/bin/bin/../../lib/gcc/pic32c/6.2.1/../../../../pic32c/lib\libc.a(lib_a-malloc.o)
                0x0000d970                free

.rodata%313     0x0000d984       0x14
 .rodata        0x0000d984       0x14 c:/program files (x86)/microchip/xc32/v2.15/bin/bin/../../lib/gcc/pic32c/6.2.1/../../../../pic32c/lib\libc.a(lib_a-dtoa.o)

.text._Bfree%314
                0x0000d998       0x14
 .text._Bfree   0x0000d998       0x14 c:/program files (x86)/microchip/xc32/v2.15/bin/bin/../../lib/gcc/pic32c/6.2.1/../../../../pic32c/lib\libc.a(lib_a-mprec.o)
                0x0000d998                _Bfree

.text.__i2b%315
                0x0000d9ac       0x14
 .text.__i2b    0x0000d9ac       0x14 c:/program files (x86)/microchip/xc32/v2.15/bin/bin/../../lib/gcc/pic32c/6.2.1/../../../../pic32c/lib\libc.a(lib_a-mprec.o)
                0x0000d9ac                __i2b

.rodata%316     0x0000d9c0       0x14
 .rodata        0x0000d9c0       0x14 c:/program files (x86)/microchip/xc32/v2.15/bin/bin/../../lib/gcc/pic32c/6.2.1/../../../../pic32c/lib\libc.a(lib_a-locale.o)

.text.DRV_SPI_WriteTransferAdd%317
                0x0000d9d4       0x12
 .text.DRV_SPI_WriteTransferAdd
                0x0000d9d4       0x12 build/sam_d21_xpro_winc1500/production/_ext/1062439459/drv_spi.o
                0x0000d9d4                DRV_SPI_WriteTransferAdd

.text.SYS_INT_Disable%318
                0x0000d9e6       0x12
 .text.SYS_INT_Disable
                0x0000d9e6       0x12 build/sam_d21_xpro_winc1500/production/_ext/720072173/sys_int.o
                0x0000d9e6                SYS_INT_Disable

.text.WDRV_WINC_GPIOResetAssert%319
                0x0000d9f8       0x10
 .text.WDRV_WINC_GPIOResetAssert
                0x0000d9f8       0x10 build/sam_d21_xpro_winc1500/production/_ext/1115528141/wdrv_winc_gpio.o
                0x0000d9f8                WDRV_WINC_GPIOResetAssert

.text.WDRV_WINC_GPIOResetDeassert%320
                0x0000da08       0x10
 .text.WDRV_WINC_GPIOResetDeassert
                0x0000da08       0x10 build/sam_d21_xpro_winc1500/production/_ext/1115528141/wdrv_winc_gpio.o
                0x0000da08                WDRV_WINC_GPIOResetDeassert

.text.WDRV_WINC_GPIOChipEnableAssert%321
                0x0000da18       0x10
 .text.WDRV_WINC_GPIOChipEnableAssert
                0x0000da18       0x10 build/sam_d21_xpro_winc1500/production/_ext/1115528141/wdrv_winc_gpio.o
                0x0000da18                WDRV_WINC_GPIOChipEnableAssert

.text.WDRV_WINC_GPIOChipEnableDeassert%322
                0x0000da28       0x10
 .text.WDRV_WINC_GPIOChipEnableDeassert
                0x0000da28       0x10 build/sam_d21_xpro_winc1500/production/_ext/1115528141/wdrv_winc_gpio.o
                0x0000da28                WDRV_WINC_GPIOChipEnableDeassert

.text.nm_bus_iface_init%323
                0x0000da38       0x10
 .text.nm_bus_iface_init
                0x0000da38       0x10 build/sam_d21_xpro_winc1500/production/_ext/386821479/nmbus.o
                0x0000da38                nm_bus_iface_init

.text.nm_spi_deinit%324
                0x0000da48       0x10
 .text.nm_spi_deinit
                0x0000da48       0x10 build/sam_d21_xpro_winc1500/production/_ext/386821479/nmspi.o
                0x0000da48                nm_spi_deinit

.text.nm_spi_read_reg%325
                0x0000da58       0x10
 .text.nm_spi_read_reg
                0x0000da58       0x10 build/sam_d21_xpro_winc1500/production/_ext/386821479/nmspi.o
                0x0000da58                nm_spi_read_reg

.rodata.drvSPI0PlibAPI%326
                0x0000da68       0x10
 .rodata.drvSPI0PlibAPI
                0x0000da68       0x10 build/sam_d21_xpro_winc1500/production/_ext/281389274/initialization.o
                0x0000da68                drvSPI0PlibAPI

.text.DMAC_ChannelCallbackRegister%327
                0x0000da78       0x10
 .text.DMAC_ChannelCallbackRegister
                0x0000da78       0x10 build/sam_d21_xpro_winc1500/production/_ext/215415349/plib_dmac.o
                0x0000da78                DMAC_ChannelCallbackRegister

.text.DMAC_ChannelSettingsGet%328
                0x0000da88       0x10
 .text.DMAC_ChannelSettingsGet
                0x0000da88       0x10 build/sam_d21_xpro_winc1500/production/_ext/215415349/plib_dmac.o
                0x0000da88                DMAC_ChannelSettingsGet

.text.strcpy%329
                0x0000da98       0x10
 .text.strcpy   0x0000da98       0x10 c:/program files (x86)/microchip/xc32/v2.15/bin/bin/../../lib/gcc/pic32c/6.2.1/../../../../pic32c/lib\libc.a(lib_a-strcpy.o)
                0x0000da98                strcpy

.rodata.blanks.7229%330
                0x0000daa8       0x10
 .rodata.blanks.7229
                0x0000daa8       0x10 c:/program files (x86)/microchip/xc32/v2.15/bin/bin/../../lib/gcc/pic32c/6.2.1/../../../../pic32c/lib\libc.a(lib_a-svfprintf.o)

.rodata.zeroes.7230%331
                0x0000dab8       0x10
 .rodata.zeroes.7230
                0x0000dab8       0x10 c:/program files (x86)/microchip/xc32/v2.15/bin/bin/../../lib/gcc/pic32c/6.2.1/../../../../pic32c/lib\libc.a(lib_a-svfprintf.o)

.text.atexit%332
                0x0000dac8       0x10
 .text.atexit   0x0000dac8       0x10 c:/program files (x86)/microchip/xc32/v2.15/bin/bin/../../lib/gcc/pic32c/6.2.1/../../../../pic32c/lib\libc.a(lib_a-atexit.o)
                0x0000dac8                atexit

.text.main%333  0x0000dad8        0xe
 .text.main     0x0000dad8        0xe build/sam_d21_xpro_winc1500/production/_ext/1360937237/main.o
                0x0000dad8                main

.text.SERCOM3_USART_WriteCallbackRegister%334
                0x0000dae8        0xc
 .text.SERCOM3_USART_WriteCallbackRegister
                0x0000dae8        0xc build/sam_d21_xpro_winc1500/production/_ext/1242531425/plib_sercom3_usart.o
                0x0000dae8                SERCOM3_USART_WriteCallbackRegister

.text.SERCOM3_USART_ReadCallbackRegister%335
                0x0000daf4        0xc
 .text.SERCOM3_USART_ReadCallbackRegister
                0x0000daf4        0xc build/sam_d21_xpro_winc1500/production/_ext/1242531425/plib_sercom3_usart.o
                0x0000daf4                SERCOM3_USART_ReadCallbackRegister

.text.SERCOM0_SPI_CallbackRegister%336
                0x0000db00        0xc
 .text.SERCOM0_SPI_CallbackRegister
                0x0000db00        0xc build/sam_d21_xpro_winc1500/production/_ext/98527899/plib_sercom0_spi.o
                0x0000db00                SERCOM0_SPI_CallbackRegister

.text.SERCOM0_SPI_IsBusy%337
                0x0000db0c        0xc
 .text.SERCOM0_SPI_IsBusy
                0x0000db0c        0xc build/sam_d21_xpro_winc1500/production/_ext/98527899/plib_sercom0_spi.o
                0x0000db0c                SERCOM0_SPI_IsBusy

.text.nm_spi_lock_init%338
                0x0000db18        0xc
 .text.nm_spi_lock_init
                0x0000db18        0xc build/sam_d21_xpro_winc1500/production/_ext/386821479/nmspi.o
                0x0000db18                nm_spi_lock_init

.rodata.sysConsole0Init%339
                0x0000db24        0xc
 .rodata.sysConsole0Init
                0x0000db24        0xc build/sam_d21_xpro_winc1500/production/_ext/281389274/initialization.o
                0x0000db24                sysConsole0Init

.text.PORT_GroupWrite%340
                0x0000db30        0xc
 .text.PORT_GroupWrite
                0x0000db30        0xc build/sam_d21_xpro_winc1500/production/_ext/215775307/plib_port.o
                0x0000db30                PORT_GroupWrite

.text.TC3_TimerCallbackRegister%341
                0x0000db3c        0xc
 .text.TC3_TimerCallbackRegister
                0x0000db3c        0xc build/sam_d21_xpro_winc1500/production/_ext/1143908167/plib_tc3.o
                0x0000db3c                TC3_TimerCallbackRegister

.text.APP_Initialize%342
                0x0000db48        0xc
 .text.APP_Initialize
                0x0000db48        0xc build/sam_d21_xpro_winc1500/production/_ext/1360937237/app.o
                0x0000db48                APP_Initialize

.rodata.p05.6056%343
                0x0000db54        0xc
 .rodata.p05.6056
                0x0000db54        0xc c:/program files (x86)/microchip/xc32/v2.15/bin/bin/../../lib/gcc/pic32c/6.2.1/../../../../pic32c/lib\libc.a(lib_a-mprec.o)

.text.nm_sleep%344
                0x0000db60        0x8
 .text.nm_sleep
                0x0000db60        0x8 build/sam_d21_xpro_winc1500/production/_ext/418110372/nm_common.o
                0x0000db60                nm_sleep

.text.m2m_wifi_handle_events%345
                0x0000db68        0x8
 .text.m2m_wifi_handle_events
                0x0000db68        0x8 build/sam_d21_xpro_winc1500/production/_ext/386821479/m2m_wifi.o
                0x0000db68                m2m_wifi_handle_events

.text.nm_bus_reset%346
                0x0000db70        0x8
 .text.nm_bus_reset
                0x0000db70        0x8 build/sam_d21_xpro_winc1500/production/_ext/386821479/nmbus.o
                0x0000db70                nm_bus_reset

.text.nm_read_reg%347
                0x0000db78        0x8
 .text.nm_read_reg
                0x0000db78        0x8 build/sam_d21_xpro_winc1500/production/_ext/386821479/nmbus.o
                0x0000db78                nm_read_reg

.text.nm_read_reg_with_ret%348
                0x0000db80        0x8
 .text.nm_read_reg_with_ret
                0x0000db80        0x8 build/sam_d21_xpro_winc1500/production/_ext/386821479/nmbus.o
                0x0000db80                nm_read_reg_with_ret

.text.nm_write_reg%349
                0x0000db88        0x8
 .text.nm_write_reg
                0x0000db88        0x8 build/sam_d21_xpro_winc1500/production/_ext/386821479/nmbus.o
                0x0000db88                nm_write_reg

.rodata.drvSPI0remapClockPhase%350
                0x0000db90        0x8
 .rodata.drvSPI0remapClockPhase
                0x0000db90        0x8 build/sam_d21_xpro_winc1500/production/_ext/281389274/initialization.o
                0x0000db90                drvSPI0remapClockPhase

.rodata.drvSPI0remapClockPolarity%351
                0x0000db98        0x8
 .rodata.drvSPI0remapClockPolarity
                0x0000db98        0x8 build/sam_d21_xpro_winc1500/production/_ext/281389274/initialization.o
                0x0000db98                drvSPI0remapClockPolarity

.rodata.sysTimeInitData%352
                0x0000dba0        0x8
 .rodata.sysTimeInitData
                0x0000dba0        0x8 build/sam_d21_xpro_winc1500/production/_ext/281389274/initialization.o
                0x0000dba0                sysTimeInitData

.text.TC3_TimerFrequencyGet%353
                0x0000dba8        0x8
 .text.TC3_TimerFrequencyGet
                0x0000dba8        0x8 build/sam_d21_xpro_winc1500/production/_ext/1143908167/plib_tc3.o
                0x0000dba8                TC3_TimerFrequencyGet

.text.nm_bus_iface_deinit%354
                0x0000995c        0x4
 .text.nm_bus_iface_deinit
                0x0000995c        0x4 build/sam_d21_xpro_winc1500/production/_ext/386821479/nmbus.o
                0x0000995c                nm_bus_iface_deinit

.rodata%355     0x0000d46c        0x4
 .rodata        0x0000d46c        0x4 build/sam_d21_xpro_winc1500/production/_ext/386821479/nmspi.o

.rodata.debugInit%356
                0x0000dbb0        0x4
 .rodata.debugInit
                0x0000dbb0        0x4 build/sam_d21_xpro_winc1500/production/_ext/281389274/initialization.o
                0x0000dbb0                debugInit

.text%357       0x0000dbb4        0x4
 .text          0x0000dbb4        0x4 c:/program files (x86)/microchip/xc32/v2.15/bin/bin/../../lib/gcc/pic32c/6.2.1\libgcc.a(_dvmd_tls.o)
                0x0000dbb4                __aeabi_idiv0
                0x0000dbb4                __aeabi_ldiv0

.rodata._global_impure_ptr%358
                0x0000dbb8        0x4
 .rodata._global_impure_ptr
                0x0000dbb8        0x4 c:/program files (x86)/microchip/xc32/v2.15/bin/bin/../../lib/gcc/pic32c/6.2.1/../../../../pic32c/lib\libc.a(lib_a-impure.o)
                0x0000dbb8                _global_impure_ptr

.text.__malloc_lock%359
                0x0000dbbc        0x4
 .text.__malloc_lock
                0x0000dbbc        0x4 c:/program files (x86)/microchip/xc32/v2.15/bin/bin/../../lib/gcc/pic32c/6.2.1/../../../../pic32c/lib\libc.a(lib_a-mlock.o)
                0x0000dbbc                __malloc_lock

.text.__malloc_unlock%360
                0x0000dbc0        0x4
 .text.__malloc_unlock
                0x0000dbc0        0x4 c:/program files (x86)/microchip/xc32/v2.15/bin/bin/../../lib/gcc/pic32c/6.2.1/../../../../pic32c/lib\libc.a(lib_a-mlock.o)
                0x0000dbc0                __malloc_unlock

.text.EVSYS_Initialize%361
                0x00008cfe        0x2
 .text.EVSYS_Initialize
                0x00008cfe        0x2 build/sam_d21_xpro_winc1500/production/_ext/1910849038/plib_evsys.o
                0x00008cfe                EVSYS_Initialize

.text.m2m_hif_cb%362
                0x0000a25a        0x2
 .text.m2m_hif_cb
                0x0000a25a        0x2 build/sam_d21_xpro_winc1500/production/_ext/386821479/m2m_hif.o

.text.Dummy_Handler%363
                0x0000aa8a        0x2
 .text.Dummy_Handler
                0x0000aa8a        0x2 build/sam_d21_xpro_winc1500/production/_ext/281389274/interrupts.o
                0x0000aa8a                SVCall_Handler
                0x0000aa8a                AC_Handler
                0x0000aa8a                SysTick_Handler
                0x0000aa8a                PendSV_Handler
                0x0000aa8a                TC7_Handler
                0x0000aa8a                SERCOM1_Handler
                0x0000aa8a                ADC_Handler
                0x0000aa8a                TCC1_Handler
                0x0000aa8a                SERCOM2_Handler
                0x0000aa8a                TCC0_Handler
                0x0000aa8a                RTC_Handler
                0x0000aa8a                TC6_Handler
                0x0000aa8a                WDT_Handler
                0x0000aa8a                TC4_Handler
                0x0000aa8a                USB_Handler
                0x0000aa8a                Dummy_Handler
                0x0000aa8a                PM_Handler
                0x0000aa8a                SERCOM5_Handler
                0x0000aa8a                TCC2_Handler
                0x0000aa8a                EVSYS_Handler
                0x0000aa8a                SERCOM4_Handler
                0x0000aa8a                I2S_Handler
                0x0000aa8a                NVMCTRL_Handler
                0x0000aa8a                DAC_Handler
                0x0000aa8a                PTC_Handler
                0x0000aa8a                TC5_Handler
                0x0000aa8a                SYSCTRL_Handler

.text.NonMaskableInt_Handler%364
                0x0000b346        0x2
 .text.NonMaskableInt_Handler
                0x0000b346        0x2 build/sam_d21_xpro_winc1500/production/_ext/281389274/exceptions.o
                0x0000b346                NonMaskableInt_Handler

.text.HardFault_Handler%365
                0x0000b4c6        0x2
 .text.HardFault_Handler
                0x0000b4c6        0x2 build/sam_d21_xpro_winc1500/production/_ext/281389274/exceptions.o
                0x0000b4c6                HardFault_Handler

.text.Console_UART_Tasks%366
                0x0000b90e        0x2
 .text.Console_UART_Tasks
                0x0000b90e        0x2 build/sam_d21_xpro_winc1500/production/_ext/2114417963/sys_console_uart.o
                0x0000b90e                Console_UART_Tasks
